(dp0
Vreactions
p1
(dp2
Vpaging
p3
(dp4
Vcursors
p5
(dp6
Vafter
p7
VTVRBd01ERXdNRFUxTWpNMk9EWTJPakUwTnpjM01UTXhOemM2TWpVME1EazJNVFl4TXc9PQZDZD
p8
sVbefore
p9
VTVRBd01ERXdNRFUxTWpNMk9EWTJPakUwTnpjM01UTXhOemM2TWpVME1EazJNVFl4TXc9PQZDZD
p10
ssVnext
p11
Vhttps://graph.facebook.com/v2.6/118828831495943_1389341711111309/reactions?access_token=599965930180946%7C575aa5390a4589483de7f8cf99702788&summary=true&limit=1&after=TVRBd01ERXdNRFUxTWpNMk9EWTJPakUwTnpjM01UTXhOemM2TWpVME1EazJNVFl4TXc9PQZDZD
p12
ssVdata
p13
(lp14
(dp15
Vtype
p16
VLIKE
p17
sVid
p18
V364818280530010
p19
sVname
p20
VFida Hussain
p21
sasVsummary
p22
(dp23
Vtotal_count
p24
I2986
sVviewer_reaction
p25
VNONE
p26
sssg20
VTimeline Photos
p27
sVshares
p28
(dp29
Vcount
p30
I480
ssVlink
p31
Vhttps://www.facebook.com/ExplorePakistan/photos/a.118837968161696.8199.118828831495943/1389341711111309/?type=3
p32
sVcomments
p33
(dp34
g3
(dp35
g5
(dp36
g7
VNgZDZD
p37
sg9
VMjUZD
p38
ssg11
Vhttps://graph.facebook.com/v2.6/118828831495943_1389341711111309/comments?access_token=599965930180946%7C575aa5390a4589483de7f8cf99702788&limit=20&after=NgZDZD
p39
ssg13
(lp40
(dp41
Vcreated_time
p42
V2016-10-05T07:11:04+0000
p43
sVmessage
p44
VSubhan Allah! Our beloved homeland is no less beautiful than other beautiful regions of the world.Allah pak buri nazar se bachae
p45
sVfrom
p46
(dp47
g20
VZaina Sheikh
p48
sg18
V722873964534412
p49
ssg18
V1389341711111309_1389366944442119
p50
sa(dp51
g42
V2016-10-05T06:41:38+0000
p52
sg44
VHow is the weather being so close to mountains?  Is it really cold all year long or just colder getting closer to the top?
p53
sg46
(dp54
g20
VAdam Lopez
p55
sg18
V1171524176268655
p56
ssg18
V1389341711111309_1389346854444128
p57
sa(dp58
g42
V2016-10-05T10:56:09+0000
p59
sg44
VMagnificent mountain created by The grace of Almighty ALLAH SWT
p60
sg46
(dp61
g20
VMuhammad Haris Shah
p62
sg18
V1022879904455408
p63
ssg18
V1389341711111309_1389508671094613
p64
sa(dp65
g42
V2016-10-05T17:59:12+0000
p66
sg44
VSeen it so many times from plane going to Gilgit. It is a beauty
p67
sg46
(dp68
g20
VHafeez Shaikh
p69
sg18
V10209527278633368
p70
ssg18
V1389341711111309_1389940711051409
p71
sa(dp72
g42
V2016-10-05T07:09:06+0000
p73
sg44
VAyesha Hamza Oliver Queen has been here \U0001f60d
p74
sg46
(dp75
g20
VAmna Idrees
p76
sg18
V10153853260782687
p77
ssg18
V1389341711111309_1389365181108962
p78
sa(dp79
g42
V2016-10-05T07:08:01+0000
p80
sg44
VLovrly place...i lv it
p81
sg46
(dp82
g20
VEdna Tamargo Piano
p83
sg18
V1698865810368035
p84
ssg18
V1389341711111309_1389364417775705
p85
sa(dp86
g42
V2016-10-05T10:29:36+0000
p87
sg44
VRank much higher in deadliest summits list.
p88
sg46
(dp89
g20
VUsman Ahmed
p90
sg18
V1239867632743050
p91
ssg18
V1389341711111309_1389496481095832
p92
sa(dp93
g42
V2016-10-05T06:44:43+0000
p94
sg44
VBeautiful <3
p95
sg46
(dp96
g20
VZaryab Masood
p97
sg18
V1180052615399522
p98
ssg18
V1389341711111309_1389348157777331
p99
sa(dp100
g42
V2016-10-05T10:46:05+0000
p101
sg44
VAwesome, beautiful SubhanAllah
p102
sg46
(dp103
g20
VAK Khan
p104
sg18
V1646137995635766
p105
ssg18
V1389341711111309_1389504067761740
p106
sa(dp107
g42
V2016-10-05T13:50:08+0000
p108
sg44
VSubhan allah khubsurat
p109
sg46
(dp110
g20
VHasaan Anna
p111
sg18
V10154659022278559
p112
ssg18
V1389341711111309_1389720104406803
p113
sa(dp114
g42
V2016-10-06T06:55:04+0000
p115
sg44
VAmna we go here next time ur here in khi..
p116
sg46
(dp117
g20
VMisha Wali
p118
sg18
V808895842578832
p119
ssg18
V1389341711111309_1390396894339124
p120
sa(dp121
g42
V2016-10-06T02:11:25+0000
p122
sg44
VYE MERE PAKISTAN YE TERA PAKISTAN HA IS PE DIL QURBAN IS PE JAAN BHI QURBAN HAI.
p123
sg46
(dp124
g20
VAnjum Canada
p125
sg18
V1206013769437087
p126
ssg18
V1389341711111309_1390235871021893
p127
sa(dp128
g42
V2016-10-05T15:34:17+0000
p129
sg44
VMain bhi gaya hua hoon base camp
p130
sg46
(dp131
g20
VAhmed Raza
p132
sg18
V219910485089025
p133
ssg18
V1389341711111309_1389808437731303
p134
sa(dp135
g42
V2016-10-05T21:47:47+0000
p136
sg44
VSubhan'Allah
p137
sg46
(dp138
g20
VBadar Noman
p139
sg18
V10154641046219859
p140
ssg18
V1389341711111309_1390085224370291
p141
sa(dp142
g42
V2016-10-05T19:09:45+0000
p143
sg44
VKhubsurat Pic
p144
sg46
(dp145
g20
VFarzana Fahim
p146
sg18
V188670501582419
p147
ssg18
V1389341711111309_1389983387713808
p148
sa(dp149
g42
V2016-10-05T08:33:04+0000
p150
sg44
VWao
p151
sg46
(dp152
g20
VRuqaiza Asif
p153
sg18
V313259722400367
p154
ssg18
V1389341711111309_1389425741102906
p155
sa(dp156
g42
V2016-10-05T13:32:35+0000
p157
sg44
VI want to move up there
p158
sg46
(dp159
g20
VNoman Amjad
p160
sg18
V1160138604008550
p161
ssg18
V1389341711111309_1389695111075969
p162
sa(dp163
g42
V2016-10-06T02:12:12+0000
p164
sg44
VYE MERE PAKISTAN YE TERA PAKISTAN HA IS PE DIL QURBAN IS PE JAAN BHI QURBAN HAI.
p165
sg46
(dp166
g20
VAnjum Canada
p167
sg18
V1206013769437087
p168
ssg18
V1389341711111309_1390236194355194
p169
sa(dp170
g42
V2016-10-06T02:11:30+0000
p171
sg44
VYE MERE PAKISTAN YE TERA PAKISTAN HA IS PE DIL QURBAN IS PE JAAN BHI QURBAN HAI.
p172
sg46
(dp173
g20
VAnjum Canada
p174
sg18
V1206013769437087
p175
ssg18
V1389341711111309_1390235887688558
p176
sa(dp177
g42
V2016-10-05T07:37:37+0000
p178
sg44
VHaMid ALi Waseem Arain
p179
sg46
(dp180
g20
VWaQas Chaudhary
p181
sg18
V792645184210055
p182
ssg18
V1389341711111309_1389383471107133
p183
sassg42
V2016-10-05T06:29:41+0000
p184
sg44
V#NAANGA #PARBAT is the ninth highest mountain in the world at 8,126 metres (26,660 ft) above sea level....\u000a\u000aDistt #Diamer... #Gilgit #Baltistan
p185
sg16
Vphoto
p186
sg18
V118828831495943_1389341711111309
p187
s.