(dp0
Vreactions
p1
(dp2
Vpaging
p3
(dp4
Vcursors
p5
(dp6
Vafter
p7
VTVRBd01EQTJOVFUxT0RjMk5qRTNPakUwTnpjNE9UTTJNak02TWpVME1EazJNVFl4TXc9PQZDZD
p8
sVbefore
p9
VTVRBd01EQTJOVFUxT0RjMk5qRTNPakUwTnpjNE9UTTJNak02TWpVME1EazJNVFl4TXc9PQZDZD
p10
ssVnext
p11
Vhttps://graph.facebook.com/v2.6/118828831495943_1411590308886449/reactions?access_token=599965930180946%7C575aa5390a4589483de7f8cf99702788&limit=1&after=TVRBd01EQTJOVFUxT0RjMk5qRTNPakUwTnpjNE9UTTJNak02TWpVME1EazJNVFl4TXc9PQZDZD
p12
ssVdata
p13
(lp14
(dp15
Vtype
p16
VLIKE
p17
sVid
p18
V1867038946857950
p19
sVname
p20
VAin Zahra
p21
sassg20
VTimeline Photos
p22
sVshares
p23
(dp24
Vcount
p25
I20
ssVlink
p26
Vhttps://www.facebook.com/ExplorePakistan/photos/a.118837968161696.8199.118828831495943/1411590308886449/?type=3
p27
sVcomments
p28
(dp29
g3
(dp30
g5
(dp31
g7
VMQZDZD
p32
sg9
VMwZDZD
p33
sssg13
(lp34
(dp35
Vcreated_time
p36
V2016-10-27T22:30:30+0000
p37
sVmessage
p38
VSUCH A PURE BEAUTY, MA SHAA ALLAH!!!
p39
sVfrom
p40
(dp41
g20
VQuaideazam Iqbal
p42
sg18
V1779926222266063
p43
ssg18
V1411590308886449_1413037425408404
p44
sa(dp45
g36
V2016-10-27T13:49:28+0000
p46
sg38
V
p47
sg40
(dp48
g20
VUsman Ali Khan
p49
sg18
V551221031753763
p50
ssg18
V1411590308886449_1412591328786347
p51
sa(dp52
g36
V2016-10-26T18:13:03+0000
p53
sg38
Vlove pakistan
p54
sg40
(dp55
g20
VSanam Zeb
p56
sg18
V328804570830393
p57
ssg18
V1411590308886449_1411632232215590
p58
sassg36
V2016-10-26T17:46:20+0000
p59
sg38
VYakshpirit ( Grazing Field for Yaks of #Passu) at the edges of batura Glacier #Passu #Pakistan
p60
sg16
Vphoto
p61
sg18
V118828831495943_1411590308886449
p62
s.