(dp0
Vreactions
p1
(dp2
Vpaging
p3
(dp4
Vcursors
p5
(dp6
Vafter
p7
VTVRnek1EQTFNelF6T1RveE5EYzNPRGswTkRVeU9qSTFOREE1TmpFMk1UTT0ZD
p8
sVbefore
p9
VTVRnek1EQTFNelF6T1RveE5EYzNPRGswTkRVeU9qSTFOREE1TmpFMk1UTT0ZD
p10
ssVnext
p11
Vhttps://graph.facebook.com/v2.6/118828831495943_1413596715352475/reactions?access_token=599965930180946%7C575aa5390a4589483de7f8cf99702788&limit=1&after=TVRnek1EQTFNelF6T1RveE5EYzNPRGswTkRVeU9qSTFOREE1TmpFMk1UTT0ZD
p12
ssVdata
p13
(lp14
(dp15
Vtype
p16
VLIKE
p17
sVid
p18
V10205495558268249
p19
sVname
p20
VWaqas Khalid
p21
sassg20
VTimeline Photos
p22
sVshares
p23
(dp24
Vcount
p25
I77
ssVlink
p26
Vhttps://www.facebook.com/ExplorePakistan/photos/a.118837968161696.8199.118828831495943/1413596715352475/?type=3
p27
sVcomments
p28
(dp29
g3
(dp30
g5
(dp31
g7
VNQZDZD
p32
sg9
VMjQZD
p33
ssg11
Vhttps://graph.facebook.com/v2.6/118828831495943_1413596715352475/comments?access_token=599965930180946%7C575aa5390a4589483de7f8cf99702788&limit=20&after=NQZDZD
p34
ssg13
(lp35
(dp36
Vcreated_time
p37
V2016-10-28T10:38:45+0000
p38
sVmessage
p39
VIt is around 8000ft...
p40
sVfrom
p41
(dp42
g20
VTahir Iqbal Swati
p43
sg18
V1578354578848809
p44
ssg18
V1413596715352475_1413613068684173
p45
sa(dp46
g37
V2016-10-30T01:50:26+0000
p47
sg39
V\ufe8d\ufbfe\ufb8f \ufee7\ufbff\ufb8f \ufeed\ufb58\ufeae\ufba8\ufbff\ufeb0\ufb94\ufe8e\ufead \ufeb7\ufea8\ufeba \ufee3\ufebc\ufeae\ufb58\ufba9\ufee8\ufb7d\ufe8e \u06d4 \ufeed\ufba8\ufe8e\ufb9e \ufe8d\ufeb1 \ufee7\ufbaf \ufe8d\ufbfe\ufb8f \ufedf\ufeee\ufba8\ufe8e\ufead \ufb90\ufeee\ufea9\ufbfe\ufb91\ufbad\ufe8e \ufeed\ufba6 \ufe8d\ufb58\ufee8\ufbaf \ufba8\ufe8e\ufe97\ufbad\ufeee\ufb9e \ufeb3\ufbaf \ufb58\ufb91\ufb8d \ufb90\ufeae \ufeb3\ufeae\ufea5 \ufe8d\ufeed\ufead \ufea9\ufba8\ufb91\ufe98\ufe8e \ufba8\ufeee\ufe8d \ufedf\ufeee\ufba8\ufe8e \ufe81\ufb92 \ufb90\ufbfd \ufe91\ufbad\ufb69\ufbfd \ufeb3\ufbaf \ufe91\ufe8e\ufba8\ufeae \ufee7\ufb91\ufe8e\ufedd \ufead\ufba8\ufe8e \ufba8\ufbaf \ufee3\ufb95\ufeae\ufe81\ufb92 \ufb90\ufbfd \ufea3\ufeae\ufe8d\ufead\ufe95 \ufeed\ufb94\ufeae\ufee3\ufbfd \ufb90\ufe8e \ufe8d\ufeb1 \ufb58\ufeae\ufb90\ufeee\ufe8b\ufef2 \ufe8d\ufe9b\ufeae\ufee7\ufba9\ufef4\ufb9f \ufe97\ufbad\ufe8e \u06d4 \u000a\ufe8d\ufeb1 \ufeb7\ufea8\ufeba \ufee7\ufbaf \ufe8d\ufb58\ufee8\ufbaf \ufea9\ufedd \ufee3\ufbff\ufb9f \ufb90\ufba9\ufe8e \ufb90\ufba7 :\ufbfe\ufba7 \ufe97\ufeee\ufb90\ufeee\ufe8b\ufef2 \ufe91\ufba9\ufe96 \ufba8\ufbfd \ufb58\ufba9\ufee8\ufb7d\ufe8e \ufba8\ufeee\ufe8d \ufe8d\ufeed\ufead\ufb58\ufeae\ufba8\ufbff\ufeb0\ufb94\ufe8e\ufead\ufe81\ufea9\ufee3\ufbfd \ufee3\ufecc\ufee0\ufeee\ufee1 \ufba8\ufeee\ufe97\ufe8e \ufba8\ufbaf \u06d4 \ufe8d\ufeb1 \ufedf\ufeee\ufba8\ufe8e\ufead \ufb90\ufbaf \ufb58\ufe8e\ufeb1 \ufb94\ufef4\ufe8e \ufeb3\ufefc\ufee1 \ufb90\ufbff\ufe8e \ufe8d\ufeed\ufead\ufb90\ufba9\ufee8\ufbaf \ufedf\ufb95\ufe8e :\ufe97\ufee4\ufba9\ufef4\ufb9f \ufed7\ufeb4\ufee2 \ufba8\ufbaf \ufe8d\ufeb1 \ufea7\ufeaa\ufe8d\ufb90\ufbfd \ufe9f\ufeb2 \ufee7\ufbaf \ufe97\ufee4\ufba9\ufbff\ufb9f \ufbfe\ufba7 \ufb90\ufeae\ufe8d\ufee3\ufe96 \ufecb\ufec4\ufe8e \ufb90\ufbfd \ufba8\ufbaf \ufee3\ufbff\ufeae\ufbae \ufea3\ufed6 \ufee3\ufbff\ufb9f \ufb90\ufeee\ufe8b\ufbfd \ufea9\ufecb\ufe8e \ufb90\ufeae\ufea9\ufeed \u06d4 \ufedf\ufeee\ufba8\ufe8e\ufead \ufee7\ufbaf \ufe9f\ufbff\ufeb4\ufbaf \ufba8\ufbfd \ufbfe\ufba7 \ufe91\ufe8e\ufe97\ufbff\ufb9f \ufeb3\ufee8\ufbff\ufb9f \ufe8d\ufeb1 \ufb58\ufeae\ufb94\ufeae\ufbfe\ufba7 \ufec3\ufe8e\ufead\ufbfc \ufba8\ufeee\ufb94\ufbff\ufe8e \ufe8d\ufeed\ufead\ufb90\ufba9\ufee8\ufbaf \ufedf\ufb95\ufe8e : \ufee3\ufbff\ufeae\ufbae \ufe91\ufe8e\ufead\ufbae \ufee3\ufbff\ufb9f \ufe9f\ufeee\ufe97\ufee2 \ufeb3\ufeee\ufb7a \ufead\ufba8\ufbaf \ufba8\ufeee \ufeed\ufbfe\ufeb4\ufe8e \ufee7\ufba9\ufef4\ufb9f \ufba8\ufbaf \ufee3\ufbff\ufb9f \ufee7\ufba7 \ufe97\ufeee\ufb90\ufeee\ufe8b\ufbfd \ufee3\ufe98\ufed8\ufbfd \ufba8\ufeee\ufb9e \ufe8d\ufeed\ufead\ufee7\ufba7 \ufba8\ufbfd \ufebb\ufe8e\ufedf\ufea4\ufbff\ufee6 \ufee3\ufbff\ufb9f \ufee3\ufbff\ufeae\ufe8d \ufeb7\ufee4\ufe8e\ufead \ufba8\ufeee\ufe97\ufe8e \ufba8\ufbaf \u06d4\u000a \ufe81\ufee7\ufbaf \ufeed\ufe8d\ufedf\ufbaf \ufeb7\ufea8\ufeba \ufee7\ufbaf \ufb90\ufba9\ufe8e \ufb90\ufba7 \ufbfe\ufba7 \ufb90\ufbff\ufeb4\ufbaf \ufee3\ufee4\ufb91\ufee6 \ufba8\ufbaf\u061f \ufe8d\ufeb1 \ufec3\ufeae\ufea1 \ufb90\ufe8e \ufb90\ufe8e\ufee1 \ufe8d\ufedf\ufee0\ufba7 \ufb90\ufbaf \ufee7\ufbff\ufb8f \ufe91\ufee8\ufeaa\ufeed\ufb9e \ufb90\ufbaf \ufeb3\ufeee\ufe8d \ufeb3\ufbaf \ufb90\ufeee\ufe8b\ufbfd \ufe8d\ufeed\ufead\ufee7\ufba9\ufbff\ufb9f \ufb90\ufeae\ufeb3\ufb91\ufe98\ufe8e \u061f\u000a\ufe8d\ufeb1 \ufee7\ufbaf \ufe9f\ufeee\ufe8d\ufe8f \ufea9\ufbfe\ufe8e \ufb68\ufbad\ufbff\ufb8f \ufb90\ufba9\ufe98\ufbaf \ufba8\ufeee \ufee3\ufb95\ufeae\ufee3\ufbff\ufeae\ufe8d \ufba8\ufe8e\ufe97\ufbab \ufe8d\ufbfe\ufeb4\ufe8e \ufe8d\ufeb1 \ufb90\ufbfd \ufb90\ufb7d\ufbab \ufe8d\ufeed\ufead\ufeed\ufe9f\ufba7 \ufba8\ufbaf \ufe81\ufee7\ufbaf \ufeed\ufe8d\ufedf\ufbaf \ufeb7\ufea8\ufeba \ufee7\ufbaf \ufe9f\ufe90 \ufeaf\ufbfe\ufe8e\ufea9\ufba6 \ufe8d\ufebb\ufeae\ufe8d\ufead\ufb90\ufbff\ufe8e \ufe97\ufeee\ufedf\ufeee\ufba8\ufe8e\ufead \ufee7\ufbaf \ufb90\ufba9\ufe8e : \ufe8d\ufbfe\ufb8f \ufea9\ufee5 \ufee3\ufbff\ufb9f \ufe8d\ufeb3\ufbfd \ufea9\ufeed\ufb90\ufe8e\ufee5 \ufee3\ufbff\ufb9f \ufb90\ufe8e\ufee1 \ufb90\ufeae\ufead\ufba8\ufe8e \ufe97\ufbad\ufe8e \u060c \ufe8d\ufbfe\ufb8f \ufe91\ufba9\ufe96 \ufba8\ufbfd \ufea3\ufeb4\ufbff\ufee6 \ufeed\ufea7\ufeee\ufeb5 \ufe8d\ufee7\ufeaa\ufe8d\ufee1 \ufecb\ufeee\ufead\ufe95 \ufb90\ufba7 \ufe8d\ufeb1 \ufeb3\ufbaf \ufb58\ufba9\ufee0\ufbaf \ufe8d\ufe97\ufee8\ufbfd \ufea7\ufeee\ufe91\ufebc\ufeee\ufead\ufe95 \ufecb\ufeee\ufead\ufe95 \ufb90\ufba9\ufbff\ufb9f \ufee7\ufba9\ufbff\ufb9f\u000a\ufea9\ufbfe\ufb91\ufbad\ufbfd \ufe97\ufbad\ufbfd \ufee3\ufbff\ufeae\ufbae \ufb58\ufe8e\ufeb1 \ufe81\ufe8b\ufef2 \ufe8d\ufeed\ufead\ufb90\ufba9\ufee8\ufbaf \ufedf\ufb95\ufbfd \ufb90\ufba7 \ufee3\ufbff\ufb9f \ufe91\ufba9\ufe96 \ufba8\ufbfd \ufecf\ufeae\ufbfe\ufe90 \ufeed\ufee3\ufed4\ufee0\ufeb2 \ufba8\ufeee\ufb9e \u06d4 \ufee3\ufbff\ufb9f \ufe8d\ufeb1 \ufb90\ufeee\ufea9\ufbfe\ufb91\ufbad\ufe98\ufbaf \ufba8\ufbfd \ufe8d\ufeb1 \ufb90\ufe8e \ufecb\ufe8e\ufeb7\ufed6 \ufba8\ufeee\ufb94\ufbff\ufe8e \ufe8d\ufeed\ufead\ufe8d\ufeb1 \ufb90\ufbaf \ufea3\ufeb4\ufee6 \ufee3\ufbff\ufb9f \ufb94\ufeae\ufed3\ufe98\ufe8e\ufead \ufba8\ufeee\ufb94\ufbff\ufe8e \ufee3\ufbff\ufb9f \ufee7\ufbaf \ufe8d\ufeb1 \ufeb3\ufbaf \ufb90\ufba9\ufe8e \ufb90\ufba7 \ufe8d\ufb94\ufeae\ufe97\ufeee\ufee3\ufbff\ufeae\ufbae \ufeb3\ufe8e\ufe97\ufbab \ufba8\ufee2 \ufe91\ufeb4\ufe98\ufeae \ufba8\ufeee\ufe9f\ufe8e\ufe8b\ufbaf \ufe97\ufeee\ufee3\ufbff\ufb9f \ufe97\ufbff\ufeae\ufbfc \ufba8\ufeae\ufebf\ufeae\ufeed\ufead\ufe95 \ufb58\ufeee\ufead\ufbfc \ufb90\ufeae\ufea9\ufeed\ufb9e \ufb94\ufe8e \u000a\u06d4 \ufbfe\ufba7 \ufeb3\ufee6 \ufb90\ufeae\ufe8d\ufeb1 \ufecb\ufeee\ufead\ufe95 \ufb90\ufe8e \ufb58\ufeee\ufead\ufe8d \ufe9f\ufeb4\ufee2 \ufedf\ufeae\ufeaf\ufe8d\ufb68\ufbad\ufe8e \ufe8d\ufeed\ufead\ufe8d\ufeb1 \ufb58\ufeae\ufe8d\ufbfe\ufb8f \ufe91\ufba9\ufe96 \ufba8\ufbfd \ufecb\ufea0\ufbff\ufe90 \ufeed\ufecf\ufeae\ufbfe\ufe90 \ufb90\ufbff\ufed4\ufbff\ufe96 \ufec3\ufe8e\ufead\ufbfc \ufba8\ufeee\ufb94\ufe8c\ufbfd \ufb90\ufba9\ufee8\ufbaf \ufedf\ufb95\ufbfd : \ufe8d\ufbae \ufee3\ufeae\ufea9 \ufea7\ufeaa\ufe8d\ufeb3\ufbaf \ufb88\ufead \ufee3\ufbff\ufb9f \ufe8d\ufeb1 \ufed7\ufee4\ufe8e\ufeb5 \ufb90\ufbfd \ufecb\ufeee\ufead\ufe95 \ufee7\ufba9\ufbff\ufb9f \ufba8\ufeee\ufb9e \u06d4 \ufe8d\ufeb1 \ufb90\ufbaf \ufe9f\ufeee\ufe8d\ufe8f \ufee3\ufbff\ufb9f \ufee3\ufbff\ufb9f \ufee7\ufbaf \ufb90\ufba9\ufe8e \ufe97\ufeee\ufb68\ufbad\ufbff\ufb8f \ufba8\ufbaf \ufe8d\ufb68\ufbab \ufe8d\ufeed\ufead\ufbfe\ufba9\ufe8e\ufb9e \ufeb3\ufbaf \ufb90\ufba9\ufbff\ufb9f \ufe8d\ufeed\ufead\ufb90\ufe8e \ufead\ufe8d\ufeb3\ufe98\ufba7 \ufea9\ufbfe\ufb91\ufbab \u06d4 \ufeed\ufba6 \ufecb\ufeee\ufead\ufe95 \ufb7c\ufee0\ufbfd\u000a\ufb94\ufe8c\ufbfd \ufee3\ufb95\ufeae\ufe97\ufbad\ufeee\ufb8c\ufbfc \ufba8\ufbfd \ufea9\ufbfe\ufeae \ufb90\ufbaf \ufe91\ufecc\ufeaa \ufeed\ufba6 \ufea9\ufeed\ufe91\ufe8e\ufead\ufba6 \ufeed\ufe8d\ufb58\ufeb2 \ufe81\ufe8b\ufbfd \ufe8d\ufeed\ufead\ufb90\ufba9\ufee8\ufbaf \ufedf\ufb95\ufbfd \ufecf\ufeae\ufe91\ufe96 \ufe97\ufee8\ufb95\ufeaa\ufeb3\ufe98\ufbfd \ufee3\ufea0\ufbad\ufbaf \ufee3\ufe8e\ufead\ufbae \ufb88\ufe8d\ufedd \ufead\ufba8\ufbfd \ufba8\ufbaf \ufe8d\ufeed\ufead\ufe8d\ufeb3\ufbfd \ufb7c\ufbff\ufeb0\ufee7\ufbaf \ufee3\ufea0\ufbad\ufbaf \ufee3\ufea0\ufe92\ufeee\ufead\ufb90\ufeae\ufea9\ufbfe\ufe8e \ufba8\ufbaf \ufb90\ufba7 \ufe97\ufbff\ufeae\ufbfc \ufea7\ufeee\ufe8d\ufba8\ufeb6 \ufb58\ufeae \ufba8\ufe8e\ufb9e \u06a9\u0631\ufedf\ufeee\ufb9e \u06d4\u000a\u000a\u0631\u0644\u0627 \u062f\u06cc\u0646\u06d2 \u0648\u0627\u0644\u0627 \u06cc\u06c1 \u0648\u0627\u0642\u0639\u06c1 \u067e\u0648\u0631\u0627 \u067e\u0691\u06be\u0646\u06d2 \u06a9\u06d2 \u0644\u06cc\u06d2 \u0645\u06cc\u0631\u06cc \u0622\u0626\u06cc \u0688\u06cc Mudassar Iqbal \u067e\u0631 \u06a9\u0644\u06a9 \u06a9\u0631\u06cc\u06ba\u06d4 \u0627\u0648\u0631 Follow \u06a9\u0631\u0644\u06cc\u06ba\u06d4 \u0622\u067e\u06a9\u0648 \u0645\u06cc\u0631\u06cc \u067e\u0648\u0633\u0679\u0633 \u0645\u0644\u062a\u06cc \u0631\u06c1\u06cc\u06ba \u06af\u06cc\u06d4 \u062c\u0632\u0627\u06a9 \u0627\u0644\u0644\u06c1\u06d4
p48
sg41
(dp49
g20
VMudassar Iqbal
p50
sg18
V1157538644324603
p51
ssg18
V1413596715352475_1415648585147288
p52
sa(dp53
g37
V2016-10-29T02:04:12+0000
p54
sg39
VWOOOW, MA SHAA ALLAH!! SO BEAUTIFUL!!!
p55
sg41
(dp56
g20
VQuaideazam Iqbal
p57
sg18
V1779926222266063
p58
ssg18
V1413596715352475_1414392555272891
p59
sa(dp60
g37
V2016-10-28T11:05:48+0000
p61
sg39
VGreat
p62
sg41
(dp63
g20
VBaqar Jutt
p64
sg18
V709102682573977
p65
ssg18
V1413596715352475_1413627535349393
p66
sa(dp67
g37
V2016-10-29T04:03:14+0000
p68
sg39
VI was there 3 weeks back and its lovely
p69
sg41
(dp70
g20
VMahwish Murtaza
p71
sg18
V10154767979299276
p72
ssg18
V1413596715352475_1414466438598836
p73
sa(dp74
g37
V2016-10-28T10:55:44+0000
p75
sg39
Vnice view"
p76
sg41
(dp77
g20
VJmc Biluya
p78
sg18
V285152815199377
p79
ssg18
V1413596715352475_1413622652016548
p80
sa(dp81
g37
V2016-10-28T10:29:07+0000
p82
sg39
VFari chalty hain na \U0001f623
p83
sg41
(dp84
g20
VMI Ansari
p85
sg18
V10154697256259265
p86
ssg18
V1413596715352475_1413607082018105
p87
sa(dp88
g37
V2016-10-29T11:14:12+0000
p89
sg39
VBeautifull
p90
sg41
(dp91
g20
VNayyar Sultana Qureshi
p92
sg18
V1154600077954964
p93
ssg18
V1413596715352475_1414829601895853
p94
sa(dp95
g37
V2016-10-28T13:22:50+0000
p96
sg39
Vi was visited. nice place greeen Valley
p97
sg41
(dp98
g20
VWaqas Hussain
p99
sg18
V10211035337299753
p100
ssg18
V1413596715352475_1413725648672915
p101
sa(dp102
g37
V2016-10-28T14:15:02+0000
p103
sg39
VBest in summer
p104
sg41
(dp105
g20
VKhan Saleem
p106
sg18
V1468138239882773
p107
ssg18
V1413596715352475_1413780332000780
p108
sa(dp109
g37
V2016-10-28T18:04:03+0000
p110
sg39
VI have been there...
p111
sg41
(dp112
g20
VShazia Mansoor
p113
sg18
V1190195187717539
p114
ssg18
V1413596715352475_1414006855311461
p115
sa(dp116
g37
V2016-10-29T11:15:22+0000
p117
sg39
VMost beautiful
p118
sg41
(dp119
g20
VEdna Tamargo Piano
p120
sg18
V1698865810368035
p121
ssg18
V1413596715352475_1414830591895754
p122
sa(dp123
g37
V2016-10-28T19:25:05+0000
p124
sg39
VMain ny to nahi dekha kidhr tha ye
p125
sg41
(dp126
g20
VAmna Usmani
p127
sg18
V10208988043512892
p128
ssg18
V1413596715352475_1414075331971280
p129
sa(dp130
g37
V2016-10-29T20:19:47+0000
p131
sg39
V\U0001f495\U0001f495\U0001f495
p132
sg41
(dp133
g20
VN Farrukh Sheikh
p134
sg18
V282262642174425
p135
ssg18
V1413596715352475_1415338875178259
p136
sa(dp137
g37
V2016-10-29T04:01:22+0000
p138
sg39
VHassan Rana n Faheem Bhatti yad ha thandiyani ka visit
p139
sg41
(dp140
g20
VAnum Naeem
p141
sg18
V656684507838553
p142
ssg18
V1413596715352475_1414465805265566
p143
sa(dp144
g37
V2016-10-29T06:04:43+0000
p145
sg39
VMuhammad Umair Altaf book krwa dena in Feb \U0001f602\U0001f602\U0001f602
p146
sg41
(dp147
g20
VNaveed Soomro
p148
sg18
V1489660797727822
p149
ssg18
V1413596715352475_1414562368589243
p150
sa(dp151
g37
V2016-10-29T08:30:25+0000
p152
sg39
VDr Nayab Dar
p153
sg41
(dp154
g20
VTariq Muhammed
p155
sg18
V1121822041205579
p156
ssg18
V1413596715352475_1414701981908615
p157
sa(dp158
g37
V2016-10-28T11:25:33+0000
p159
sg39
VNaima Shariff
p160
sg41
(dp161
g20
VArsalan Azad
p162
sg18
V10153814392956470
p163
ssg18
V1413596715352475_1413639948681485
p164
sa(dp165
g37
V2016-10-28T13:26:32+0000
p166
sg39
VRoheel Gill
p167
sg41
(dp168
g20
VAmna Habib
p169
sg18
V1159345224142077
p170
ssg18
V1413596715352475_1413727615339385
p171
sa(dp172
g37
V2016-10-29T07:44:22+0000
p173
sg39
VNoran Elashi
p174
sg41
(dp175
g20
VShoaib Shamsheri
p176
sg18
V10154094779645897
p177
ssg18
V1413596715352475_1414666455245501
p178
sassg37
V2016-10-28T10:23:34+0000
p179
sg39
VForest Rest house #THANDIANI.. #ABBOTTABAD\u000aThe Coldest Mountain of Abbottabad is Thandiani... it is at an elevation of above \u000a9000 ft...its a famous tourist spot...
p180
sg16
Vphoto
p181
sg18
V118828831495943_1413596715352475
p182
s.