(dp0
Vreactions
p1
(dp2
Vpaging
p3
(dp4
Vcursors
p5
(dp6
Vafter
p7
VTVRBd01ERXdNRFUxTWpNMk9EWTJPakUwTnpjM01UTXdPVGc2TWpVME1EazJNVFl4TXc9PQZDZD
p8
sVbefore
p9
VTVRBd01ERXdNRFUxTWpNMk9EWTJPakUwTnpjM01UTXdPVGc2TWpVME1EazJNVFl4TXc9PQZDZD
p10
ssVnext
p11
Vhttps://graph.facebook.com/v2.6/118828831495943_1396041003774713/reactions?access_token=599965930180946%7C575aa5390a4589483de7f8cf99702788&summary=true&limit=1&after=TVRBd01ERXdNRFUxTWpNMk9EWTJPakUwTnpjM01UTXdPVGc2TWpVME1EazJNVFl4TXc9PQZDZD
p12
ssVdata
p13
(lp14
(dp15
Vtype
p16
VLIKE
p17
sVid
p18
V364818280530010
p19
sVname
p20
VFida Hussain
p21
sasVsummary
p22
(dp23
Vtotal_count
p24
I1472
sVviewer_reaction
p25
VNONE
p26
sssg20
VTimeline Photos
p27
sVshares
p28
(dp29
Vcount
p30
I138
ssVlink
p31
Vhttps://www.facebook.com/ExplorePakistan/photos/a.118837968161696.8199.118828831495943/1396041003774713/?type=3
p32
sVcomments
p33
(dp34
g3
(dp35
g5
(dp36
g7
VNAZDZD
p37
sg9
VMjMZD
p38
ssg11
Vhttps://graph.facebook.com/v2.6/118828831495943_1396041003774713/comments?access_token=599965930180946%7C575aa5390a4589483de7f8cf99702788&limit=20&after=NAZDZD
p39
ssg13
(lp40
(dp41
Vcreated_time
p42
V2016-10-12T15:29:38+0000
p43
sVmessage
p44
VShogran in September 2016. Loved the serenity during eid holidays.
p45
sVfrom
p46
(dp47
g20
VFarah Wahab
p48
sg18
V1301255473238286
p49
ssg18
V1396041003774713_1396260393752774
p50
sa(dp51
g42
V2016-10-12T11:25:22+0000
p52
sg44
Vif you want calmness and peace of mind. Visit this place
p53
sg46
(dp54
g20
VMoazam Bajwa
p55
sg18
V1083725211676921
p56
ssg18
V1396041003774713_1396046387107508
p57
sa(dp58
g42
V2016-10-12T13:22:49+0000
p59
sg44
VAnd yahy jahil log khud ki nature lovers bolty hy \U0001f621\U0001f621\U0001f621 shogran .
p60
sg46
(dp61
g20
VMuhammad Ayub Noor MoHmand
p62
sg18
V1032221340203262
p63
ssg18
V1396041003774713_1396150737097073
p64
sa(dp65
g42
V2016-10-13T03:10:12+0000
p66
sg44
V
p67
sg46
(dp68
g20
VMaha Noor
p69
sg18
V214177692337295
p70
ssg18
V1396041003774713_1396781477033999
p71
sa(dp72
g42
V2016-10-12T12:28:22+0000
p73
sg44
VJust awesome.
p74
sg46
(dp75
g20
VSadia Rashid
p76
sg18
V517183525132880
p77
ssg18
V1396041003774713_1396088420436638
p78
sa(dp79
g42
V2016-10-12T11:32:38+0000
p80
sg44
g67
sg46
(dp81
g20
VUsman Mughal
p82
sg18
V1297800606921400
p83
ssg18
V1396041003774713_1396049270440553
p84
sa(dp85
g42
V2016-10-13T13:56:47+0000
p86
sg44
VWhat a scenic beauty, Ma Shaa Allah!!
p87
sg46
(dp88
g20
VQuaideazam Iqbal
p89
sg18
V1779926222266063
p90
ssg18
V1396041003774713_1397310183647795
p91
sa(dp92
g42
V2016-10-12T11:38:53+0000
p93
sg44
VStill beautiful
p94
sg46
(dp95
g20
VHasaan Anna
p96
sg18
V10154659022278559
p97
ssg18
V1396041003774713_1396052430440237
p98
sa(dp99
g42
V2016-10-12T15:10:47+0000
p100
sg44
VLovely
p101
sg46
(dp102
g20
VZaina Sheikh
p103
sg18
V722873964534412
p104
ssg18
V1396041003774713_1396249760420504
p105
sa(dp106
g42
V2016-10-13T14:03:53+0000
p107
sg44
Vpine park hotle shogran
p108
sg46
(dp109
g20
VBasharat Rasool
p110
sg18
V1618062445181258
p111
ssg18
V1396041003774713_1397316146980532
p112
sa(dp113
g42
V2016-10-12T11:50:48+0000
p114
sg44
VShogran 6th may 2015
p115
sg46
(dp116
g20
VNomi Hussain
p117
sg18
V1267524059978096
p118
ssg18
V1396041003774713_1396058437106303
p119
sa(dp120
g42
V2016-10-12T14:19:30+0000
p121
sg44
VBreath taking beauty
p122
sg46
(dp123
g20
VMajid Riaz
p124
sg18
V1078709438902729
p125
ssg18
V1396041003774713_1396214073757406
p126
sa(dp127
g42
V2016-10-12T15:53:32+0000
p128
sg44
Vnice
p129
sg46
(dp130
g20
VSanam Zeb
p131
sg18
V328804570830393
p132
ssg18
V1396041003774713_1396281463750667
p133
sa(dp134
g42
V2016-10-12T12:38:57+0000
p135
sg44
VAme Zara yahan plzz
p136
sg46
(dp137
g20
VYasmin Fatima
p138
sg18
V1667424646900952
p139
ssg18
V1396041003774713_1396094397102707
p140
sa(dp141
g42
V2016-10-13T06:16:25+0000
p142
sg44
VAhmed Ali check this page
p143
sg46
(dp144
g20
VRaheela Sajjad
p145
sg18
V1612266262400709
p146
ssg18
V1396041003774713_1396892457022901
p147
sa(dp148
g42
V2016-10-12T12:21:16+0000
p149
sg44
V\U0001f44d
p150
sg46
(dp151
g20
VHira Zaheer
p152
sg18
V333331287029058
p153
ssg18
V1396041003774713_1396080480437432
p154
sa(dp155
g42
V2016-10-12T12:26:47+0000
p156
sg44
VMuhammad Usman i was telling about this place
p157
sg46
(dp158
g20
VUmair Ahmad
p159
sg18
V1325142897510553
p160
ssg18
V1396041003774713_1396087430436737
p161
sa(dp162
g42
V2016-10-17T18:25:52+0000
p163
sg44
Vi wishhhhhhhhhhh...
p164
sg46
(dp165
g20
VSaba Naseer
p166
sg18
V1117153648369273
p167
ssg18
V1396041003774713_1402094713169342
p168
sa(dp169
g42
V2016-10-14T05:48:23+0000
p170
sg44
VSiri Paai ... 10 to 15 km from shograan. A real heavan.\u2764\u2764
p171
sg46
(dp172
g20
VSara Ali
p173
sg18
V1793461114266975
p174
ssg18
V1396041003774713_1398263140219166
p175
sa(dp176
g42
V2016-10-12T16:49:34+0000
p177
sg44
V<3
p178
sg46
(dp179
g20
VSaima Zamir
p180
sg18
V10210568274103971
p181
ssg18
V1396041003774713_1396317507080396
p182
sassg42
V2016-10-12T11:12:53+0000
p183
sg44
V#Shogran is a hill station situated on a green plateau in the #Kaghan Valley, northern #Pakistan at a height of 7,749 feet above sea level.Shogran is located at a distance of 34 km away from #Balakot.
p184
sg16
Vphoto
p185
sg18
V118828831495943_1396041003774713
p186
s.