(dp0
Vreactions
p1
(dp2
Vpaging
p3
(dp4
Vcursors
p5
(dp6
Vafter
p7
VTVRBd01EQTJOVFUxT0RjMk5qRTNPakUwTnpjNE9UTTFOakU2TWpVME1EazJNVFl4TXc9PQZDZD
p8
sVbefore
p9
VTVRBd01EQTJOVFUxT0RjMk5qRTNPakUwTnpjNE9UTTFOakU2TWpVME1EazJNVFl4TXc9PQZDZD
p10
ssVnext
p11
Vhttps://graph.facebook.com/v2.6/118828831495943_1413937691985044/reactions?access_token=599965930180946%7C575aa5390a4589483de7f8cf99702788&limit=1&after=TVRBd01EQTJOVFUxT0RjMk5qRTNPakUwTnpjNE9UTTFOakU2TWpVME1EazJNVFl4TXc9PQZDZD
p12
ssVdata
p13
(lp14
(dp15
Vtype
p16
VLIKE
p17
sVid
p18
V1867038946857950
p19
sVname
p20
VAin Zahra
p21
sassg20
VTimeline Photos
p22
sVshares
p23
(dp24
Vcount
p25
I130
ssVlink
p26
Vhttps://www.facebook.com/ExplorePakistan/photos/a.118837968161696.8199.118828831495943/1413937691985044/?type=3
p27
sVcomments
p28
(dp29
g3
(dp30
g5
(dp31
g7
VMQZDZD
p32
sg9
VMTEZD
p33
sssg13
(lp34
(dp35
Vcreated_time
p36
V2016-10-28T17:57:14+0000
p37
sVmessage
p38
VFantastic
p39
sVfrom
p40
(dp41
g20
VMubashir Iqbal
p42
sg18
V1403068876388205
p43
ssg18
V1413937691985044_1414002625311884
p44
sa(dp45
g36
V2016-10-29T00:27:31+0000
p46
sg38
VImagine going for a walk here!!
p47
sg40
(dp48
g20
VKhatir Ahmadzai
p49
sg18
V1266601783359205
p50
ssg18
V1413937691985044_1414315185280628
p51
sa(dp52
g36
V2016-10-30T01:50:10+0000
p53
sg38
V\ufe8d\ufbfe\ufb8f \ufee7\ufbff\ufb8f \ufeed\ufb58\ufeae\ufba8\ufbff\ufeb0\ufb94\ufe8e\ufead \ufeb7\ufea8\ufeba \ufee3\ufebc\ufeae\ufb58\ufba9\ufee8\ufb7d\ufe8e \u06d4 \ufeed\ufba8\ufe8e\ufb9e \ufe8d\ufeb1 \ufee7\ufbaf \ufe8d\ufbfe\ufb8f \ufedf\ufeee\ufba8\ufe8e\ufead \ufb90\ufeee\ufea9\ufbfe\ufb91\ufbad\ufe8e \ufeed\ufba6 \ufe8d\ufb58\ufee8\ufbaf \ufba8\ufe8e\ufe97\ufbad\ufeee\ufb9e \ufeb3\ufbaf \ufb58\ufb91\ufb8d \ufb90\ufeae \ufeb3\ufeae\ufea5 \ufe8d\ufeed\ufead \ufea9\ufba8\ufb91\ufe98\ufe8e \ufba8\ufeee\ufe8d \ufedf\ufeee\ufba8\ufe8e \ufe81\ufb92 \ufb90\ufbfd \ufe91\ufbad\ufb69\ufbfd \ufeb3\ufbaf \ufe91\ufe8e\ufba8\ufeae \ufee7\ufb91\ufe8e\ufedd \ufead\ufba8\ufe8e \ufba8\ufbaf \ufee3\ufb95\ufeae\ufe81\ufb92 \ufb90\ufbfd \ufea3\ufeae\ufe8d\ufead\ufe95 \ufeed\ufb94\ufeae\ufee3\ufbfd \ufb90\ufe8e \ufe8d\ufeb1 \ufb58\ufeae\ufb90\ufeee\ufe8b\ufef2 \ufe8d\ufe9b\ufeae\ufee7\ufba9\ufef4\ufb9f \ufe97\ufbad\ufe8e \u06d4 \u000a\ufe8d\ufeb1 \ufeb7\ufea8\ufeba \ufee7\ufbaf \ufe8d\ufb58\ufee8\ufbaf \ufea9\ufedd \ufee3\ufbff\ufb9f \ufb90\ufba9\ufe8e \ufb90\ufba7 :\ufbfe\ufba7 \ufe97\ufeee\ufb90\ufeee\ufe8b\ufef2 \ufe91\ufba9\ufe96 \ufba8\ufbfd \ufb58\ufba9\ufee8\ufb7d\ufe8e \ufba8\ufeee\ufe8d \ufe8d\ufeed\ufead\ufb58\ufeae\ufba8\ufbff\ufeb0\ufb94\ufe8e\ufead\ufe81\ufea9\ufee3\ufbfd \ufee3\ufecc\ufee0\ufeee\ufee1 \ufba8\ufeee\ufe97\ufe8e \ufba8\ufbaf \u06d4 \ufe8d\ufeb1 \ufedf\ufeee\ufba8\ufe8e\ufead \ufb90\ufbaf \ufb58\ufe8e\ufeb1 \ufb94\ufef4\ufe8e \ufeb3\ufefc\ufee1 \ufb90\ufbff\ufe8e \ufe8d\ufeed\ufead\ufb90\ufba9\ufee8\ufbaf \ufedf\ufb95\ufe8e :\ufe97\ufee4\ufba9\ufef4\ufb9f \ufed7\ufeb4\ufee2 \ufba8\ufbaf \ufe8d\ufeb1 \ufea7\ufeaa\ufe8d\ufb90\ufbfd \ufe9f\ufeb2 \ufee7\ufbaf \ufe97\ufee4\ufba9\ufbff\ufb9f \ufbfe\ufba7 \ufb90\ufeae\ufe8d\ufee3\ufe96 \ufecb\ufec4\ufe8e \ufb90\ufbfd \ufba8\ufbaf \ufee3\ufbff\ufeae\ufbae \ufea3\ufed6 \ufee3\ufbff\ufb9f \ufb90\ufeee\ufe8b\ufbfd \ufea9\ufecb\ufe8e \ufb90\ufeae\ufea9\ufeed \u06d4 \ufedf\ufeee\ufba8\ufe8e\ufead \ufee7\ufbaf \ufe9f\ufbff\ufeb4\ufbaf \ufba8\ufbfd \ufbfe\ufba7 \ufe91\ufe8e\ufe97\ufbff\ufb9f \ufeb3\ufee8\ufbff\ufb9f \ufe8d\ufeb1 \ufb58\ufeae\ufb94\ufeae\ufbfe\ufba7 \ufec3\ufe8e\ufead\ufbfc \ufba8\ufeee\ufb94\ufbff\ufe8e \ufe8d\ufeed\ufead\ufb90\ufba9\ufee8\ufbaf \ufedf\ufb95\ufe8e : \ufee3\ufbff\ufeae\ufbae \ufe91\ufe8e\ufead\ufbae \ufee3\ufbff\ufb9f \ufe9f\ufeee\ufe97\ufee2 \ufeb3\ufeee\ufb7a \ufead\ufba8\ufbaf \ufba8\ufeee \ufeed\ufbfe\ufeb4\ufe8e \ufee7\ufba9\ufef4\ufb9f \ufba8\ufbaf \ufee3\ufbff\ufb9f \ufee7\ufba7 \ufe97\ufeee\ufb90\ufeee\ufe8b\ufbfd \ufee3\ufe98\ufed8\ufbfd \ufba8\ufeee\ufb9e \ufe8d\ufeed\ufead\ufee7\ufba7 \ufba8\ufbfd \ufebb\ufe8e\ufedf\ufea4\ufbff\ufee6 \ufee3\ufbff\ufb9f \ufee3\ufbff\ufeae\ufe8d \ufeb7\ufee4\ufe8e\ufead \ufba8\ufeee\ufe97\ufe8e \ufba8\ufbaf \u06d4\u000a \ufe81\ufee7\ufbaf \ufeed\ufe8d\ufedf\ufbaf \ufeb7\ufea8\ufeba \ufee7\ufbaf \ufb90\ufba9\ufe8e \ufb90\ufba7 \ufbfe\ufba7 \ufb90\ufbff\ufeb4\ufbaf \ufee3\ufee4\ufb91\ufee6 \ufba8\ufbaf\u061f \ufe8d\ufeb1 \ufec3\ufeae\ufea1 \ufb90\ufe8e \ufb90\ufe8e\ufee1 \ufe8d\ufedf\ufee0\ufba7 \ufb90\ufbaf \ufee7\ufbff\ufb8f \ufe91\ufee8\ufeaa\ufeed\ufb9e \ufb90\ufbaf \ufeb3\ufeee\ufe8d \ufeb3\ufbaf \ufb90\ufeee\ufe8b\ufbfd \ufe8d\ufeed\ufead\ufee7\ufba9\ufbff\ufb9f \ufb90\ufeae\ufeb3\ufb91\ufe98\ufe8e \u061f\u000a\ufe8d\ufeb1 \ufee7\ufbaf \ufe9f\ufeee\ufe8d\ufe8f \ufea9\ufbfe\ufe8e \ufb68\ufbad\ufbff\ufb8f \ufb90\ufba9\ufe98\ufbaf \ufba8\ufeee \ufee3\ufb95\ufeae\ufee3\ufbff\ufeae\ufe8d \ufba8\ufe8e\ufe97\ufbab \ufe8d\ufbfe\ufeb4\ufe8e \ufe8d\ufeb1 \ufb90\ufbfd \ufb90\ufb7d\ufbab \ufe8d\ufeed\ufead\ufeed\ufe9f\ufba7 \ufba8\ufbaf \ufe81\ufee7\ufbaf \ufeed\ufe8d\ufedf\ufbaf \ufeb7\ufea8\ufeba \ufee7\ufbaf \ufe9f\ufe90 \ufeaf\ufbfe\ufe8e\ufea9\ufba6 \ufe8d\ufebb\ufeae\ufe8d\ufead\ufb90\ufbff\ufe8e \ufe97\ufeee\ufedf\ufeee\ufba8\ufe8e\ufead \ufee7\ufbaf \ufb90\ufba9\ufe8e : \ufe8d\ufbfe\ufb8f \ufea9\ufee5 \ufee3\ufbff\ufb9f \ufe8d\ufeb3\ufbfd \ufea9\ufeed\ufb90\ufe8e\ufee5 \ufee3\ufbff\ufb9f \ufb90\ufe8e\ufee1 \ufb90\ufeae\ufead\ufba8\ufe8e \ufe97\ufbad\ufe8e \u060c \ufe8d\ufbfe\ufb8f \ufe91\ufba9\ufe96 \ufba8\ufbfd \ufea3\ufeb4\ufbff\ufee6 \ufeed\ufea7\ufeee\ufeb5 \ufe8d\ufee7\ufeaa\ufe8d\ufee1 \ufecb\ufeee\ufead\ufe95 \ufb90\ufba7 \ufe8d\ufeb1 \ufeb3\ufbaf \ufb58\ufba9\ufee0\ufbaf \ufe8d\ufe97\ufee8\ufbfd \ufea7\ufeee\ufe91\ufebc\ufeee\ufead\ufe95 \ufecb\ufeee\ufead\ufe95 \ufb90\ufba9\ufbff\ufb9f \ufee7\ufba9\ufbff\ufb9f\u000a\ufea9\ufbfe\ufb91\ufbad\ufbfd \ufe97\ufbad\ufbfd \ufee3\ufbff\ufeae\ufbae \ufb58\ufe8e\ufeb1 \ufe81\ufe8b\ufef2 \ufe8d\ufeed\ufead\ufb90\ufba9\ufee8\ufbaf \ufedf\ufb95\ufbfd \ufb90\ufba7 \ufee3\ufbff\ufb9f \ufe91\ufba9\ufe96 \ufba8\ufbfd \ufecf\ufeae\ufbfe\ufe90 \ufeed\ufee3\ufed4\ufee0\ufeb2 \ufba8\ufeee\ufb9e \u06d4 \ufee3\ufbff\ufb9f \ufe8d\ufeb1 \ufb90\ufeee\ufea9\ufbfe\ufb91\ufbad\ufe98\ufbaf \ufba8\ufbfd \ufe8d\ufeb1 \ufb90\ufe8e \ufecb\ufe8e\ufeb7\ufed6 \ufba8\ufeee\ufb94\ufbff\ufe8e \ufe8d\ufeed\ufead\ufe8d\ufeb1 \ufb90\ufbaf \ufea3\ufeb4\ufee6 \ufee3\ufbff\ufb9f \ufb94\ufeae\ufed3\ufe98\ufe8e\ufead \ufba8\ufeee\ufb94\ufbff\ufe8e \ufee3\ufbff\ufb9f \ufee7\ufbaf \ufe8d\ufeb1 \ufeb3\ufbaf \ufb90\ufba9\ufe8e \ufb90\ufba7 \ufe8d\ufb94\ufeae\ufe97\ufeee\ufee3\ufbff\ufeae\ufbae \ufeb3\ufe8e\ufe97\ufbab \ufba8\ufee2 \ufe91\ufeb4\ufe98\ufeae \ufba8\ufeee\ufe9f\ufe8e\ufe8b\ufbaf \ufe97\ufeee\ufee3\ufbff\ufb9f \ufe97\ufbff\ufeae\ufbfc \ufba8\ufeae\ufebf\ufeae\ufeed\ufead\ufe95 \ufb58\ufeee\ufead\ufbfc \ufb90\ufeae\ufea9\ufeed\ufb9e \ufb94\ufe8e \u000a\u06d4 \ufbfe\ufba7 \ufeb3\ufee6 \ufb90\ufeae\ufe8d\ufeb1 \ufecb\ufeee\ufead\ufe95 \ufb90\ufe8e \ufb58\ufeee\ufead\ufe8d \ufe9f\ufeb4\ufee2 \ufedf\ufeae\ufeaf\ufe8d\ufb68\ufbad\ufe8e \ufe8d\ufeed\ufead\ufe8d\ufeb1 \ufb58\ufeae\ufe8d\ufbfe\ufb8f \ufe91\ufba9\ufe96 \ufba8\ufbfd \ufecb\ufea0\ufbff\ufe90 \ufeed\ufecf\ufeae\ufbfe\ufe90 \ufb90\ufbff\ufed4\ufbff\ufe96 \ufec3\ufe8e\ufead\ufbfc \ufba8\ufeee\ufb94\ufe8c\ufbfd \ufb90\ufba9\ufee8\ufbaf \ufedf\ufb95\ufbfd : \ufe8d\ufbae \ufee3\ufeae\ufea9 \ufea7\ufeaa\ufe8d\ufeb3\ufbaf \ufb88\ufead \ufee3\ufbff\ufb9f \ufe8d\ufeb1 \ufed7\ufee4\ufe8e\ufeb5 \ufb90\ufbfd \ufecb\ufeee\ufead\ufe95 \ufee7\ufba9\ufbff\ufb9f \ufba8\ufeee\ufb9e \u06d4 \ufe8d\ufeb1 \ufb90\ufbaf \ufe9f\ufeee\ufe8d\ufe8f \ufee3\ufbff\ufb9f \ufee3\ufbff\ufb9f \ufee7\ufbaf \ufb90\ufba9\ufe8e \ufe97\ufeee\ufb68\ufbad\ufbff\ufb8f \ufba8\ufbaf \ufe8d\ufb68\ufbab \ufe8d\ufeed\ufead\ufbfe\ufba9\ufe8e\ufb9e \ufeb3\ufbaf \ufb90\ufba9\ufbff\ufb9f \ufe8d\ufeed\ufead\ufb90\ufe8e \ufead\ufe8d\ufeb3\ufe98\ufba7 \ufea9\ufbfe\ufb91\ufbab \u06d4 \ufeed\ufba6 \ufecb\ufeee\ufead\ufe95 \ufb7c\ufee0\ufbfd\u000a\ufb94\ufe8c\ufbfd \ufee3\ufb95\ufeae\ufe97\ufbad\ufeee\ufb8c\ufbfc \ufba8\ufbfd \ufea9\ufbfe\ufeae \ufb90\ufbaf \ufe91\ufecc\ufeaa \ufeed\ufba6 \ufea9\ufeed\ufe91\ufe8e\ufead\ufba6 \ufeed\ufe8d\ufb58\ufeb2 \ufe81\ufe8b\ufbfd \ufe8d\ufeed\ufead\ufb90\ufba9\ufee8\ufbaf \ufedf\ufb95\ufbfd \ufecf\ufeae\ufe91\ufe96 \ufe97\ufee8\ufb95\ufeaa\ufeb3\ufe98\ufbfd \ufee3\ufea0\ufbad\ufbaf \ufee3\ufe8e\ufead\ufbae \ufb88\ufe8d\ufedd \ufead\ufba8\ufbfd \ufba8\ufbaf \ufe8d\ufeed\ufead\ufe8d\ufeb3\ufbfd \ufb7c\ufbff\ufeb0\ufee7\ufbaf \ufee3\ufea0\ufbad\ufbaf \ufee3\ufea0\ufe92\ufeee\ufead\ufb90\ufeae\ufea9\ufbfe\ufe8e \ufba8\ufbaf \ufb90\ufba7 \ufe97\ufbff\ufeae\ufbfc \ufea7\ufeee\ufe8d\ufba8\ufeb6 \ufb58\ufeae \ufba8\ufe8e\ufb9e \u06a9\u0631\ufedf\ufeee\ufb9e \u06d4\u000a\u000a\u0631\u0644\u0627 \u062f\u06cc\u0646\u06d2 \u0648\u0627\u0644\u0627 \u06cc\u06c1 \u0648\u0627\u0642\u0639\u06c1 \u067e\u0648\u0631\u0627 \u067e\u0691\u06be\u0646\u06d2 \u06a9\u06d2 \u0644\u06cc\u06d2 \u0645\u06cc\u0631\u06cc \u0622\u0626\u06cc \u0688\u06cc Mudassar Iqbal \u067e\u0631 \u06a9\u0644\u06a9 \u06a9\u0631\u06cc\u06ba\u06d4 \u0627\u0648\u0631 Follow \u06a9\u0631\u0644\u06cc\u06ba\u06d4 \u0622\u067e\u06a9\u0648 \u0645\u06cc\u0631\u06cc \u067e\u0648\u0633\u0679\u0633 \u0645\u0644\u062a\u06cc \u0631\u06c1\u06cc\u06ba \u06af\u06cc\u06d4 \u062c\u0632\u0627\u06a9 \u0627\u0644\u0644\u06c1\u06d4
p54
sg40
(dp55
g20
VMudassar Iqbal
p56
sg18
V1157538644324603
p57
ssg18
V1413937691985044_1415648375147309
p58
sa(dp59
g36
V2016-10-29T23:51:28+0000
p60
sg38
VPlease write the names of the places on top of the photos, thank you!
p61
sg40
(dp62
g20
VMuna Haider
p63
sg18
V1810226315901136
p64
ssg18
V1413937691985044_1415561431822670
p65
sa(dp66
g36
V2016-10-29T19:00:35+0000
p67
sg38
VIt's a hobbit house! (The light here is gorgeous.)
p68
sg40
(dp69
g20
VTonya Maddox Cupp
p70
sg18
V10211200209623527
p71
ssg18
V1413937691985044_1415246031854210
p72
sa(dp73
g36
V2016-10-30T02:13:23+0000
p74
sg38
VSubhanAllah
p75
sg40
(dp76
g20
VAzra Javed
p77
sg18
V1093865847394851
p78
ssg18
V1413937691985044_1415670518478428
p79
sa(dp80
g36
V2016-10-29T23:46:24+0000
p81
sg38
VAmazing! What a cool long drive!
p82
sg40
(dp83
g20
VMuna Haider
p84
sg18
V1810226315901136
p85
ssg18
V1413937691985044_1415557695156377
p86
sa(dp87
g36
V2016-10-28T21:09:30+0000
p88
sg38
VWaw fantastique
p89
sg40
(dp90
g20
VJamila Fikri
p91
sg18
V330110590685232
p92
ssg18
V1413937691985044_1414174595294687
p93
sa(dp94
g36
V2016-10-29T19:45:04+0000
p95
sg38
V\U0001f495\U0001f495
p96
sg40
(dp97
g20
VN Farrukh Sheikh
p98
sg18
V282262642174425
p99
ssg18
V1413937691985044_1415301438515336
p100
sa(dp101
g36
V2016-10-28T18:51:59+0000
p102
sg38
VSajjad Jan This is Hunza
p103
sg40
(dp104
g20
VSajjad Haider
p105
sg18
V1252384838158829
p106
ssg18
V1413937691985044_1414047898640690
p107
sa(dp108
g36
V2016-10-30T04:55:00+0000
p109
sg38
VHamza Ahmad
p110
sg40
(dp111
g20
VSyed Taha Zafar
p112
sg18
V1228879200502716
p113
ssg18
V1413937691985044_1415799868465493
p114
sassg36
V2016-10-28T17:16:12+0000
p115
sg38
V#Fall Colours of #Gulmit #Gojal #Pakistan
p116
sg16
Vphoto
p117
sg18
V118828831495943_1413937691985044
p118
s.