(dp0
Vreactions
p1
(dp2
Vpaging
p3
(dp4
Vcursors
p5
(dp6
Vafter
p7
VTVRBd01ERXdNRFUxTWpNMk9EWTJPakUwTnpjM01UTXhPRGc2TWpVME1EazJNVFl4TXc9PQZDZD
p8
sVbefore
p9
VTVRBd01ERXdNRFUxTWpNMk9EWTJPakUwTnpjM01UTXhPRGc2TWpVME1EazJNVFl4TXc9PQZDZD
p10
ssVnext
p11
Vhttps://graph.facebook.com/v2.6/118828831495943_1387839651261515/reactions?access_token=599965930180946%7C575aa5390a4589483de7f8cf99702788&summary=true&limit=1&after=TVRBd01ERXdNRFUxTWpNMk9EWTJPakUwTnpjM01UTXhPRGc2TWpVME1EazJNVFl4TXc9PQZDZD
p12
ssVdata
p13
(lp14
(dp15
Vtype
p16
VLIKE
p17
sVid
p18
V364818280530010
p19
sVname
p20
VFida Hussain
p21
sasVsummary
p22
(dp23
Vtotal_count
p24
I1145
sVviewer_reaction
p25
VNONE
p26
sssg20
VTimeline Photos
p27
sVshares
p28
(dp29
Vcount
p30
I161
ssVlink
p31
Vhttps://www.facebook.com/ExplorePakistan/photos/a.118837968161696.8199.118828831495943/1387839651261515/?type=3
p32
sVcomments
p33
(dp34
g3
(dp35
g5
(dp36
g7
VMQZDZD
p37
sg9
VNQZDZD
p38
sssg13
(lp39
(dp40
Vcreated_time
p41
V2016-10-03T17:08:21+0000
p42
sVmessage
p43
Vmiss you Attabad lake
p44
sVfrom
p45
(dp46
g20
VEid Amon
p47
sg18
V1808944726044035
p48
ssg18
V1387839651261515_1387945981250882
p49
sa(dp50
g41
V2016-10-03T14:50:16+0000
p51
sg43
VCheck This One.
p52
sg45
(dp53
g20
VMuhammad Jahangir Ahmed
p54
sg18
V1025299620929485
p55
ssg18
V1387839651261515_1387842267927920
p56
sa(dp57
g41
V2016-10-03T14:48:50+0000
p58
sg43
VFantastic view.
p59
sg45
(dp60
g20
VShahid Hussain
p61
sg18
V1778922825696740
p62
ssg18
V1387839651261515_1387841217928025
p63
sa(dp64
g41
V2016-10-03T16:52:33+0000
p65
sg43
VJu Tanveer Salman :)
p66
sg45
(dp67
g20
VLumi Zedaan
p68
sg18
V1139566406130267
p69
ssg18
V1387839651261515_1387932664585547
p70
sa(dp71
g41
V2016-10-06T09:43:21+0000
p72
sg43
VLike this page if u want to know about  the beauty of tribal areas.\u000a\u000ahttps://mbasic.facebook.com/Landikotalzalmi/
p73
sg45
(dp74
g20
VPirzada Shamsul-amin
p75
sg18
V1234582456609617
p76
ssg18
V1387839651261515_1390477824331031
p77
sassg41
V2016-10-03T14:48:03+0000
p78
sg43
VAtabad Lake #Gojal #Pakistan\u000a\u000aPicture : Tanveer Salman
p79
sg16
Vphoto
p80
sg18
V118828831495943_1387839651261515
p81
s.