(dp0
Vreactions
p1
(dp2
Vpaging
p3
(dp4
Vcursors
p5
(dp6
Vafter
p7
VTVRBd01ERXdNRFUxTWpNMk9EWTJPakUwTnpjM01UTXhOekE2TWpVME1EazJNVFl4TXc9PQZDZD
p8
sVbefore
p9
VTVRBd01ERXdNRFUxTWpNMk9EWTJPakUwTnpjM01UTXhOekE2TWpVME1EazJNVFl4TXc9PQZDZD
p10
ssVnext
p11
Vhttps://graph.facebook.com/v2.6/118828831495943_1391505927561554/reactions?access_token=599965930180946%7C575aa5390a4589483de7f8cf99702788&summary=true&limit=1&after=TVRBd01ERXdNRFUxTWpNMk9EWTJPakUwTnpjM01UTXhOekE2TWpVME1EazJNVFl4TXc9PQZDZD
p12
ssVdata
p13
(lp14
(dp15
Vtype
p16
VLIKE
p17
sVid
p18
V364818280530010
p19
sVname
p20
VFida Hussain
p21
sasVsummary
p22
(dp23
Vtotal_count
p24
I1171
sVviewer_reaction
p25
VNONE
p26
sssg20
VTimeline Photos
p27
sVshares
p28
(dp29
Vcount
p30
I126
ssVlink
p31
Vhttps://www.facebook.com/ExplorePakistan/photos/a.118837968161696.8199.118828831495943/1391505927561554/?type=3
p32
sVcomments
p33
(dp34
g3
(dp35
g5
(dp36
g7
VMQZDZD
p37
sg9
VMTAZD
p38
sssg13
(lp39
(dp40
Vcreated_time
p41
V2016-10-07T15:17:08+0000
p42
sVmessage
p43
VLove u Pakistan, Gilgat Baltistan, Rama, Naltar,Astor, Gojal etc
p44
sVfrom
p45
(dp46
g20
VSheri Gul
p47
sg18
V1829352193969158
p48
ssg18
V1391505927561554_1391522164226597
p49
sa(dp50
g41
V2016-10-07T15:44:49+0000
p51
sg43
V
p52
sg45
(dp53
g20
VTehreem Khan
p54
sg18
V1696832037239607
p55
ssg18
V1391505927561554_1391537567558390
p56
sa(dp57
g41
V2016-10-08T04:41:55+0000
p58
sg43
VLove Pakistan very nice pic
p59
sg45
(dp60
g20
VDua Khan Princesd
p61
sg18
V166111703850227
p62
ssg18
V1391505927561554_1392048097507337
p63
sa(dp64
g41
V2016-10-08T22:12:37+0000
p65
sg43
VBeautiful!
p66
sg45
(dp67
g20
VRasim Zoraiz
p68
sg18
V10205784025639063
p69
ssg18
V1391505927561554_1392766327435514
p70
sa(dp71
g41
V2016-10-08T06:56:29+0000
p72
sg43
VJust stunning
p73
sg45
(dp74
g20
VLiz Hughes
p75
sg18
V10154635417867346
p76
ssg18
V1391505927561554_1392117344167079
p77
sa(dp78
g41
V2016-10-07T16:03:59+0000
p79
sg43
VMost beautiful view
p80
sg45
(dp81
g20
VFarooq Ahmed
p82
sg18
V322336748134830
p83
ssg18
V1391505927561554_1391549090890571
p84
sa(dp85
g41
V2016-10-07T15:54:30+0000
p86
sg43
V\U0001f49e
p87
sg45
(dp88
g20
VSameen Baig
p89
sg18
V1307075586012017
p90
ssg18
V1391505927561554_1391543817557765
p91
sa(dp92
g41
V2016-10-07T15:01:21+0000
p93
sg43
VIncredible SubhanAllah
p94
sg45
(dp95
g20
VZainy Imran
p96
sg18
V323882814635062
p97
ssg18
V1391505927561554_1391515297560617
p98
sa(dp99
g41
V2016-10-08T08:12:29+0000
p100
sg43
VSarmad Ahmad
p101
sg45
(dp102
g20
VPaula Peltier
p103
sg18
V10157719899505436
p104
ssg18
V1391505927561554_1392161334162680
p105
sa(dp106
g41
V2016-10-07T17:38:14+0000
p107
sg43
VWasi Khan
p108
sg45
(dp109
g20
VUsman Khurshid
p110
sg18
V10157683418975181
p111
ssg18
V1391505927561554_1391608740884606
p112
sassg41
V2016-10-07T14:44:00+0000
p113
sg43
VAn Evening view of \u000athe Beautiful #Rakaposhi\u000a#Gilgit #Baltistan....#Pakistan\u000a\u000aPhoto: Atif Saeed
p114
sg16
Vphoto
p115
sg18
V118828831495943_1391505927561554
p116
s.