(dp0
Vreactions
p1
(dp2
Vpaging
p3
(dp4
Vcursors
p5
(dp6
Vafter
p7
VTVRBd01EQXdPVFk0TmpJeE5qRTNPakUwTnpjNE5EWTNPVFE2TWpVME1EazJNVFl4TXc9PQZDZD
p8
sVbefore
p9
VTVRBd01EQXdPVFk0TmpJeE5qRTNPakUwTnpjNE5EWTNPVFE2TWpVME1EazJNVFl4TXc9PQZDZD
p10
ssVnext
p11
Vhttps://graph.facebook.com/v2.6/118828831495943_1406750492703764/reactions?access_token=599965930180946%7C575aa5390a4589483de7f8cf99702788&limit=1&after=TVRBd01EQXdPVFk0TmpJeE5qRTNPakUwTnpjNE5EWTNPVFE2TWpVME1EazJNVFl4TXc9PQZDZD
p12
ssVdata
p13
(lp14
(dp15
Vtype
p16
VLIKE
p17
sVid
p18
V1243877228987886
p19
sVname
p20
VMuhammad Zohaib Randhawa
p21
sassg20
VTimeline Photos
p22
sVshares
p23
(dp24
Vcount
p25
I55
ssVlink
p26
Vhttps://www.facebook.com/ExplorePakistan/photos/a.118837968161696.8199.118828831495943/1406750492703764/?type=3
p27
sVcomments
p28
(dp29
g3
(dp30
g5
(dp31
g7
VMQZDZD
p32
sg9
VOQZDZD
p33
sssg13
(lp34
(dp35
Vcreated_time
p36
V2016-10-22T18:57:53+0000
p37
sVmessage
p38
VEdited pic ... there is no beauty of ring road in reality .. otherwise original pic may be posted
p39
sVfrom
p40
(dp41
g20
VMaaz Sajjad
p42
sg18
V1323211857712486
p43
ssg18
V1406750492703764_1407717359273744
p44
sa(dp45
g36
V2016-10-23T22:32:00+0000
p46
sg38
VGood ring road
p47
sg40
(dp48
g20
VJay Butt
p49
sg18
V1155243097916696
p50
ssg18
V1406750492703764_1408895895822557
p51
sa(dp52
g36
V2016-10-22T07:58:43+0000
p53
sg38
VBeauty?\u000a\u000aIt truly is in the eye of the beholder...
p54
sg40
(dp55
g20
VTanwer Kiani
p56
sg18
V10154169267822636
p57
ssg18
V1406750492703764_1407149559330524
p58
sa(dp59
g36
V2016-10-22T16:07:22+0000
p60
sg38
VBEAUTIFUL PAKISTAN, MA SHAA ALLAH!!
p61
sg40
(dp62
g20
VQuaideazam Iqbal
p63
sg18
V1779926222266063
p64
ssg18
V1406750492703764_1407572839288196
p65
sa(dp66
g36
V2016-10-22T10:13:40+0000
p67
sg38
VHahaha admin ... where is this ring road at lahore???
p68
sg40
(dp69
g20
VAbdul Sattar Qayumi
p70
sg18
V1131123260256289
p71
ssg18
V1406750492703764_1407234752655338
p72
sa(dp73
g36
V2016-10-23T09:16:12+0000
p74
sg38
VBeautiful road
p75
sg40
(dp76
g20
VRukhsana Khan
p77
sg18
V1747273428855478
p78
ssg18
V1406750492703764_1408313059214174
p79
sa(dp80
g36
V2016-10-22T10:28:11+0000
p81
sg38
VKash baqi soby bhi panjab k tarh kam kareen
p82
sg40
(dp83
g20
VPrince Ali Ali
p84
sg18
V179315869157640
p85
ssg18
V1406750492703764_1407244492654364
p86
sa(dp87
g36
V2016-10-22T10:29:00+0000
p88
sg38
VKamran Shamsi
p89
sg40
(dp90
g20
VUzman Farooq
p91
sg18
V10154419412353780
p92
ssg18
V1406750492703764_1407244975987649
p93
sassg36
V2016-10-21T22:24:02+0000
p94
sg38
VRing Road Lahore
p95
sg16
Vphoto
p96
sg18
V118828831495943_1406750492703764
p97
s.