(dp0
Vreactions
p1
(dp2
Vpaging
p3
(dp4
Vcursors
p5
(dp6
Vafter
p7
VTVRBd01EQTFOalUzTURnNE1UazRPakUwTnpjM05qRXhNemM2TWpVME1EazJNVFl4TXc9PQZDZD
p8
sVbefore
p9
VTVRBd01EQTFOalUzTURnNE1UazRPakUwTnpjM05qRXhNemM2TWpVME1EazJNVFl4TXc9PQZDZD
p10
ssVnext
p11
Vhttps://graph.facebook.com/v2.6/118828831495943_1411577512221062/reactions?access_token=599965930180946%7C575aa5390a4589483de7f8cf99702788&limit=1&after=TVRBd01EQTFOalUzTURnNE1UazRPakUwTnpjM05qRXhNemM2TWpVME1EazJNVFl4TXc9PQZDZD
p12
ssVdata
p13
(lp14
(dp15
Vtype
p16
VLIKE
p17
sVid
p18
V527111757487389
p19
sVname
p20
VSonia Khan
p21
sassg20
VTimeline Photos
p22
sVshares
p23
(dp24
Vcount
p25
I5
ssVlink
p26
Vhttps://www.facebook.com/ExplorePakistan/photos/a.118837968161696.8199.118828831495943/1411577512221062/?type=3
p27
sVcomments
p28
(dp29
g3
(dp30
g5
(dp31
g7
VMQZDZD
p32
sg9
VMgZDZD
p33
sssg13
(lp34
(dp35
Vcreated_time
p36
V2016-10-28T11:07:20+0000
p37
sVmessage
p38
VWill be visiting this soon... InshaAllah
p39
sVfrom
p40
(dp41
g20
VBaqar Jutt
p42
sg18
V709102682573977
p43
ssg18
V1411577512221062_1413628255349321
p44
sa(dp45
g36
V2016-10-26T17:36:43+0000
p46
sg38
VJunaid Khan jj
p47
sg40
(dp48
g20
VHarris Ejaz
p49
sg18
V1142054339171171
p50
ssg18
V1411577512221062_1411585965553550
p51
sassg36
V2016-10-26T17:30:09+0000
p52
sg38
VSadpara Lake #Skardu #Pakistan\u000a\u000aPicture : Sabir Hussain
p53
sg16
Vphoto
p54
sg18
V118828831495943_1411577512221062
p55
s.