(dp0
Vreactions
p1
(dp2
Vpaging
p3
(dp4
Vcursors
p5
(dp6
Vafter
p7
VTVRBd01EQTVNREExT1RBNE5EVXhPakUwTnpjNE1qSTVNVGc2TWpVME1EazJNVFl4TXc9PQZDZD
p8
sVbefore
p9
VTVRBd01EQTVNREExT1RBNE5EVXhPakUwTnpjNE1qSTVNVGc2TWpVME1EazJNVFl4TXc9PQZDZD
p10
ssVnext
p11
Vhttps://graph.facebook.com/v2.6/118828831495943_1412812752097538/reactions?access_token=599965930180946%7C575aa5390a4589483de7f8cf99702788&limit=1&after=TVRBd01EQTVNREExT1RBNE5EVXhPakUwTnpjNE1qSTVNVGc2TWpVME1EazJNVFl4TXc9PQZDZD
p12
ssVdata
p13
(lp14
(dp15
Vtype
p16
VLIKE
p17
sVid
p18
V1670278143282366
p19
sVname
p20
VShair Khan
p21
sassg20
VExplore the Beauty of Pakistan's cover photo
p22
sVshares
p23
(dp24
Vcount
p25
I50
ssVlink
p26
Vhttps://www.facebook.com/ExplorePakistan/photos/a.367850203260470.93432.118828831495943/1412812575430889/?type=3
p27
sVcomments
p28
(dp29
g3
(dp30
g5
(dp31
g7
VMQZDZD
p32
sg9
VMwZDZD
p33
sssg13
(lp34
(dp35
Vcreated_time
p36
V2016-10-27T17:59:58+0000
p37
sVmessage
p38
VMy favorite picture from a recent visit to Gilgit Baltistan
p39
sVfrom
p40
(dp41
g20
VTariq Mahmood
p42
sg18
V1775575159362741
p43
ssg18
V1412812575430889_1412814965430650
p44
sa(dp45
g36
V2016-10-27T18:27:43+0000
p46
sg38
VThe realm of Rohan.
p47
sg40
(dp48
g20
VSummera Shaheen Malik
p49
sg18
V1273020992731651
p50
ssg18
V1412812575430889_1412862552092558
p51
sa(dp52
g36
V2016-10-28T16:05:27+0000
p53
sg38
VAllhumdulillah
p54
sg40
(dp55
g20
VMuhammad Faheem Aamir
p56
sg18
V10207428591889507
p57
ssg18
V1412812575430889_1413870575325089
p58
sassg36
V2016-10-27T17:55:52+0000
p59
sg38
V#Pakistan is #Amazing\u000a#Pakistan is #Wonderful\u000a\u000a#Passu #Gilgit #Baltistan #Pakistan\u000a\u000aPicture : Tariq Mahmood
p60
sg16
Vphoto
p61
sg18
V118828831495943_1412812752097538
p62
s.