(dp0
Vreactions
p1
(dp2
Vpaging
p3
(dp4
Vcursors
p5
(dp6
Vafter
p7
VTVRBd01ERXdNRFUxTWpNMk9EWTJPakUwTnpjM01UTXhNalk2TWpVME1EazJNVFl4TXc9PQZDZD
p8
sVbefore
p9
VTVRBd01ERXdNRFUxTWpNMk9EWTJPakUwTnpjM01UTXhNalk2TWpVME1EazJNVFl4TXc9PQZDZD
p10
ssVnext
p11
Vhttps://graph.facebook.com/v2.6/118828831495943_1393530240692456/reactions?access_token=599965930180946%7C575aa5390a4589483de7f8cf99702788&summary=true&limit=1&after=TVRBd01ERXdNRFUxTWpNMk9EWTJPakUwTnpjM01UTXhNalk2TWpVME1EazJNVFl4TXc9PQZDZD
p12
ssVdata
p13
(lp14
(dp15
Vtype
p16
VLIKE
p17
sVid
p18
V364818280530010
p19
sVname
p20
VFida Hussain
p21
sasVsummary
p22
(dp23
Vtotal_count
p24
I1105
sVviewer_reaction
p25
VNONE
p26
sssg20
VTimeline Photos
p27
sVshares
p28
(dp29
Vcount
p30
I100
ssVlink
p31
Vhttps://www.facebook.com/ExplorePakistan/photos/a.118837968161696.8199.118828831495943/1393530240692456/?type=3
p32
sVcomments
p33
(dp34
g3
(dp35
g5
(dp36
g7
VMQZDZD
p37
sg9
VMgZDZD
p38
sssg13
(lp39
(dp40
Vcreated_time
p41
V2016-10-09T20:47:56+0000
p42
sVmessage
p43
VGod is great, only him does this painting
p44
sVfrom
p45
(dp46
g20
VAsotie Praize
p47
sg18
V1199974270046000
p48
ssg18
V1393530240692456_1393659504012863
p49
sa(dp50
g41
V2016-10-09T18:52:57+0000
p51
sg43
VKasim Alee
p52
sg45
(dp53
g20
VMuhammad Shahram
p54
sg18
V768663989940934
p55
ssg18
V1393530240692456_1393566664022147
p56
sassg41
V2016-10-09T18:01:03+0000
p57
sg43
VAmazing Phander Valley #Pakistan\u000a\u000aPicture : Uzair Ahmad's Photography
p58
sg16
Vphoto
p59
sg18
V118828831495943_1393530240692456
p60
s.