(dp0
Vreactions
p1
(dp2
Vpaging
p3
(dp4
Vcursors
p5
(dp6
Vafter
p7
VTVRBd01ERXdNRFUxTWpNMk9EWTJPakUwTnpjM01UTXlNRFk2TWpVME1EazJNVFl4TXc9PQZDZD
p8
sVbefore
p9
VTVRBd01ERXdNRFUxTWpNMk9EWTJPakUwTnpjM01UTXlNRFk2TWpVME1EazJNVFl4TXc9PQZDZD
p10
ssVnext
p11
Vhttps://graph.facebook.com/v2.6/118828831495943_1386081184770695/reactions?access_token=599965930180946%7C575aa5390a4589483de7f8cf99702788&summary=true&limit=1&after=TVRBd01ERXdNRFUxTWpNMk9EWTJPakUwTnpjM01UTXlNRFk2TWpVME1EazJNVFl4TXc9PQZDZD
p12
ssVdata
p13
(lp14
(dp15
Vtype
p16
VLIKE
p17
sVid
p18
V364818280530010
p19
sVname
p20
VFida Hussain
p21
sasVsummary
p22
(dp23
Vtotal_count
p24
I1159
sVviewer_reaction
p25
VNONE
p26
sssg20
VTimeline Photos
p27
sVshares
p28
(dp29
Vcount
p30
I89
ssVlink
p31
Vhttps://www.facebook.com/ExplorePakistan/photos/a.118837968161696.8199.118828831495943/1386081184770695/?type=3
p32
sVcomments
p33
(dp34
g3
(dp35
g5
(dp36
g7
VMQZDZD
p37
sg9
VOQZDZD
p38
sssg13
(lp39
(dp40
Vcreated_time
p41
V2016-10-02T11:30:08+0000
p42
sVmessage
p43
Vwow I love it and its my childhood dream To go such a beautiful place and do adventure.... pride of my country <3
p44
sVfrom
p45
(dp46
g20
VFarah Saleem
p47
sg18
V596469220525341
p48
ssg18
V1386081184770695_1386694194709394
p49
sa(dp50
g41
V2016-10-02T10:57:58+0000
p51
sg43
VRakaposhi View Point. on the way to Gilgit.
p52
sg45
(dp53
g20
VAmmar Ahmad
p54
sg18
V1212966198765148
p55
ssg18
V1386081184770695_1386676994711114
p56
sa(dp57
g41
V2016-10-02T07:36:15+0000
p58
sg43
VAt Rakaposhi \U0001f60a
p59
sg45
(dp60
g20
VRana Adnan Ahmed
p61
sg18
V10209693860295874
p62
ssg18
V1386081184770695_1386542751391205
p63
sa(dp64
g41
V2016-10-02T18:09:39+0000
p65
sg43
VFabulous pic
p66
sg45
(dp67
g20
VHasaan Anna
p68
sg18
V10154659022278559
p69
ssg18
V1386081184770695_1387017864677027
p70
sa(dp71
g41
V2016-10-01T21:10:51+0000
p72
sg43
VLaybaa Fayyaz
p73
sg45
(dp74
g20
VZirwah Mumtaz
p75
sg18
V949681205136558
p76
ssg18
V1386081184770695_1386129531432527
p77
sa(dp78
g41
V2016-10-01T21:54:56+0000
p79
sg43
VAli Shafqat Chattha
p80
sg45
(dp81
g20
VSadia Khushhal
p82
sg18
V1117362641675000
p83
ssg18
V1386081184770695_1386160668096080
p84
sa(dp85
g41
V2016-10-01T21:46:41+0000
p86
sg43
VAmara Gondal Samiya Mukhtar ..
p87
sg45
(dp88
g20
VSehar Fatima
p89
sg18
V1158063227581459
p90
ssg18
V1386081184770695_1386155721429908
p91
sa(dp92
g41
V2016-10-02T15:44:10+0000
p93
sg43
VJhon Atif
p94
sg45
(dp95
g20
VArslan Afzal
p96
sg18
V1021564674629189
p97
ssg18
V1386081184770695_1386897071355773
p98
sa(dp99
g41
V2016-10-01T20:48:42+0000
p100
sg43
VDumani
p101
sg45
(dp102
g20
VKhola Binte Asad
p103
sg18
V527876194049779
p104
ssg18
V1386081184770695_1386112444767569
p105
sassg41
V2016-10-01T20:04:28+0000
p106
sg43
VAvalanche on Rakaposhi. (7788m)\u000a#GILGIT... #PAKISTAN\u000a\u000aPhoto: UZAIR AHMED
p107
sg16
Vphoto
p108
sg18
V118828831495943_1386081184770695
p109
s.