(dp0
Vreactions
p1
(dp2
Vpaging
p3
(dp4
Vcursors
p5
(dp6
Vafter
p7
VTVRBd01ERXdNRFUxTWpNMk9EWTJPakUwTnpjM01UTXhPRFk2TWpVME1EazJNVFl4TXc9PQZDZD
p8
sVbefore
p9
VTVRBd01ERXdNRFUxTWpNMk9EWTJPakUwTnpjM01UTXhPRFk2TWpVME1EazJNVFl4TXc9PQZDZD
p10
ssVnext
p11
Vhttps://graph.facebook.com/v2.6/118828831495943_1387919154586898/reactions?access_token=599965930180946%7C575aa5390a4589483de7f8cf99702788&summary=true&limit=1&after=TVRBd01ERXdNRFUxTWpNMk9EWTJPakUwTnpjM01UTXhPRFk2TWpVME1EazJNVFl4TXc9PQZDZD
p12
ssVdata
p13
(lp14
(dp15
Vtype
p16
VLIKE
p17
sVid
p18
V364818280530010
p19
sVname
p20
VFida Hussain
p21
sasVsummary
p22
(dp23
Vtotal_count
p24
I6711
sVviewer_reaction
p25
VNONE
p26
sssg20
VTimeline Photos
p27
sVshares
p28
(dp29
Vcount
p30
I1127
ssVlink
p31
Vhttps://www.facebook.com/ExplorePakistan/photos/a.118837968161696.8199.118828831495943/1387919154586898/?type=3
p32
sVcomments
p33
(dp34
g3
(dp35
g5
(dp36
g7
VNDgZD
p37
sg9
VNjcZD
p38
ssg11
Vhttps://graph.facebook.com/v2.6/118828831495943_1387919154586898/comments?access_token=599965930180946%7C575aa5390a4589483de7f8cf99702788&limit=20&after=NDgZD
p39
ssg13
(lp40
(dp41
Vcreated_time
p42
V2016-10-03T17:44:42+0000
p43
sVmessage
p44
VGetting on a bit too well...with the way the boys are holding hands \U0001f609
p45
sVfrom
p46
(dp47
g20
VZaffar Iqbal
p48
sg18
V10210032870393666
p49
ssg18
V1387919154586898_1387974057914741
p50
sa(dp51
g42
V2016-10-04T08:39:52+0000
p52
sg44
VTHATS TRUE FRIENDSHIP. We do not speak the same language, we do not look similar, we do not have the same religion and so much more, yet China and Pakistan are remarkable friends. Nothing but respects for Chinese people.
p53
sg46
(dp54
g20
VBurhan Hashmi
p55
sg18
V1606035623033593
p56
ssg18
V1387919154586898_1388511484527665
p57
sa(dp58
g42
V2016-10-03T16:41:02+0000
p59
sg44
VSeems like jaldi he yeh dosti Rishtedari mai badal jaye ge :p
p60
sg46
(dp61
g20
VFaizan Ahmed
p62
sg18
V1392934087391499
p63
ssg18
V1387919154586898_1387922544586559
p64
sa(dp65
g42
V2016-10-03T20:04:12+0000
p66
sg44
VBut can Pakistanis cross this so called most friendly border easily into China???
p67
sg46
(dp68
g20
VM Abbas Mirza
p69
sg18
V10210854778749514
p70
ssg18
V1387919154586898_1388086671236813
p71
sa(dp72
g42
V2016-10-06T07:49:56+0000
p73
sg44
VAur ais started friendship ko konsa name di ,what we should called to the new relationship ,
p74
sg46
(dp75
g20
VFarid Z Khan
p76
sg18
V10153822961442047
p77
ssg18
V1387919154586898_1390428237669323
p78
sa(dp79
g42
V2016-10-03T20:23:07+0000
p80
sg44
VMasha Allah. May Allah keep evil eyes blind nd ear deaf! Nd keep it peaceful da way it is
p81
sg46
(dp82
g20
VGuloona Khan
p83
sg18
V366589210351596
p84
ssg18
V1387919154586898_1388098764568937
p85
sa(dp86
g42
V2016-10-03T20:05:49+0000
p87
sg44
VMost peaceful and highest on the earth, actually on top of the earth.
p88
sg46
(dp89
g20
VNadeem Ashraf
p90
sg18
V1246051615433644
p91
ssg18
V1387919154586898_1388087581236722
p92
sa(dp93
g42
V2016-10-04T14:16:21+0000
p94
sg44
VIn the Dutch town of Baarle-Nassau, the border to the neighbouring Belgian town
p95
sg46
(dp96
g20
VAmmar Ghumman
p97
sg18
V10155472756799899
p98
ssg18
V1387919154586898_1388699797842167
p99
sa(dp100
g42
V2016-10-03T19:43:13+0000
p101
sg44
Vthe most peaceful border in Asia *
p102
sg46
(dp103
g20
VMuhammad Fawad
p104
sg18
V1328936937140895
p105
ssg18
V1387919154586898_1388073357904811
p106
sa(dp107
g42
V2016-10-04T08:29:06+0000
p108
sg44
VPeaceful borders bro go visit Europe please
p109
sg46
(dp110
g20
VSaQib Asad
p111
sg18
V1443682662325785
p112
ssg18
V1387919154586898_1388506084528205
p113
sa(dp114
g42
V2016-10-03T16:44:10+0000
p115
sg44
VMay our friendship remains forever :)
p116
sg46
(dp117
g20
VNick Arsi
p118
sg18
V1372489336124593
p119
ssg18
V1387919154586898_1387924497919697
p120
sa(dp121
g42
V2016-10-03T16:58:15+0000
p122
sg44
VMay live long Pak China Friendship
p123
sg46
(dp124
g20
VRaheel Sarfraz
p125
sg18
V10207580736460353
p126
ssg18
V1387919154586898_1387937567918390
p127
sa(dp128
g42
V2016-10-04T01:45:14+0000
p129
sg44
VThis is not peaceful, it is Piece full
p130
sg46
(dp131
g20
VBilal Muhammad Siddiqui
p132
sg18
V10157637818530641
p133
ssg18
V1387919154586898_1388302194548594
p134
sa(dp135
g42
V2016-10-03T17:46:14+0000
p136
sg44
VNo doubt
p137
sg46
(dp138
g20
VHabib Tassadduq
p139
sg18
V320283981638449
p140
ssg18
V1387919154586898_1387975054581308
p141
sa(dp142
g42
V2016-10-03T18:40:31+0000
p143
sg44
Vwoooow nice
p144
sg46
(dp145
g20
VSanam Zeb
p146
sg18
V328804570830393
p147
ssg18
V1387919154586898_1388013627910784
p148
sa(dp149
g42
V2016-10-03T17:10:41+0000
p150
sg44
V
p151
sg46
(dp152
g20
VShakil Ahmed
p153
sg18
V1434988763195263
p154
ssg18
V1387919154586898_1387947061250774
p155
sa(dp156
g42
V2016-10-03T16:53:01+0000
p157
sg44
VAllah blss u both
p158
sg46
(dp159
g20
VEdna Tamargo Piano
p160
sg18
V1698865810368035
p161
ssg18
V1387919154586898_1387933004585513
p162
sa(dp163
g42
V2016-10-03T19:37:46+0000
p164
sg44
VBuahahhahahahahahahhahahaha wtf..... pathan vs chaini \U0001f602\U0001f602\U0001f602
p165
sg46
(dp166
g20
VSheikh Danish
p167
sg18
V1711892215798098
p168
ssg18
V1387919154586898_1388067801238700
p169
sa(dp170
g42
V2016-10-03T19:36:16+0000
p171
sg44
VThey may not hold hands like this at least #lol
p172
sg46
(dp173
g20
VAleez Khan
p174
sg18
V10154654712034680
p175
ssg18
V1387919154586898_1388066794572134
p176
sa(dp177
g42
V2016-10-04T17:37:36+0000
p178
sg44
g151
sg46
(dp179
g20
VNawab Tanweer Ahmad
p180
sg18
V10154227884883740
p181
ssg18
V1387919154586898_1388851281160352
p182
sassg42
V2016-10-03T16:35:07+0000
p183
sg44
VDedicated to ever lasting Pak China Friendship.
p184
sg16
Vphoto
p185
sg18
V118828831495943_1387919154586898
p186
s.