(dp0
Vreactions
p1
(dp2
Vpaging
p3
(dp4
Vcursors
p5
(dp6
Vafter
p7
VTVRBd01EQTFNakE0TURNMk9UazJPakUwTnpjNE5UTXpORE02TWpVME1EazJNVFl4TXc9PQZDZD
p8
sVbefore
p9
VTVRBd01EQTFNakE0TURNMk9UazJPakUwTnpjNE5UTXpORE02TWpVME1EazJNVFl4TXc9PQZDZD
p10
ssVnext
p11
Vhttps://graph.facebook.com/v2.6/118828831495943_1409590299086450/reactions?access_token=599965930180946%7C575aa5390a4589483de7f8cf99702788&limit=1&after=TVRBd01EQTFNakE0TURNMk9UazJPakUwTnpjNE5UTXpORE02TWpVME1EazJNVFl4TXc9PQZDZD
p12
ssVdata
p13
(lp14
(dp15
Vtype
p16
VLIKE
p17
sVid
p18
V561562887360641
p19
sVname
p20
VSalman Mubeen
p21
sassg20
VTimeline Photos
p22
sVshares
p23
(dp24
Vcount
p25
I155
ssVlink
p26
Vhttps://www.facebook.com/ExplorePakistan/photos/a.118837968161696.8199.118828831495943/1409590299086450/?type=3
p27
sVcomments
p28
(dp29
g3
(dp30
g5
(dp31
g7
VMQZDZD
p32
sg9
VMTcZD
p33
sssg13
(lp34
(dp35
Vcreated_time
p36
V2016-10-24T17:45:24+0000
p37
sVmessage
p38
VHow old is this pic??
p39
sVfrom
p40
(dp41
g20
VAdnan Shahidullah Khan
p42
sg18
V1179860205359883
p43
ssg18
V1409590299086450_1409591849086295
p44
sa(dp45
g36
V2016-10-25T02:34:06+0000
p46
sg38
VNice
p47
sg40
(dp48
g20
VAnila Azhar
p49
sg18
V406700083052744
p50
ssg18
V1409590299086450_1409957465716400
p51
sa(dp52
g36
V2016-10-25T21:10:54+0000
p53
sg38
V
p54
sg40
(dp55
g20
VSyed Waseem Qadri
p56
sg18
V1128162637218886
p57
ssg18
V1409590299086450_1410763138969166
p58
sa(dp59
g36
V2016-10-24T17:45:27+0000
p60
sg38
Vi love
p61
sg40
(dp62
g20
VSanam Zeb
p63
sg18
V328804570830393
p64
ssg18
V1409590299086450_1409591882419625
p65
sa(dp66
g36
V2016-10-25T08:58:41+0000
p67
sg38
VBeautiful yaad.
p68
sg40
(dp69
g20
VFarzana William
p70
sg18
V329847870707406
p71
ssg18
V1409590299086450_1410209055691241
p72
sa(dp73
g36
V2016-10-25T03:35:35+0000
p74
sg38
VBeautiuf yaad.
p75
sg40
(dp76
g20
VFarzana William
p77
sg18
V329847870707406
p78
ssg18
V1409590299086450_1409989332379880
p79
sa(dp80
g36
V2016-10-24T18:55:02+0000
p81
sg38
VSaiful malook  naran 16/8/16
p82
sg40
(dp83
g20
VMazhar Iqbal
p84
sg18
V1164643556941025
p85
ssg18
V1409590299086450_1409633669082113
p86
sa(dp87
g36
V2016-10-25T01:57:46+0000
p88
sg38
g54
sg40
(dp89
g20
VEdna Tamargo Piano
p90
sg18
V1698865810368035
p91
ssg18
V1409590299086450_1409928989052581
p92
sa(dp93
g36
V2016-10-25T20:57:00+0000
p94
sg38
VBeautiful
p95
sg40
(dp96
g20
VAziza Bano
p97
sg18
V1186027978102097
p98
ssg18
V1409590299086450_1410755892303224
p99
sa(dp100
g36
V2016-10-24T17:59:06+0000
p101
sg38
Vnice place
p102
sg40
(dp103
g20
VPaulina R Le\u015bniak
p104
sg18
V1050667868314019
p105
ssg18
V1409590299086450_1409601939085286
p106
sa(dp107
g36
V2016-10-24T17:56:09+0000
p108
sg38
VSo beautiful
p109
sg40
(dp110
g20
VSaima Noman
p111
sg18
V334455036913689
p112
ssg18
V1409590299086450_1409600099085470
p113
sa(dp114
g36
V2016-10-27T05:12:30+0000
p115
sg38
VBeautiful
p116
sg40
(dp117
g20
VMalik Ittrat Mushtaq
p118
sg18
V662310540595972
p119
ssg18
V1409590299086450_1412175955494551
p120
sa(dp121
g36
V2016-10-24T19:14:12+0000
p122
sg38
VSara Hassan
p123
sg40
(dp124
g20
VRizwan Jan
p125
sg18
V1410318078998024
p126
ssg18
V1409590299086450_1409650362413777
p127
sa(dp128
g36
V2016-10-25T15:17:39+0000
p129
sg38
VMuhammad Saqib Allah poche ga Muhammad Umair Altaf
p130
sg40
(dp131
g20
VNaveed Soomro
p132
sg18
V1489660797727822
p133
ssg18
V1409590299086450_1410478348997645
p134
sa(dp135
g36
V2016-10-24T18:25:54+0000
p136
sg38
V<3
p137
sg40
(dp138
g20
VKamran Haider
p139
sg18
V995449283914382
p140
ssg18
V1409590299086450_1409618725750274
p141
sa(dp142
g36
V2016-10-24T17:47:16+0000
p143
sg38
VTahir Mughal
p144
sg40
(dp145
g20
VAmna Habib
p146
sg18
V1159345224142077
p147
ssg18
V1409590299086450_1409592779086202
p148
sa(dp149
g36
V2016-10-25T15:22:51+0000
p150
sg38
VMelia Labib
p151
sg40
(dp152
g20
VNafees Ahmed
p153
sg18
V1185262211554616
p154
ssg18
V1409590299086450_1410481708997309
p155
sassg36
V2016-10-24T17:42:01+0000
p156
sg38
VThe Beautiful Lake Saif ul Malook\u000a#Naran... #KPK... #Pakistan
p157
sg16
Vphoto
p158
sg18
V118828831495943_1409590299086450
p159
s.