(dp0
Vreactions
p1
(dp2
Vpaging
p3
(dp4
Vcursors
p5
(dp6
Vafter
p7
VTVRBd01EQTRNekF5TnpBeE56VXpPakUwTnpjNE5ESXhOekk2TWpVME1EazJNVFl4TXc9PQZDZD
p8
sVbefore
p9
VTVRBd01EQTRNekF5TnpBeE56VXpPakUwTnpjNE5ESXhOekk2TWpVME1EazJNVFl4TXc9PQZDZD
p10
ssVnext
p11
Vhttps://graph.facebook.com/v2.6/118828831495943_1391611940884286/reactions?access_token=599965930180946%7C575aa5390a4589483de7f8cf99702788&summary=true&limit=1&after=TVRBd01EQTRNekF5TnpBeE56VXpPakUwTnpjNE5ESXhOekk2TWpVME1EazJNVFl4TXc9PQZDZD
p12
ssVdata
p13
(lp14
(dp15
Vtype
p16
VLIKE
p17
sVid
p18
V1839063496380389
p19
sVname
p20
VKhalid Khan
p21
sasVsummary
p22
(dp23
Vtotal_count
p24
I2143
sVviewer_reaction
p25
VNONE
p26
sssg20
VPhotos from Explore the Beauty of Pakistan's post
p27
sVshares
p28
(dp29
Vcount
p30
I135
ssVlink
p31
Vhttps://www.facebook.com/ExplorePakistan/photos/a.792414727470680.1073741830.118828831495943/1391611147551032/?type=3
p32
sVcomments
p33
(dp34
g3
(dp35
g5
(dp36
g7
VMQZDZD
p37
sg9
VMTgZD
p38
sssg13
(lp39
(dp40
Vcreated_time
p41
V2016-10-07T17:47:20+0000
p42
sVmessage
p43
V\u2661\u2661Islamabad the beautiful\u2661\u2661\u2661
p44
sVfrom
p45
(dp46
g20
VAdnan Shahidullah Khan
p47
sg18
V1179860205359883
p48
ssg18
V1391611940884286_1391614827550664
p49
sa(dp50
g41
V2016-10-07T17:51:41+0000
p51
sg43
VLovely, I like Islamabad very much
p52
sg45
(dp53
g20
VKarim Yazdani
p54
sg18
V1516206751728441
p55
ssg18
V1391611940884286_1391617504217063
p56
sa(dp57
g41
V2016-10-08T23:41:16+0000
p58
sg43
V\u0627\u0646 \u062f\u0646\u0648\u06ba  \u0627\u0633\u0644\u0627\u0645 \u0622\u0628\u0627\u062f  \u06a9\u0627  \u0645\u0648\u0633\u0645  \u0628\u06c1\u062a  \u062e\u0648\u0634\u06af\u0648\u0627\u0631  \u06be\u06d2  \u062c\u0628\u06a9\u06c1  \u0644\u0627\u06be\u0648\u0631  \u0645\u06cc\u06ba  \u0627\u0628\u06be\u06cc  \u0628\u06be\u06cc  \u0627\u0686\u06be\u0627  \u062e\u0627\u0635\u06c1  \u062d\u0628\u0633  \u06be\u06d2 \u0640
p59
sg45
(dp60
g20
VShahzada Irfan Shuja
p61
sg18
V634871913340714
p62
ssg18
V1391611940884286_1392825157429631
p63
sa(dp64
g41
V2016-10-16T01:00:21+0000
p65
sg43
VThere when it was first built. The roads were so smooth, city so clean
p66
sg45
(dp67
g20
VJohn Robertson
p68
sg18
V1255386651180191
p69
ssg18
V1391611940884286_1400268713351942
p70
sa(dp71
g41
V2016-10-07T18:09:25+0000
p72
sg43
VBeautiful
p73
sg45
(dp74
g20
VSohaib Ahmad Imtiaz
p75
sg18
V1715342988723821
p76
ssg18
V1391611940884286_1391626130882867
p77
sa(dp78
g41
V2016-10-07T19:44:04+0000
p79
sg43
VGiuliana Marino...... Il Capitale..... Islamabad.......
p80
sg45
(dp81
g20
VAeron Nini
p82
sg18
V1396697053681425
p83
ssg18
V1391611940884286_1391703274208486
p84
sa(dp85
g41
V2016-10-07T17:50:59+0000
p86
sg43
VMy city \u2764\u2764\u2764
p87
sg45
(dp88
g20
VUzma Shahid
p89
sg18
V595105707281176
p90
ssg18
V1391611940884286_1391617174217096
p91
sa(dp92
g41
V2016-10-08T10:36:45+0000
p93
sg43
VBeautiful city \u2764\ufe0f
p94
sg45
(dp95
g20
VMansoor Ali
p96
sg18
V992201020911213
p97
ssg18
V1391611940884286_1392240574154756
p98
sa(dp99
g41
V2016-10-07T17:49:44+0000
p100
sg43
Vbeautiful
p101
sg45
(dp102
g20
VFarah Saleem
p103
sg18
V596469220525341
p104
ssg18
V1391611940884286_1391616440883836
p105
sa(dp106
g41
V2016-10-08T19:50:15+0000
p107
sg43
VLovely weather
p108
sg45
(dp109
g20
VZubi Javed
p110
sg18
V220089225078317
p111
ssg18
V1391611940884286_1392668297445317
p112
sa(dp113
g41
V2016-10-07T19:11:15+0000
p114
sg43
V\U0001f44d
p115
sg45
(dp116
g20
VHira Zaheer
p117
sg18
V333331287029058
p118
ssg18
V1391611940884286_1391677620877718
p119
sa(dp120
g41
V2016-10-07T17:45:02+0000
p121
sg43
VUsman Irfan Musty Al-Kattan these folks need to see glasgow
p122
sg45
(dp123
g20
VHamza Irfan
p124
sg18
V1195278520542106
p125
ssg18
V1391611940884286_1391612937550853
p126
sa(dp127
g41
V2016-10-07T19:14:00+0000
p128
sg43
VBaneen Ali Syed ur isloo
p129
sg45
(dp130
g20
VSarah Husain
p131
sg18
V10154316129813141
p132
ssg18
V1391611940884286_1391679290877551
p133
sa(dp134
g41
V2016-10-07T17:55:03+0000
p135
sg43
VAkram Sobhi
p136
sg45
(dp137
g20
VZaid Guevara Khan
p138
sg18
V10208930097627227
p139
ssg18
V1391611940884286_1391618980883582
p140
sa(dp141
g41
V2016-10-07T18:27:34+0000
p142
sg43
VCouldnt be  in love more with this city:-)
p143
sg45
(dp144
g20
VJehanzeb Sikandar
p145
sg18
V10154671572595747
p146
ssg18
V1391611940884286_1391640764214737
p147
sa(dp148
g41
V2016-10-07T20:26:34+0000
p149
sg43
VShabana Safi
p150
sg45
(dp151
g20
VZohaib Ali Siyal
p152
sg18
V1305721946137102
p153
ssg18
V1391611940884286_1391730587539088
p154
sa(dp155
g41
V2016-10-08T05:38:58+0000
p156
sg43
Vhttps://www.facebook.com/Thebeautyofpakistan-660653680768375/
p157
sg45
(dp158
g20
VSA Chaudhary
p159
sg18
V192671227848918
p160
ssg18
V1391611940884286_1392074654171348
p161
sassg41
V2016-10-07T17:43:29+0000
p162
sg43
VDifferent moods of capital (Islamabad the beautiful)
p163
sg16
Vphoto
p164
sg18
V118828831495943_1391611940884286
p165
s.