(dp0
Vreactions
p1
(dp2
Vpaging
p3
(dp4
Vcursors
p5
(dp6
Vafter
p7
VTVRBd01EQXhOak15TXpjeU5UTXlPakUwTnpjNE16a3pNVFk2TWpVME1EazJNVFl4TXc9PQZDZD
p8
sVbefore
p9
VTVRBd01EQXhOak15TXpjeU5UTXlPakUwTnpjNE16a3pNVFk2TWpVME1EazJNVFl4TXc9PQZDZD
p10
ssVnext
p11
Vhttps://graph.facebook.com/v2.6/118828831495943_1395537907158356/reactions?access_token=599965930180946%7C575aa5390a4589483de7f8cf99702788&summary=true&limit=1&after=TVRBd01EQXhOak15TXpjeU5UTXlPakUwTnpjNE16a3pNVFk2TWpVME1EazJNVFl4TXc9PQZDZD
p12
ssVdata
p13
(lp14
(dp15
Vtype
p16
VLIKE
p17
sVid
p18
V1101007459963656
p19
sVname
p20
VAtaullah Arain
p21
sasVsummary
p22
(dp23
Vtotal_count
p24
I1402
sVviewer_reaction
p25
VNONE
p26
sssg20
VTimeline Photos
p27
sVshares
p28
(dp29
Vcount
p30
I118
ssVlink
p31
Vhttps://www.facebook.com/ExplorePakistan/photos/a.118837968161696.8199.118828831495943/1395537907158356/?type=3
p32
sVcomments
p33
(dp34
g3
(dp35
g5
(dp36
g7
VMQZDZD
p37
sg9
VMTUZD
p38
sssg13
(lp39
(dp40
Vcreated_time
p41
V2016-10-12T01:54:07+0000
p42
sVmessage
p43
VWait to see these pictures from Pakistan by Eid Amon
p44
sVfrom
p45
(dp46
g20
VNalinda Tancharoen
p47
sg18
V1491275654235058
p48
ssg18
V1395537907158356_1395732053805608
p49
sa(dp50
g41
V2016-10-12T01:03:47+0000
p51
sg43
VColourful
p52
sg45
(dp53
g20
VRukhsana Khan
p54
sg18
V1747273428855478
p55
ssg18
V1395537907158356_1395668613811952
p56
sa(dp57
g41
V2016-10-27T13:46:26+0000
p58
sg43
VMasha Allah
p59
sg45
(dp60
g20
VSulman Latif
p61
sg18
V354674394924349
p62
ssg18
V1395537907158356_1412588932119920
p63
sa(dp64
g41
V2016-10-12T09:02:53+0000
p65
sg43
VAmazingly beautiful
p66
sg45
(dp67
g20
VHasaan Anna
p68
sg18
V10154659022278559
p69
ssg18
V1395537907158356_1395967983782015
p70
sa(dp71
g41
V2016-10-12T01:12:34+0000
p72
sg43
Vwow so beautiful
p73
sg45
(dp74
g20
VEid Amon
p75
sg18
V1808944726044035
p76
ssg18
V1395537907158356_1395678073811006
p77
sa(dp78
g41
V2016-10-12T01:47:57+0000
p79
sg43
VHeaven on earth
p80
sg45
(dp81
g20
VFaryal Yunus
p82
sg18
V1117645195018704
p83
ssg18
V1395537907158356_1395728613805952
p84
sa(dp85
g41
V2016-10-12T16:28:54+0000
p86
sg43
VVery soon inshallah
p87
sg45
(dp88
g20
VZaidi Faheem Syed
p89
sg18
V10154112258935735
p90
ssg18
V1395537907158356_1396305537081593
p91
sa(dp92
g41
V2016-10-12T00:44:39+0000
p93
sg43
VI miss.. \U0001f614
p94
sg45
(dp95
g20
VAtiya Jamal
p96
sg18
V947282825415653
p97
ssg18
V1395537907158356_1395657037146443
p98
sa(dp99
g41
V2016-10-11T22:15:40+0000
p100
sg43
VSubhan Allah
p101
sg45
(dp102
g20
VMuhammad Bilal Baaz
p103
sg18
V1341473679204204
p104
ssg18
V1395537907158356_1395582437153903
p105
sa(dp106
g41
V2016-10-11T21:04:00+0000
p107
sg43
VSabeel Shad Gujjar missing this place yar
p108
sg45
(dp109
g20
VMuhammad Usama Shams
p110
sg18
V891334850966960
p111
ssg18
V1395537907158356_1395541787157968
p112
sa(dp113
g41
V2016-10-12T01:01:20+0000
p114
sg43
VMehwar Ayaz Rao
p115
sg45
(dp116
g20
VAyaz Ahmad
p117
sg18
V1298536430198823
p118
ssg18
V1395537907158356_1395667710478709
p119
sa(dp120
g41
V2016-10-12T15:57:00+0000
p121
sg43
VAdnan Shah
p122
sg45
(dp123
g20
VAbrar Shah
p124
sg18
V651858571658146
p125
ssg18
V1395537907158356_1396283910417089
p126
sa(dp127
g41
V2016-10-12T05:25:39+0000
p128
sg43
VKhansa Robab
p129
sg45
(dp130
g20
VNayha Ali
p131
sg18
V10155435188494937
p132
ssg18
V1395537907158356_1395829450462535
p133
sa(dp134
g41
V2016-10-12T15:28:34+0000
p135
sg43
VSyed Faheem Zaidi
p136
sg45
(dp137
g20
VLaraib Tauqeer
p138
sg18
V922191774592013
p139
ssg18
V1395537907158356_1396259833752830
p140
sa(dp141
g41
V2016-10-12T02:30:15+0000
p142
sg43
VStuff  like this are why  everyone likes social media
p143
sg45
(dp144
g20
VLoveBeauty+
p145
sg18
V1756828221263469
p146
ssg18
V1395537907158356_1395748230470657
p147
sassg41
V2016-10-11T20:58:43+0000
p148
sg43
VFairy Meadows\u000aBase camp site of Nanga parbat\u000aDistt #Diamer... #Gilgit #Baltistan...\u000aPhoto: Israr Shah
p149
sg16
Vphoto
p150
sg18
V118828831495943_1395537907158356
p151
s.