(dp0
Vreactions
p1
(dp2
Vpaging
p3
(dp4
Vcursors
p5
(dp6
Vafter
p7
VTVRBd01EQTFNakE0TURNMk9UazJPakUwTnpjNE5UTTBOalE2TWpVME1EazJNVFl4TXc9PQZDZD
p8
sVbefore
p9
VTVRBd01EQTFNakE0TURNMk9UazJPakUwTnpjNE5UTTBOalE2TWpVME1EazJNVFl4TXc9PQZDZD
p10
ssVnext
p11
Vhttps://graph.facebook.com/v2.6/118828831495943_1405450576167089/reactions?access_token=599965930180946%7C575aa5390a4589483de7f8cf99702788&limit=1&after=TVRBd01EQTFNakE0TURNMk9UazJPakUwTnpjNE5UTTBOalE2TWpVME1EazJNVFl4TXc9PQZDZD
p12
ssVdata
p13
(lp14
(dp15
Vtype
p16
VLIKE
p17
sVid
p18
V561562887360641
p19
sVname
p20
VSalman Mubeen
p21
sassg20
VTimeline Photos
p22
sVshares
p23
(dp24
Vcount
p25
I243
ssVlink
p26
Vhttps://www.facebook.com/ExplorePakistan/photos/a.118837968161696.8199.118828831495943/1405450576167089/?type=3
p27
sVcomments
p28
(dp29
g3
(dp30
g5
(dp31
g7
VMQZDZD
p32
sg9
VMTMZD
p33
sssg13
(lp34
(dp35
Vcreated_time
p36
V2016-10-20T17:04:20+0000
p37
sVmessage
p38
VNo doubt.... Very difficult terrain to reach this place. But its Heaven on Earth...
p39
sVfrom
p40
(dp41
g20
VSajjad Hussain
p42
sg18
V1869079233326314
p43
ssg18
V1405450576167089_1405462182832595
p44
sa(dp45
g36
V2016-10-21T10:47:43+0000
p46
sg38
VTake me with you Zuhaib \u2764\ufe0f
p47
sg40
(dp48
g20
VSabah Mughal \u30c5
p49
sg18
V1573627579319279
p50
ssg18
V1405450576167089_1406192552759558
p51
sa(dp52
g36
V2016-10-20T17:06:02+0000
p53
sg38
VBeautiful in every sense.
p54
sg40
(dp55
g20
VMuhammad Touseef Ur Rehman
p56
sg18
V150670332042581
p57
ssg18
V1405450576167089_1405462879499192
p58
sa(dp59
g36
V2016-10-20T18:13:36+0000
p60
sg38
VWonderful
p61
sg40
(dp62
g20
VEdna Tamargo Piano
p63
sg18
V1698865810368035
p64
ssg18
V1405450576167089_1405506899494790
p65
sa(dp66
g36
V2016-10-20T20:13:12+0000
p67
sg38
VLovely
p68
sg40
(dp69
g20
VRukhsana Khan
p70
sg18
V1747273428855478
p71
ssg18
V1405450576167089_1405595659485914
p72
sa(dp73
g36
V2016-10-21T05:54:02+0000
p74
sg38
VWhere it is loacted in whichb city
p75
sg40
(dp76
g20
VSaba Ahsan
p77
sg18
V1149332605104195
p78
ssg18
V1405450576167089_1405985459446934
p79
sa(dp80
g36
V2016-10-21T05:51:55+0000
p81
sg38
VNo doubt it's beautiful,but too much Photoshop.
p82
sg40
(dp83
g20
VOmar Saleem
p84
sg18
V10153696286791324
p85
ssg18
V1405450576167089_1405984512780362
p86
sa(dp87
g36
V2016-10-25T10:53:29+0000
p88
sg38
VBeautiful
p89
sg40
(dp90
g20
VAnila Azhar
p91
sg18
V406700083052744
p92
ssg18
V1405450576167089_1410283999017080
p93
sa(dp94
g36
V2016-10-20T18:31:33+0000
p95
sg38
VWow
p96
sg40
(dp97
g20
VKhola Binte Asad
p98
sg18
V527876194049779
p99
ssg18
V1405450576167089_1405519306160216
p100
sa(dp101
g36
V2016-10-20T19:14:38+0000
p102
sg38
VMashaAllah, beautiful Pakistan
p103
sg40
(dp104
g20
VMemee Janjua
p105
sg18
V1682698945313547
p106
ssg18
V1405450576167089_1405550066157140
p107
sa(dp108
g36
V2016-10-21T05:23:09+0000
p109
sg38
VFahad Tariq
p110
sg40
(dp111
g20
VZahraa Aburowais
p112
sg18
V1216519971704129
p113
ssg18
V1405450576167089_1405971139448366
p114
sa(dp115
g36
V2016-10-20T19:24:22+0000
p116
sg38
VFahad Saleem
p117
sg40
(dp118
g20
VMahwish Fahad
p119
sg18
V10157678021490174
p120
ssg18
V1405450576167089_1405555002823313
p121
sa(dp122
g36
V2016-10-21T17:22:14+0000
p123
sg38
VWay to go vagabond!
p124
sg40
(dp125
g20
VSummera Shaheen Malik
p126
sg18
V1273020992731651
p127
ssg18
V1405450576167089_1406513096060837
p128
sassg36
V2016-10-20T17:02:38+0000
p129
sg38
VUltimate Beauty - Karambr Lake #Pakistan\u000a\u000aPicture : Photography by Vegabond
p130
sg16
Vphoto
p131
sg18
V118828831495943_1405450576167089
p132
s.