(dp0
Vreactions
p1
(dp2
Vpaging
p3
(dp4
Vcursors
p5
(dp6
Vafter
p7
VTVRBd01ERXdNRFUxTWpNMk9EWTJPakUwTnpjM01UTXhOelU2TWpVME1EazJNVFl4TXc9PQZDZD
p8
sVbefore
p9
VTVRBd01ERXdNRFUxTWpNMk9EWTJPakUwTnpjM01UTXhOelU2TWpVME1EazJNVFl4TXc9PQZDZD
p10
ssVnext
p11
Vhttps://graph.facebook.com/v2.6/118828831495943_1389839434394870/reactions?access_token=599965930180946%7C575aa5390a4589483de7f8cf99702788&summary=true&limit=1&after=TVRBd01ERXdNRFUxTWpNMk9EWTJPakUwTnpjM01UTXhOelU2TWpVME1EazJNVFl4TXc9PQZDZD
p12
ssVdata
p13
(lp14
(dp15
Vtype
p16
VLIKE
p17
sVid
p18
V364818280530010
p19
sVname
p20
VFida Hussain
p21
sasVsummary
p22
(dp23
Vtotal_count
p24
I2099
sVviewer_reaction
p25
VNONE
p26
sssg20
VTimeline Photos
p27
sVshares
p28
(dp29
Vcount
p30
I213
ssVlink
p31
Vhttps://www.facebook.com/ExplorePakistan/photos/a.118837968161696.8199.118828831495943/1389839434394870/?type=3
p32
sVcomments
p33
(dp34
g3
(dp35
g5
(dp36
g7
VMQZDZD
p37
sg9
VMTcZD
p38
sssg13
(lp39
(dp40
Vcreated_time
p41
V2016-10-05T17:39:45+0000
p42
sVmessage
p43
VLove u Kalam, Uthrot and Gabral
p44
sVfrom
p45
(dp46
g20
VSheri Gul
p47
sg18
V1829352193969158
p48
ssg18
V1389839434394870_1389918461053634
p49
sa(dp50
g41
V2016-10-06T18:37:47+0000
p51
sg43
V
p52
sg45
(dp53
g20
VTehreem Khan
p54
sg18
V1696832037239607
p55
ssg18
V1389839434394870_1390875724291241
p56
sa(dp57
g41
V2016-10-05T17:39:30+0000
p58
sg43
g52
sg45
(dp59
g20
VEdna Tamargo Piano
p60
sg18
V1698865810368035
p61
ssg18
V1389839434394870_1389918264386987
p62
sa(dp63
g41
V2016-10-06T13:29:58+0000
p64
sg43
g52
sg45
(dp65
g20
VUsman Ali
p66
sg18
V1242283915802957
p67
ssg18
V1389839434394870_1390637694315044
p68
sa(dp69
g41
V2016-10-06T17:03:38+0000
p70
sg43
VPleasant  place Mashaallah
p71
sg45
(dp72
g20
VNazar Khan
p73
sg18
V820569474749771
p74
ssg18
V1389839434394870_1390806964298117
p75
sa(dp76
g41
V2016-10-06T11:29:31+0000
p77
sg43
VWay to heaven..<3
p78
sg45
(dp79
g20
VDania Jawwad
p80
sg18
V291478504542160
p81
ssg18
V1389839434394870_1390544534324360
p82
sa(dp83
g41
V2016-10-06T04:30:51+0000
p84
sg43
VWorst route ever
p85
sg45
(dp86
g20
VMudassar Raza
p87
sg18
V10155340997913362
p88
ssg18
V1389839434394870_1390310231014457
p89
sa(dp90
g41
V2016-10-05T17:44:09+0000
p91
sg43
VGood Morning Kalam
p92
sg45
(dp93
g20
VSheri Gul
p94
sg18
V1829352193969158
p95
ssg18
V1389839434394870_1389920521053428
p96
sa(dp97
g41
V2016-10-06T02:11:17+0000
p98
sg43
VYE MERE PAKISTAN YE TERA PAKISTAN HA IS PE DIL QURBAN IS PE JAAN BHI QURBAN HAI.
p99
sg45
(dp100
g20
VAnjum Canada
p101
sg18
V1206013769437087
p102
ssg18
V1389839434394870_1390235851021895
p103
sa(dp104
g41
V2016-10-05T20:45:14+0000
p105
sg43
VWah masha Allah
p106
sg45
(dp107
g20
VFaizan Ali Khan
p108
sg18
V1141642572617351
p109
ssg18
V1389839434394870_1390047164374097
p110
sa(dp111
g41
V2016-10-05T16:35:03+0000
p112
sg43
VWow
p113
sg45
(dp114
g20
VLisa A. Shanklin
p115
sg18
V10154481293492419
p116
ssg18
V1389839434394870_1389865131058967
p117
sa(dp118
g41
V2016-10-06T04:36:23+0000
p119
sg43
VThe road is not repaired as yet???
p120
sg45
(dp121
g20
VShahid Hussain
p122
sg18
V1778922825696740
p123
ssg18
V1389839434394870_1390312967680850
p124
sa(dp125
g41
V2016-10-05T17:13:26+0000
p126
sg43
V<3 Saim Remember ???
p127
sg45
(dp128
g20
VBilal Haider Malik
p129
sg18
V1272665209466627
p130
ssg18
V1389839434394870_1389898007722346
p131
sa(dp132
g41
V2016-10-05T16:37:13+0000
p133
sg43
VIt's time to visit kalam  because water color become blue and green in this season... my favourite  season for swat valley
p134
sg45
(dp135
g20
VMuhammad Ayub Noor MoHmand
p136
sg18
V1032221340203262
p137
ssg18
V1389839434394870_1389867311058749
p138
sa(dp139
g41
V2016-10-06T08:26:24+0000
p140
sg43
VWow!
p141
sg45
(dp142
g20
VLinda Gee
p143
sg18
V10157754584110602
p144
ssg18
V1389839434394870_1390447547667392
p145
sa(dp146
g41
V2016-10-05T16:17:07+0000
p147
sg43
Vlove pakistan
p148
sg45
(dp149
g20
VSanam Zeb
p150
sg18
V328804570830393
p151
ssg18
V1389839434394870_1389849097727237
p152
sa(dp153
g41
V2016-10-05T19:03:21+0000
p154
sg43
VPlease Check Waqas Butt Mohammad Umar Butt Usman Ali Sallu Butt Aftab Butt Adal Nawaz Hafiz Afzal
p155
sg45
(dp156
g20
VMubashar Butt
p157
sg18
V636926726487659
p158
ssg18
V1389839434394870_1389979221047558
p159
sassg41
V2016-10-05T16:10:04+0000
p160
sg43
VOn the way to Kalam....\u000a#Swat valley.... KPK #Pakistan
p161
sg16
Vphoto
p162
sg18
V118828831495943_1389839434394870
p163
s.