(dp0
Vreactions
p1
(dp2
Vpaging
p3
(dp4
Vcursors
p5
(dp6
Vafter
p7
VTVRBd01ERXdNRFUxTWpNMk9EWTJPakUwTnpjM01UTXhPRGs2TWpVME1EazJNVFl4TXc9PQZDZD
p8
sVbefore
p9
VTVRBd01ERXdNRFUxTWpNMk9EWTJPakUwTnpjM01UTXhPRGs2TWpVME1EazJNVFl4TXc9PQZDZD
p10
ssVnext
p11
Vhttps://graph.facebook.com/v2.6/118828831495943_1387702411275239/reactions?access_token=599965930180946%7C575aa5390a4589483de7f8cf99702788&summary=true&limit=1&after=TVRBd01ERXdNRFUxTWpNMk9EWTJPakUwTnpjM01UTXhPRGs2TWpVME1EazJNVFl4TXc9PQZDZD
p12
ssVdata
p13
(lp14
(dp15
Vtype
p16
VLIKE
p17
sVid
p18
V364818280530010
p19
sVname
p20
VFida Hussain
p21
sasVsummary
p22
(dp23
Vtotal_count
p24
I613
sVviewer_reaction
p25
VNONE
p26
sssg20
VTimeline Photos
p27
sVshares
p28
(dp29
Vcount
p30
I34
ssVlink
p31
Vhttps://www.facebook.com/ExplorePakistan/photos/a.118837968161696.8199.118828831495943/1387702411275239/?type=3
p32
sVcomments
p33
(dp34
g3
(dp35
g5
(dp36
g7
VMQZDZD
p37
sg9
VOAZDZD
p38
sssg13
(lp39
(dp40
Vcreated_time
p41
V2016-10-03T20:34:48+0000
p42
sVmessage
p43
VRenovation of GPO Bldg at Murree, reminiscent of British timed, is a great effort on part of PM NS; w'ch has added to the beauty of this Hill station and for tourism industry!!
p44
sVfrom
p45
(dp46
g20
VAamir Ali
p47
sg18
V354168508257732
p48
ssg18
V1387702411275239_1388112964567517
p49
sa(dp50
g41
V2016-10-03T12:21:39+0000
p51
sg43
VMurree, My dream city.
p52
sg45
(dp53
g20
VShahid Hussain
p54
sg18
V1778922825696740
p55
ssg18
V1387702411275239_1387733411272139
p56
sa(dp57
g41
V2016-10-04T05:25:01+0000
p58
sg43
VMurree is my favourite city
p59
sg45
(dp60
g20
VFazeelat Choudhry
p61
sg18
V194890954290563
p62
ssg18
V1387702411275239_1388409141204566
p63
sa(dp64
g41
V2016-10-04T15:23:31+0000
p65
sg43
VThe most famous place and meeting of northern Pakistan
p66
sg45
(dp67
g20
VAli Shiekh
p68
sg18
V10153820876446401
p69
ssg18
V1387702411275239_1388750957837051
p70
sa(dp71
g41
V2016-10-09T17:50:14+0000
p72
sg43
Vtwo week later im there but muree very expansive
p73
sg45
(dp74
g20
VNoman Poonawala
p75
sg18
V10209844543926879
p76
ssg18
V1387702411275239_1393522574026556
p77
sa(dp78
g41
V2016-10-16T01:01:36+0000
p79
sg43
VWow! This wasn't there when I went there
p80
sg45
(dp81
g20
VJohn Robertson
p82
sg18
V1255386651180191
p83
ssg18
V1387702411275239_1400269536685193
p84
sa(dp85
g41
V2016-10-03T12:57:01+0000
p86
sg43
Vmousam kysa hai....
p87
sg45
(dp88
g20
VMuhammad A Wanse
p89
sg18
V10207730406044994
p90
ssg18
V1387702411275239_1387754944603319
p91
sa(dp92
g41
V2016-10-03T20:59:47+0000
p93
sg43
VZandro Malto
p94
sg45
(dp95
g20
VSikandar Nawaz
p96
sg18
V1832158560331765
p97
ssg18
V1387702411275239_1388129337899213
p98
sassg41
V2016-10-03T11:35:02+0000
p99
sg43
VRight now\u000a#Murree... #Punjab... #Pakistan\u000a\u000aPic:Admin
p100
sg16
Vphoto
p101
sg18
V118828831495943_1387702411275239
p102
s.