(dp0
Vreactions
p1
(dp2
Vpaging
p3
(dp4
Vcursors
p5
(dp6
Vafter
p7
VTVRBd01EQTJNemMyTWpRME1ETTNPakUwTnpjNE1qWXlNekk2TWpVME1EazJNVFl4TXc9PQZDZD
p8
sVbefore
p9
VTVRBd01EQTJNemMyTWpRME1ETTNPakUwTnpjNE1qWXlNekk2TWpVME1EazJNVFl4TXc9PQZDZD
p10
ssVnext
p11
Vhttps://graph.facebook.com/v2.6/118828831495943_1412777038767776/reactions?access_token=599965930180946%7C575aa5390a4589483de7f8cf99702788&limit=1&after=TVRBd01EQTJNemMyTWpRME1ETTNPakUwTnpjNE1qWXlNekk2TWpVME1EazJNVFl4TXc9PQZDZD
p12
ssVdata
p13
(lp14
(dp15
Vtype
p16
VLIKE
p17
sVid
p18
V1702921806597011
p19
sVname
p20
VMuhammad Amar
p21
sassg20
VTimeline Photos
p22
sVshares
p23
(dp24
Vcount
p25
I198
ssVlink
p26
Vhttps://www.facebook.com/ExplorePakistan/photos/a.118837968161696.8199.118828831495943/1412777038767776/?type=3
p27
sVcomments
p28
(dp29
g3
(dp30
g5
(dp31
g7
VMQZDZD
p32
sg9
VMTEZD
p33
sssg13
(lp34
(dp35
Vcreated_time
p36
V2016-10-28T10:44:34+0000
p37
sVmessage
p38
VSiapa Aja sih Yang Sering Kepoin Facebook Kamu, Mau tau siapa aja yg kepoin facebook kamu Buka www .kepoinkamu. com
p39
sVfrom
p40
(dp41
g20
VSelvia Nurvitasari
p42
sg18
V1206604862711678
p43
ssg18
V1412777038767776_1413616422017171
p44
sa(dp45
g36
V2016-10-27T19:40:06+0000
p46
sg38
VDreamPeak
p47
sg40
(dp48
g20
VAli Alvi
p49
sg18
V10211256509276755
p50
ssg18
V1412777038767776_1412908102088003
p51
sa(dp52
g36
V2016-10-28T02:18:24+0000
p53
sg38
VMajestic. \U0001f60d
p54
sg40
(dp55
g20
VRabia Wajid Ali
p56
sg18
V1233957873344304
p57
ssg18
V1412777038767776_1413208625391284
p58
sa(dp59
g36
V2016-10-27T18:22:04+0000
p60
sg38
VLagta hai goya malmal ki chadar orh rakhi hai is parbat nay :-)
p61
sg40
(dp62
g20
VSummera Shaheen Malik
p63
sg18
V1273020992731651
p64
ssg18
V1412777038767776_1412857955426351
p65
sa(dp66
g36
V2016-10-27T20:45:56+0000
p67
sg38
VSO FANTASTIC, MA SHAA ALLAH!!
p68
sg40
(dp69
g20
VQuaideazam Iqbal
p70
sg18
V1779926222266063
p71
ssg18
V1412777038767776_1412960738749406
p72
sa(dp73
g36
V2016-10-28T10:15:53+0000
p74
sg38
VOhhh this is so beautiful
p75
sg40
(dp76
g20
VZoha Zameer
p77
sg18
V1022467867841709
p78
ssg18
V1412777038767776_1413588445353302
p79
sa(dp80
g36
V2016-10-28T10:38:25+0000
p81
sg38
VBeautiful
p82
sg40
(dp83
g20
VKhola Binte Asad
p84
sg18
V527876194049779
p85
ssg18
V1412777038767776_1413612885350858
p86
sa(dp87
g36
V2016-10-28T09:35:45+0000
p88
sg38
VBeautiful
p89
sg40
(dp90
g20
VManzar Sarfraz
p91
sg18
V10209510170254090
p92
ssg18
V1412777038767776_1413550535357093
p93
sa(dp94
g36
V2016-10-28T05:21:16+0000
p95
sg38
VLaila peak
p96
sg40
(dp97
g20
VAhsan Nazir
p98
sg18
V683091198507392
p99
ssg18
V1412777038767776_1413318282046985
p100
sa(dp101
g36
V2016-10-27T22:46:13+0000
p102
sg38
VBeautiful
p103
sg40
(dp104
g20
VSaood Ahmad
p105
sg18
V1710316445956930
p106
ssg18
V1412777038767776_1413049748740505
p107
sa(dp108
g36
V2016-10-28T04:47:59+0000
p109
sg38
V
p110
sg40
(dp111
g20
VArif Hussain
p112
sg18
V655740357928512
p113
ssg18
V1412777038767776_1413295962049217
p114
sassg36
V2016-10-27T17:21:50+0000
p115
sg38
V#Pakistan is beautiful, Lets make it a Peaceful too\u000aThis is #Masherbrum
p116
sg16
Vphoto
p117
sg18
V118828831495943_1412777038767776
p118
s.