(dp0
Vreactions
p1
(dp2
Vpaging
p3
(dp4
Vcursors
p5
(dp6
Vafter
p7
VTVRBd01EQXdNVFV6TmpnM05qTTVPakUwTnpjM016STNNVFU2TWpVME1EazJNVFl4TXc9PQZDZD
p8
sVbefore
p9
VTVRBd01EQXdNVFV6TmpnM05qTTVPakUwTnpjM016STNNVFU2TWpVME1EazJNVFl4TXc9PQZDZD
p10
ssVnext
p11
Vhttps://graph.facebook.com/v2.6/118828831495943_1404179086294238/reactions?access_token=599965930180946%7C575aa5390a4589483de7f8cf99702788&limit=1&after=TVRBd01EQXdNVFV6TmpnM05qTTVPakUwTnpjM016STNNVFU2TWpVME1EazJNVFl4TXc9PQZDZD
p12
ssVdata
p13
(lp14
(dp15
Vtype
p16
VLIKE
p17
sVid
p18
V1550603961621378
p19
sVname
p20
VM Siraj Ulfat
p21
sassg20
VTimeline Photos
p22
sVshares
p23
(dp24
Vcount
p25
I56
ssVlink
p26
Vhttps://www.facebook.com/ExplorePakistan/photos/a.118837968161696.8199.118828831495943/1404179086294238/?type=3
p27
sVcomments
p28
(dp29
g3
(dp30
g5
(dp31
g7
VMQZDZD
p32
sg9
VOAZDZD
p33
sssg13
(lp34
(dp35
Vcreated_time
p36
V2016-10-19T09:46:03+0000
p37
sVmessage
p38
Vlovly
p39
sVfrom
p40
(dp41
g20
VOmran Zaman
p42
sg18
V915463121931349
p43
ssg18
V1404179086294238_1404185879626892
p44
sa(dp45
g36
V2016-10-19T11:24:33+0000
p46
sg38
Vis this naltar lake??
p47
sg40
(dp48
g20
VHaseeb Khumair
p49
sg18
V10209463647221640
p50
ssg18
V1404179086294238_1404247412954072
p51
sa(dp52
g36
V2016-10-19T10:39:02+0000
p53
sg38
V
p54
sg40
(dp55
g20
VHammad Shakil
p56
sg18
V10205655861795500
p57
ssg18
V1404179086294238_1404217822957031
p58
sa(dp59
g36
V2016-10-19T09:47:02+0000
p60
sg38
VMuneeba Habib idr chly gy after proff\U0001f61b
p61
sg40
(dp62
g20
VRahma Nadeem Malik
p63
sg18
V1785448511703415
p64
ssg18
V1404179086294238_1404186476293499
p65
sa(dp66
g36
V2016-10-19T11:06:08+0000
p67
sg38
VWoow
p68
sg40
(dp69
g20
VLisa Jadulos
p70
sg18
V1057061897699649
p71
ssg18
V1404179086294238_1404233596288787
p72
sa(dp73
g36
V2016-10-19T14:30:12+0000
p74
sg38
VMore stuff on yoga ok? like = agree
p75
sg40
(dp76
g20
VHealthy Life Funny Pics
p77
sg18
V566910576792734
p78
ssg18
V1404179086294238_1404386169606863
p79
sa(dp80
g36
V2016-10-19T12:53:43+0000
p81
sg38
VSharjeel Shirgeel Butt
p82
sg40
(dp83
g20
VMuhammad Ali
p84
sg18
V10155484189074478
p85
ssg18
V1404179086294238_1404304062948407
p86
sa(dp87
g36
V2016-10-19T11:23:47+0000
p88
sg38
VAdeel Ghaffar
p89
sg40
(dp90
g20
VHaseeb Khumair
p91
sg18
V10209463647221640
p92
ssg18
V1404179086294238_1404247126287434
p93
sassg36
V2016-10-19T09:32:00+0000
p94
sg38
VThe blue lake in #Naltar #Gilgit #Pakistan...\u000aNaltar is about 30kms from Gilgit City.\u000a\u000aPhoto: Talha Umair
p95
sg16
Vphoto
p96
sg18
V118828831495943_1404179086294238
p97
s.