(dp0
Vreactions
p1
(dp2
Vpaging
p3
(dp4
Vcursors
p5
(dp6
Vafter
p7
VTVRBd01ERXdNRFUxTWpNMk9EWTJPakUwTnpjM01UTXhNalE2TWpVME1EazJNVFl4TXc9PQZDZD
p8
sVbefore
p9
VTVRBd01ERXdNRFUxTWpNMk9EWTJPakUwTnpjM01UTXhNalE2TWpVME1EazJNVFl4TXc9PQZDZD
p10
ssVnext
p11
Vhttps://graph.facebook.com/v2.6/118828831495943_1393556317356515/reactions?access_token=599965930180946%7C575aa5390a4589483de7f8cf99702788&summary=true&limit=1&after=TVRBd01ERXdNRFUxTWpNMk9EWTJPakUwTnpjM01UTXhNalE2TWpVME1EazJNVFl4TXc9PQZDZD
p12
ssVdata
p13
(lp14
(dp15
Vtype
p16
VLIKE
p17
sVid
p18
V364818280530010
p19
sVname
p20
VFida Hussain
p21
sasVsummary
p22
(dp23
Vtotal_count
p24
I2213
sVviewer_reaction
p25
VNONE
p26
sssg20
VTimeline Photos
p27
sVshares
p28
(dp29
Vcount
p30
I275
ssVlink
p31
Vhttps://www.facebook.com/ExplorePakistan/photos/a.118837968161696.8199.118828831495943/1393556317356515/?type=3
p32
sVcomments
p33
(dp34
g3
(dp35
g5
(dp36
g7
VNgZDZD
p37
sg9
VMjUZD
p38
ssg11
Vhttps://graph.facebook.com/v2.6/118828831495943_1393556317356515/comments?access_token=599965930180946%7C575aa5390a4589483de7f8cf99702788&limit=20&after=NgZDZD
p39
ssg13
(lp40
(dp41
Vcreated_time
p42
V2016-10-10T12:43:16+0000
p43
sVmessage
p44
VNaveed Ahmed Jawaid where is this located ? had we visited this as well ? Bara Pani ???
p45
sVfrom
p46
(dp47
g20
VTariq Ali
p48
sg18
V10210708584341062
p49
ssg18
V1393556317356515_1394269990618481
p50
sa(dp51
g42
V2016-10-10T05:39:03+0000
p52
sg44
VOmer Rehman Ustaad next summer idhar camping honi chahiyay \U0001f603
p53
sg46
(dp54
g20
VUsama Chughtai
p55
sg18
V10154611112532154
p56
ssg18
V1393556317356515_1393986650646815
p57
sa(dp58
g42
V2016-10-09T20:44:33+0000
p59
sg44
VWaoooooo\U0001f44c
p60
sg46
(dp61
g20
VM Amir M Amir
p62
sg18
V187476065040547
p63
ssg18
V1393556317356515_1393657274013086
p64
sa(dp65
g42
V2016-10-09T19:20:26+0000
p66
sg44
VYa
p67
sg46
(dp68
g20
VAK Khan
p69
sg18
V1646137995635766
p70
ssg18
V1393556317356515_1393583800687100
p71
sa(dp72
g42
V2016-10-09T19:03:21+0000
p73
sg44
VTash ghroona or uba di \U0001f602 Ammar Shafiq
p74
sg46
(dp75
g20
VSheikh Saleh
p76
sg18
V10207223837889392
p77
ssg18
V1393556317356515_1393573434021470
p78
sa(dp79
g42
V2016-10-10T10:18:26+0000
p80
sg44
VAy
p81
sg46
(dp82
g20
VRabiha Khurram
p83
sg18
V316206235409245
p84
ssg18
V1393556317356515_1394192540626226
p85
sa(dp86
g42
V2016-10-10T21:12:50+0000
p87
sg44
VWhat a place B-) subhan Allah
p88
sg46
(dp89
g20
VWahaj Captain Captain
p90
sg18
V996500837143310
p91
ssg18
V1393556317356515_1394646383914175
p92
sa(dp93
g42
V2016-10-09T23:53:19+0000
p94
sg44
VNice
p95
sg46
(dp96
g20
VAsif Rana
p97
sg18
V224858601267505
p98
ssg18
V1393556317356515_1393776127334534
p99
sa(dp100
g42
V2016-10-09T20:39:31+0000
p101
sg44
VAqsa Chaudhary Hamza Rafique dosaei
p102
sg46
(dp103
g20
VHifsa Rafiq
p104
sg18
V10154643573259770
p105
ssg18
V1393556317356515_1393652744013539
p106
sa(dp107
g42
V2016-10-10T05:14:56+0000
p108
sg44
VKhansa Robab u and me in 2018
p109
sg46
(dp110
g20
VNayha Ali
p111
sg18
V10155435188494937
p112
ssg18
V1393556317356515_1393977003981113
p113
sa(dp114
g42
V2016-10-10T03:35:07+0000
p115
sg44
VFaizan Ahmed chalyen phir :D
p116
sg46
(dp117
g20
VZeshan Shabbir
p118
sg18
V10154519356220169
p119
ssg18
V1393556317356515_1393912320654248
p120
sa(dp121
g42
V2016-10-10T06:45:12+0000
p122
sg44
VAshish Bhardwaj
p123
sg46
(dp124
g20
VJaswant Singh
p125
sg18
V10207465425410105
p126
ssg18
V1393556317356515_1394045600640920
p127
sa(dp128
g42
V2016-10-09T19:34:16+0000
p129
sg44
VMujahid Syed Asif Hassan Saad <3 <3 <3
p130
sg46
(dp131
g20
VUsman Arif
p132
sg18
V1972294409664124
p133
ssg18
V1393556317356515_1393596554019158
p134
sa(dp135
g42
V2016-10-09T20:39:42+0000
p136
sg44
VAqeel Hafeez
p137
sg46
(dp138
g20
VHifsa Rafiq
p139
sg18
V10154643573259770
p140
ssg18
V1393556317356515_1393652880680192
p141
sa(dp142
g42
V2016-10-09T19:27:56+0000
p143
sg44
VAiman Razi
p144
sg46
(dp145
g20
VSadaf Khan
p146
sg18
V1838206869800281
p147
ssg18
V1393556317356515_1393588107353336
p148
sa(dp149
g42
V2016-10-09T20:31:26+0000
p150
sg44
VFahad Saleem sir...
p151
sg46
(dp152
g20
V\u0639\u062b\u0645\u0627\u0646 \u0686\u0648\u06c1\u062f\u0631\u06cc
p153
sg18
V10157424653910538
p154
ssg18
V1393556317356515_1393648160680664
p155
sa(dp156
g42
V2016-10-09T18:52:25+0000
p157
sg44
VAkram Sobhi
p158
sg46
(dp159
g20
VZaid Guevara Khan
p160
sg18
V10208930097627227
p161
ssg18
V1393556317356515_1393566424022171
p162
sa(dp163
g42
V2016-10-09T21:55:33+0000
p164
sg44
VZeshan Shabbir
p165
sg46
(dp166
g20
VFaizan Ahmed
p167
sg18
V1392934087391499
p168
ssg18
V1393556317356515_1393698020675678
p169
sa(dp170
g42
V2016-10-09T19:54:04+0000
p171
sg44
VAyesha Saleem Hassan Maqsood
p172
sg46
(dp173
g20
VRuby Iskandari
p174
sg18
V10157945400210227
p175
ssg18
V1393556317356515_1393619324016881
p176
sa(dp177
g42
V2016-10-10T20:16:36+0000
p178
sg44
VAiza Amer
p179
sg46
(dp180
g20
VFatima Naeem
p181
sg18
V10155211381517788
p182
ssg18
V1393556317356515_1394612913917522
p183
sassg42
V2016-10-09T18:36:32+0000
p184
sg44
VBara Pani... #Deosai..... #Skardu \u000a#Gilgit #Baltistan #Pakistan\u000a\u000aPhoto: ALI AWAIS
p185
sg16
Vphoto
p186
sg18
V118828831495943_1393556317356515
p187
s.