(dp0
Vreactions
p1
(dp2
Vpaging
p3
(dp4
Vcursors
p5
(dp6
Vafter
p7
VTVRBd01EQTVNREExT1RBNE5EVXhPakUwTnpjNE1qSTVNVFk2TWpVME1EazJNVFl4TXc9PQZDZD
p8
sVbefore
p9
VTVRBd01EQTVNREExT1RBNE5EVXhPakUwTnpjNE1qSTVNVFk2TWpVME1EazJNVFl4TXc9PQZDZD
p10
ssVnext
p11
Vhttps://graph.facebook.com/v2.6/118828831495943_1413260802052733/reactions?access_token=599965930180946%7C575aa5390a4589483de7f8cf99702788&limit=1&after=TVRBd01EQTVNREExT1RBNE5EVXhPakUwTnpjNE1qSTVNVFk2TWpVME1EazJNVFl4TXc9PQZDZD
p12
ssVdata
p13
(lp14
(dp15
Vtype
p16
VLIKE
p17
sVid
p18
V1670278143282366
p19
sVname
p20
VShair Khan
p21
sassg20
VExplore the Beauty of Pakistan
p22
sVlink
p23
Vhttps://www.facebook.com/ExplorePakistan/photos/a.367850203260470.93432.118828831495943/1412812575430889/?type=3
p24
sVcreated_time
p25
V2016-10-28T03:35:24+0000
p26
sg16
Vphoto
p27
sg18
V118828831495943_1413260802052733
p28
s.