(dp0
Vreactions
p1
(dp2
Vpaging
p3
(dp4
Vcursors
p5
(dp6
Vafter
p7
VTVRBd01EQXdPRGd3TmpNMk16QTBPakUwTnpjM05UQTFNamM2TWpVME1EazJNVFl4TXc9PQZDZD
p8
sVbefore
p9
VTVRBd01EQXdPRGd3TmpNMk16QTBPakUwTnpjM05UQTFNamM2TWpVME1EazJNVFl4TXc9PQZDZD
p10
ssVnext
p11
Vhttps://graph.facebook.com/v2.6/118828831495943_1401837583195055/reactions?access_token=599965930180946%7C575aa5390a4589483de7f8cf99702788&limit=1&after=TVRBd01EQXdPRGd3TmpNMk16QTBPakUwTnpjM05UQTFNamM2TWpVME1EazJNVFl4TXc9PQZDZD
p12
ssVdata
p13
(lp14
(dp15
Vtype
p16
VLIKE
p17
sVid
p18
V1178007185571958
p19
sVname
p20
VNajia Ehsan
p21
sassg20
VTimeline Photos
p22
sVshares
p23
(dp24
Vcount
p25
I359
ssVlink
p26
Vhttps://www.facebook.com/ExplorePakistan/photos/a.118837968161696.8199.118828831495943/1401837583195055/?type=3
p27
sVcomments
p28
(dp29
g3
(dp30
g5
(dp31
g7
VMTcZD
p32
sg9
VMzYZD
p33
ssg11
Vhttps://graph.facebook.com/v2.6/118828831495943_1401837583195055/comments?access_token=599965930180946%7C575aa5390a4589483de7f8cf99702788&limit=20&after=MTcZD
p34
ssg13
(lp35
(dp36
Vcreated_time
p37
V2016-10-17T16:13:01+0000
p38
sVmessage
p39
VMuhammad Arshad Gill it is beautiful na just like Attabad ? \U0001f60d
p40
sVfrom
p41
(dp42
g20
VIQra Waheed
p43
sg18
V1776063479315184
p44
ssg18
V1401837583195055_1401991649846315
p45
sa(dp46
g37
V2016-10-17T18:54:24+0000
p47
sg39
VUfff I so wanna go to this place ,very beautiful indeed!
p48
sg41
(dp49
g20
VSyeda Zehra
p50
sg18
V1004745639647292
p51
ssg18
V1401837583195055_1402118303166983
p52
sa(dp53
g37
V2016-10-17T14:09:37+0000
p54
sg39
VSo beautiful..\U0001f60d
p55
sg41
(dp56
g20
VEdna Tamargo Piano
p57
sg18
V1698865810368035
p58
ssg18
V1401837583195055_1401861919859288
p59
sa(dp60
g37
V2016-10-17T15:09:42+0000
p61
sg39
VFaboules
p62
sg41
(dp63
g20
VAamir Khan
p64
sg18
V1124536194281893
p65
ssg18
V1401837583195055_1401920989853381
p66
sa(dp67
g37
V2016-10-17T14:09:33+0000
p68
sg39
V\u0645\u0627 \u0634\u0627 \u0627\u0644\u0644\u0647
p69
sg41
(dp70
g20
VEdna Tamargo Piano
p71
sg18
V1698865810368035
p72
ssg18
V1401837583195055_1401861886525958
p73
sa(dp74
g37
V2016-10-18T07:29:51+0000
p75
sg39
V
p76
sg41
(dp77
g20
VMuhammad Adeel
p78
sg18
V1126326634070135
p79
ssg18
V1401837583195055_1402826433096170
p80
sa(dp81
g37
V2016-10-17T14:06:52+0000
p82
sg39
VSubhan Allah
p83
sg41
(dp84
g20
VHasaan Anna
p85
sg18
V10154659022278559
p86
ssg18
V1401837583195055_1401859256526221
p87
sa(dp88
g37
V2016-10-17T19:23:08+0000
p89
sg39
VWow \U0001f60d hamare time pe tou aisi nii thi :/ tabahiii (Y)
p90
sg41
(dp91
g20
VIbad Shah
p92
sg18
V1125830727493815
p93
ssg18
V1401837583195055_1402137436498403
p94
sa(dp95
g37
V2016-10-18T01:56:51+0000
p96
sg39
VWow. Looks like a painting.
p97
sg41
(dp98
g20
VSamira Ashraf
p99
sg18
V10154287267447885
p100
ssg18
V1401837583195055_1402430063135807
p101
sa(dp102
g37
V2016-10-17T17:03:37+0000
p103
sg39
VWow. Beauty SubhanAllah
p104
sg41
(dp105
g20
VSarah Husain
p106
sg18
V10154316129813141
p107
ssg18
V1401837583195055_1402033263175487
p108
sa(dp109
g37
V2016-10-17T14:08:48+0000
p110
sg39
VBeauty \U0001f44d
p111
sg41
(dp112
g20
VFaryal Yunus
p113
sg18
V1117645195018704
p114
ssg18
V1401837583195055_1401861463192667
p115
sa(dp116
g37
V2016-10-17T14:18:25+0000
p117
sg39
VIftikhar Ali ye dekhi hui tune??
p118
sg41
(dp119
g20
VMohammad Aaqib Sarfraz
p120
sg18
V1522540147762243
p121
ssg18
V1401837583195055_1401874206524726
p122
sa(dp123
g37
V2016-10-17T14:56:47+0000
p124
sg39
VGilgit baldistan main hai?
p125
sg41
(dp126
g20
VMaha Maha
p127
sg18
V1822462924632955
p128
ssg18
V1401837583195055_1401908149854665
p129
sa(dp130
g37
V2016-10-19T09:54:38+0000
p131
sg39
VBeautiful
p132
sg41
(dp133
g20
VSinmran Grewal
p134
sg18
V604246453113705
p135
ssg18
V1401837583195055_1404191166293030
p136
sa(dp137
g37
V2016-10-18T19:26:18+0000
p138
sg39
VHeaven
p139
sg41
(dp140
g20
VMuhammad Usman Sattar
p141
sg18
V10206846163462153
p142
ssg18
V1401837583195055_1403613376350809
p143
sa(dp144
g37
V2016-10-17T18:51:31+0000
p145
sg39
V\u06a9\u06cc\u0627 \u0634\u0627\u0646 \u06c1\u06d2 \u0645\u06cc\u0631\u06d2 \u0631\u0628 \u06a9\u06cc
p146
sg41
(dp147
g20
VN Farrukh Sheikh
p148
sg18
V282262642174425
p149
ssg18
V1401837583195055_1402115039833976
p150
sa(dp151
g37
V2016-10-17T18:16:11+0000
p152
sg39
VMarvellous
p153
sg41
(dp154
g20
VFarah Tanveer
p155
sg18
V1823482824594417
p156
ssg18
V1401837583195055_1402089063169907
p157
sa(dp158
g37
V2016-10-19T07:01:39+0000
p159
sg39
VWow\U0001f60d
p160
sg41
(dp161
g20
VHaider Ali
p162
sg18
V1822655201345330
p163
ssg18
V1401837583195055_1404115099633970
p164
sa(dp165
g37
V2016-10-17T15:40:49+0000
p166
sg39
VV. Beautiful
p167
sg41
(dp168
g20
VShagufta Ansari
p169
sg18
V1027270457386180
p170
ssg18
V1401837583195055_1401957699849710
p171
sa(dp172
g37
V2016-10-21T15:33:52+0000
p173
sg39
g76
sg41
(dp174
g20
VAkhter Zaman Malghani
p175
sg18
V1121714094531953
p176
ssg18
V1401837583195055_1406413102737503
p177
sassg37
V2016-10-17T13:44:11+0000
p178
sg39
V#Khokush Lake \u000a#Langar, #Ghizer Valley, #Gilgit-#Baltistan, #Pakistan\u000a\u000aPhoto: USMAN ZUBAIR
p179
sg16
Vphoto
p180
sg18
V118828831495943_1401837583195055
p181
s.