(dp0
Vreactions
p1
(dp2
Vpaging
p3
(dp4
Vcursors
p5
(dp6
Vafter
p7
VTVRBd01EQXdNVFV6TmpnM05qTTVPakUwTnpjM016STJPVFk2TWpVME1EazJNVFl4TXc9PQZDZD
p8
sVbefore
p9
VTVRBd01EQXdNVFV6TmpnM05qTTVPakUwTnpjM016STJPVFk2TWpVME1EazJNVFl4TXc9PQZDZD
p10
ssVnext
p11
Vhttps://graph.facebook.com/v2.6/118828831495943_1405150739530406/reactions?access_token=599965930180946%7C575aa5390a4589483de7f8cf99702788&limit=1&after=TVRBd01EQXdNVFV6TmpnM05qTTVPakUwTnpjM016STJPVFk2TWpVME1EazJNVFl4TXc9PQZDZD
p12
ssVdata
p13
(lp14
(dp15
Vtype
p16
VLIKE
p17
sVid
p18
V1550603961621378
p19
sVname
p20
VM Siraj Ulfat
p21
sassg20
VTimeline Photos
p22
sVshares
p23
(dp24
Vcount
p25
I68
ssVlink
p26
Vhttps://www.facebook.com/ExplorePakistan/photos/a.118837968161696.8199.118828831495943/1405150739530406/?type=3
p27
sVcomments
p28
(dp29
g3
(dp30
g5
(dp31
g7
VMQZDZD
p32
sg9
VMTAZD
p33
sssg13
(lp34
(dp35
Vcreated_time
p36
V2016-10-21T07:36:18+0000
p37
sVmessage
p38
V\u0686\u06cc\u0691 \u06a9\u06d2 \u062f\u0631\u062e\u062a\u0648\u06ba \u067e\u0631 \u062e\u0632\u0627\u06ba \u06a9\u0627 \u0632\u0631\u062f \u0631\u0646\u06af \u0646\u06c1\u06cc\u06ba \u0622\u062a\u0627 \u06cc\u06c1 \u0633\u062f\u0627 \u0628\u06c1\u0627\u0631 \u06c1\u0648\u062a\u06d2 \u06c1\u06cc\u06ba\u06d4
p39
sVfrom
p40
(dp41
g20
VAamir Mumtaz
p42
sg18
V488806061308632
p43
ssg18
V1405150739530406_1406052942773519
p44
sa(dp45
g36
V2016-10-20T10:16:22+0000
p46
sg38
Vsubhanallah. At first I thought it was a painting. Mind blowing.
p47
sg40
(dp48
g20
VUsama Arshad
p49
sg18
V1082328341880777
p50
ssg18
V1405150739530406_1405198246192322
p51
sa(dp52
g36
V2016-10-20T20:21:39+0000
p53
sg38
VSarwat Subhani you were saying something about autumn \U0001f342.....
p54
sg40
(dp55
g20
VNadia Shafique
p56
sg18
V10154760214476869
p57
ssg18
V1405150739530406_1405601262818687
p58
sa(dp59
g36
V2016-10-20T11:54:27+0000
p60
sg38
V\u0645\u0646\u0638\u0631 \u0645\u06cc\u06ba \u062e\u0632\u0627\u06ba \u06a9\u0645 \u06c1\u0648\u062a\u06cc \u06c1\u06d2 \u06a9\u06cc\u0645\u0631\u06d2 \u0645\u06cc\u06ba \u0632\u06cc\u0627\u062f\u06c1\U0001f60e
p61
sg40
(dp62
g20
V\u0646\u0633\u0631\u06cc\u0646 \u063a\u0648\u0631\u06cc \u0645\u0634\u0627\u0628\u0631\u0645\u06cc
p63
sg18
V721784697985502
p64
ssg18
V1405150739530406_1405257876186359
p65
sa(dp66
g36
V2016-10-20T09:38:27+0000
p67
sg38
VBeautiful\U0001f60d\U0001f619\U0001f618
p68
sg40
(dp69
g20
VEdna Tamargo Piano
p70
sg18
V1698865810368035
p71
ssg18
V1405150739530406_1405167959528684
p72
sa(dp73
g36
V2016-10-20T09:39:18+0000
p74
sg38
VWhat a shot!
p75
sg40
(dp76
g20
VPritee Kathpal
p77
sg18
V1755107278074087
p78
ssg18
V1405150739530406_1405168292861984
p79
sa(dp80
g36
V2016-10-20T12:23:56+0000
p81
sg38
Vcool pic .... but -_-
p82
sg40
(dp83
g20
VUmar Farooq
p84
sg18
V1681566062172219
p85
ssg18
V1405150739530406_1405272239518256
p86
sa(dp87
g36
V2016-10-20T18:39:42+0000
p88
sg38
VFizah Wasti Abdullah Asad *~*
p89
sg40
(dp90
g20
VRamail Amjad
p91
sg18
V1299922710020346
p92
ssg18
V1405150739530406_1405527042826109
p93
sa(dp94
g36
V2016-10-20T13:50:05+0000
p95
sg38
VLove u Pakistan and Epic Shot
p96
sg40
(dp97
g20
VSheri Gul
p98
sg18
V1829352193969158
p99
ssg18
V1405150739530406_1405328329512647
p100
sassg36
V2016-10-20T09:03:08+0000
p101
sg38
VAutumn Colours  #Pakistan\u000a\u000aSyeda Hafsa Shah
p102
sg16
Vphoto
p103
sg18
V118828831495943_1405150739530406
p104
s.