(dp0
Vreactions
p1
(dp2
Vpaging
p3
(dp4
Vcursors
p5
(dp6
Vafter
p7
VTnpneE16VXlOVGt3T2pFME56YzRNakEzTmpjNk1qVTBNRGsyTVRZAeE13PT0ZD
p8
sVbefore
p9
VTnpneE16VXlOVGt3T2pFME56YzRNakEzTmpjNk1qVTBNRGsyTVRZAeE13PT0ZD
p10
ssVnext
p11
Vhttps://graph.facebook.com/v2.6/118828831495943_1396781980367282/reactions?access_token=599965930180946%7C575aa5390a4589483de7f8cf99702788&summary=true&limit=1&after=TnpneE16VXlOVGt3T2pFME56YzRNakEzTmpjNk1qVTBNRGsyTVRZAeE13PT0ZD
p12
ssVdata
p13
(lp14
(dp15
Vtype
p16
VLIKE
p17
sVid
p18
V10154584175187591
p19
sVname
p20
VHooria Zeeshan
p21
sasVsummary
p22
(dp23
Vtotal_count
p24
I3081
sVviewer_reaction
p25
VNONE
p26
sssg20
VTimeline Photos
p27
sVshares
p28
(dp29
Vcount
p30
I341
ssVlink
p31
Vhttps://www.facebook.com/ExplorePakistan/photos/a.118837968161696.8199.118828831495943/1396781980367282/?type=3
p32
sVcomments
p33
(dp34
g3
(dp35
g5
(dp36
g7
VNAZDZD
p37
sg9
VMjMZD
p38
ssg11
Vhttps://graph.facebook.com/v2.6/118828831495943_1396781980367282/comments?access_token=599965930180946%7C575aa5390a4589483de7f8cf99702788&limit=20&after=NAZDZD
p39
ssg13
(lp40
(dp41
Vcreated_time
p42
V2016-10-13T09:06:00+0000
p43
sVmessage
p44
VJis Kesi mahaan insan ne yeh pic click ki hai woh hat uper kr ley apne :P
p45
sVfrom
p46
(dp47
g20
VSyed M Kashif
p48
sg18
V10154733805102835
p49
ssg18
V1396781980367282_1397046973674116
p50
sa(dp51
g42
V2016-10-13T05:28:54+0000
p52
sg44
VSarrawat...just as beautiful as the image we captured the other day when flying over the Himalayas!
p53
sg46
(dp54
g20
VNighat Rehman
p55
sg18
V1258209410888599
p56
ssg18
V1396781980367282_1396868180358662
p57
sa(dp58
g42
V2016-10-13T10:44:47+0000
p59
sg44
VNighat Rehman Now you're rubbing salt into the wound!!
p60
sg46
(dp61
g20
VChris Willott
p62
sg18
V318776315163060
p63
ssg18
V1396781980367282_1397147373664076
p64
sa(dp65
g42
V2016-10-13T09:09:47+0000
p66
sg44
VMashaAllah
p67
sg46
(dp68
g20
VMemee Janjua
p69
sg18
V1682698945313547
p70
ssg18
V1396781980367282_1397050173673796
p71
sa(dp72
g42
V2016-10-13T17:15:31+0000
p73
sg44
Vno words for this beautiful image..<3
p74
sg46
(dp75
g20
VAhmed Ali
p76
sg18
V1039135402864135
p77
ssg18
V1396781980367282_1397577786954368
p78
sa(dp79
g42
V2016-10-13T07:52:30+0000
p80
sg44
VV beautiful
p81
sg46
(dp82
g20
VRukhsana Khan
p83
sg18
V1747273428855478
p84
ssg18
V1396781980367282_1396963643682449
p85
sa(dp86
g42
V2016-10-13T08:45:29+0000
p87
sg44
V\u0627\u0691 \u06a9\u06d2 \u067e\u06c1\u0646\u0686\u0648\u06ba \u06af\u06d2 \u062a\u0645 \u062c\u0633 \u0627\u0641\u0642 \u067e\u0631\u000a\u0633\u0627\u062a\u06be \u062c\u0627\u06d3 \u06af\u06cc \u067e\u0631\u0648\u0627\u0632 \u0645\u06cc\u0631\u06cc \U0001f1f5\U0001f1f0
p88
sg46
(dp89
g20
VSamira Karim
p90
sg18
V486882861506455
p91
ssg18
V1396781980367282_1397019413676872
p92
sa(dp93
g42
V2016-10-13T03:28:23+0000
p94
sg44
VBeautiful
p95
sg46
(dp96
g20
VSalman Khokhar
p97
sg18
V1991584741068085
p98
ssg18
V1396781980367282_1396791820366298
p99
sa(dp100
g42
V2016-10-13T03:46:18+0000
p101
sg44
VWowwww.beautiful view
p102
sg46
(dp103
g20
VAndleeb Qazi
p104
sg18
V10208184197748645
p105
ssg18
V1396781980367282_1396809980364482
p106
sa(dp107
g42
V2016-10-13T13:01:34+0000
p108
sg44
VBeautiful pic
p109
sg46
(dp110
g20
VAmtul Shafaat
p111
sg18
V189579494824045
p112
ssg18
V1396781980367282_1397263336985813
p113
sa(dp114
g42
V2016-10-13T06:50:38+0000
p115
sg44
VAwesome
p116
sg46
(dp117
g20
VZak Khan
p118
sg18
V1855415234680399
p119
ssg18
V1396781980367282_1396910517021095
p120
sa(dp121
g42
V2016-10-13T05:18:35+0000
p122
sg44
VAwesome.
p123
sg46
(dp124
g20
VNasir Khan
p125
sg18
V10210419336669363
p126
ssg18
V1396781980367282_1396862763692537
p127
sa(dp128
g42
V2016-10-14T17:23:50+0000
p129
sg44
VI love the k2
p130
sg46
(dp131
g20
VAhad Syed
p132
sg18
V890712547725811
p133
ssg18
V1396781980367282_1398850840160396
p134
sa(dp135
g42
V2016-10-13T06:53:54+0000
p136
sg44
Vhimalayas always in my heart
p137
sg46
(dp138
g20
VSardar Tahir Sudozai
p139
sg18
V1114437062010140
p140
ssg18
V1396781980367282_1396912653687548
p141
sa(dp142
g42
V2016-10-13T09:46:53+0000
p143
sg44
VWhat a great photo!
p144
sg46
(dp145
g20
VMuna Haider
p146
sg18
V1810226315901136
p147
ssg18
V1396781980367282_1397093780336102
p148
sa(dp149
g42
V2016-10-13T10:34:41+0000
p150
sg44
VBohat aalaa pic
p151
sg46
(dp152
g20
VBushra Bush
p153
sg18
V327745180937743
p154
ssg18
V1396781980367282_1397141496997997
p155
sa(dp156
g42
V2016-10-13T03:11:34+0000
p157
sg44
V\U0001f40d
p158
sg46
(dp159
g20
VSpartacus Khattak
p160
sg18
V1825540031056610
p161
ssg18
V1396781980367282_1396782293700584
p162
sa(dp163
g42
V2016-10-13T03:11:34+0000
p164
sg44
V\U0001f341
p165
sg46
(dp166
g20
VSpartacus Khattak
p167
sg18
V1825540031056610
p168
ssg18
V1396781980367282_1396782290367251
p169
sa(dp170
g42
V2016-10-13T10:45:52+0000
p171
sg44
V\U0001f60d
p172
sg46
(dp173
g20
VSadia Adnan
p174
sg18
V325296047851607
p175
ssg18
V1396781980367282_1397148533663960
p176
sa(dp177
g42
V2016-10-13T03:40:46+0000
p178
sg44
V
p179
sg46
(dp180
g20
VMaha Noor
p181
sg18
V214177692337295
p182
ssg18
V1396781980367282_1396798103699003
p183
sassg42
V2016-10-13T03:11:13+0000
p184
sg44
VF7 flying near K2 #Pakistan
p185
sg16
Vphoto
p186
sg18
V118828831495943_1396781980367282
p187
s.