(dp0
Vreactions
p1
(dp2
Vpaging
p3
(dp4
Vcursors
p5
(dp6
Vafter
p7
VTVRBd01ERXdNRFUxTWpNMk9EWTJPakUwTnpjM01UTXhNREk2TWpVME1EazJNVFl4TXc9PQZDZD
p8
sVbefore
p9
VTVRBd01ERXdNRFUxTWpNMk9EWTJPakUwTnpjM01UTXhNREk2TWpVME1EazJNVFl4TXc9PQZDZD
p10
ssVnext
p11
Vhttps://graph.facebook.com/v2.6/118828831495943_1395390887173058/reactions?access_token=599965930180946%7C575aa5390a4589483de7f8cf99702788&summary=true&limit=1&after=TVRBd01ERXdNRFUxTWpNMk9EWTJPakUwTnpjM01UTXhNREk2TWpVME1EazJNVFl4TXc9PQZDZD
p12
ssVdata
p13
(lp14
(dp15
Vtype
p16
VLIKE
p17
sVid
p18
V364818280530010
p19
sVname
p20
VFida Hussain
p21
sasVsummary
p22
(dp23
Vtotal_count
p24
I1239
sVviewer_reaction
p25
VNONE
p26
sssg20
VTimeline Photos
p27
sVshares
p28
(dp29
Vcount
p30
I107
ssVlink
p31
Vhttps://www.facebook.com/ExplorePakistan/photos/a.118837968161696.8199.118828831495943/1395390887173058/?type=3
p32
sVcomments
p33
(dp34
g3
(dp35
g5
(dp36
g7
VMQZDZD
p37
sg9
VNwZDZD
p38
sssg13
(lp39
(dp40
Vcreated_time
p41
V2016-10-13T17:50:41+0000
p42
sVmessage
p43
V\u0645\u06cc\u0631\u0627 \u067e\u0627\u06a9\u0633\u062a\u0627\u0646 \u0633\u0627\u0631\u06cc \u062f\u0646\u06cc\u0627 \u0633\u06d2 \u062e\u0648\u0628 \u0635\u0648\u0631\u062a \u06be\u06d2
p44
sVfrom
p45
(dp46
g20
VMuhamad Hafeez
p47
sg18
V170061830120660
p48
ssg18
V1395390887173058_1397618873616926
p49
sa(dp50
g41
V2016-10-11T18:24:15+0000
p51
sg43
Vso nice
p52
sg45
(dp53
g20
VSanam Zeb
p54
sg18
V328804570830393
p55
ssg18
V1395390887173058_1395431527168994
p56
sa(dp57
g41
V2016-10-12T17:02:22+0000
p58
sg43
VFantastic.
p59
sg45
(dp60
g20
VAsfy Qureshi
p61
sg18
V557448194446183
p62
ssg18
V1395390887173058_1396325447079602
p63
sa(dp64
g41
V2016-10-12T11:07:01+0000
p65
sg43
VZainy Sheikh
p66
sg45
(dp67
g20
VMuhammad Noman Xiddiqui
p68
sg18
V1073025806148120
p69
ssg18
V1395390887173058_1396038240441656
p70
sa(dp71
g41
V2016-10-12T12:16:08+0000
p72
sg43
VMaira Zulfiqar
p73
sg45
(dp74
g20
VMuhammad Ali Omer
p75
sg18
V1261890763853523
p76
ssg18
V1395390887173058_1396077430437737
p77
sa(dp78
g41
V2016-10-12T12:19:31+0000
p79
sg43
VImad Khalid
p80
sg45
(dp81
g20
VAmna Jawed
p82
sg18
V10157798521865089
p83
ssg18
V1395390887173058_1396079347104212
p84
sa(dp85
g41
V2016-10-12T23:39:58+0000
p86
sg43
VIrrfan Huaain Malik
p87
sg45
(dp88
g20
VAzan Malik
p89
sg18
V934466736680704
p90
ssg18
V1395390887173058_1396635223715291
p91
sassg41
V2016-10-11T18:15:00+0000
p92
sg43
VAutumn Colours of #Hunza and #Nagar Valley #Pakistan
p93
sg16
Vphoto
p94
sg18
V118828831495943_1395390887173058
p95
s.