(dp0
Vreactions
p1
(dp2
Vpaging
p3
(dp4
Vcursors
p5
(dp6
Vafter
p7
VTVRBd01EQXdPREkxTkRRMU1qWTBPakUwTnpjNE16QTRNVE02TWpVME1EazJNVFl4TXc9PQZDZD
p8
sVbefore
p9
VTVRBd01EQXdPREkxTkRRMU1qWTBPakUwTnpjNE16QTRNVE02TWpVME1EazJNVFl4TXc9PQZDZD
p10
ssVnext
p11
Vhttps://graph.facebook.com/v2.6/118828831495943_1409206732458140/reactions?access_token=599965930180946%7C575aa5390a4589483de7f8cf99702788&limit=1&after=TVRBd01EQXdPREkxTkRRMU1qWTBPakUwTnpjNE16QTRNVE02TWpVME1EazJNVFl4TXc9PQZDZD
p12
ssVdata
p13
(lp14
(dp15
Vtype
p16
VLIKE
p17
sVid
p18
V1194079497296220
p19
sVname
p20
VKhalid K Khalid
p21
sassg20
VExplore the Beauty of Pakistan
p22
sVcomments
p23
(dp24
g3
(dp25
g5
(dp26
g7
VMQZDZD
p27
sg9
VMTQZD
p28
sssg13
(lp29
(dp30
Vcreated_time
p31
V2016-10-26T07:38:21+0000
p32
sVmessage
p33
VAllah o akbar.....ye ik sajda jisay tu gran samjhta hay....hazar sajdon s daita hay admi ko najat.....
p34
sVfrom
p35
(dp36
g20
VAhsan Majeed
p37
sg18
V1206939009351883
p38
ssg18
V1409206732458140_1411147958930684
p39
sa(dp40
g31
V2016-10-24T09:53:52+0000
p41
sg33
V\u06cc\u06c1 \u0635\u0631\u0641 \u0627\u06cc\u06a9 \u0645\u0633\u0644\u0645\u0627\u0646 \u06a9\u06cc \u06c1\u06cc \u0634\u0627\u0646 \u06c1\u06d2 \u06a9\u06c1 \u0627\u0633 \u06a9\u06cc \u0632\u0646\u062f\u06af\u06cc \u06a9\u0627 \u06a9\u0648\u0626\u06cc \u0628\u06be\u06cc \u0644\u0645\u062d\u06c1 \u0634\u06a9\u0631 \u0627\u0644\u06c1\u06cc \u0633\u06d2 \u062e\u0627\u0644\u06cc \u0646\u06c1\u06cc\u06ba \u06c1\u0648\u062a\u0627\u06d4
p42
sg35
(dp43
g20
VTalha Zaheer
p44
sg18
V10153802879557331
p45
ssg18
V1409206732458140_1409253675786779
p46
sa(dp47
g31
V2016-10-24T09:09:09+0000
p48
sg33
V
p49
sg35
(dp50
g20
VEdna Tamargo Piano
p51
sg18
V1698865810368035
p52
ssg18
V1409206732458140_1409232929122187
p53
sa(dp54
g31
V2016-10-24T12:09:48+0000
p55
sg33
g49
sg35
(dp56
g20
VRabia Qadir
p57
sg18
V405873483134509
p58
ssg18
V1409206732458140_1409344182444395
p59
sa(dp60
g31
V2016-10-24T08:36:12+0000
p61
sg33
VWell done
p62
sg35
(dp63
g20
VTabassum Munir
p64
sg18
V1576105865748250
p65
ssg18
V1409206732458140_1409217125790434
p66
sa(dp67
g31
V2016-10-24T11:05:29+0000
p68
sg33
V\u062f\u0646\u06cc\u0627 \u0628\u0646\u0627\u0646\u06d2 \u0648\u0627\u0644\u06d2 \u062a\u06cc\u0631\u0627 \u0634\u06a9\u0631\u06cc\u06c1
p69
sg35
(dp70
g20
VN Farrukh Sheikh
p71
sg18
V282262642174425
p72
ssg18
V1409206732458140_1409302965781850
p73
sa(dp74
g31
V2016-10-24T09:09:07+0000
p75
sg33
g49
sg35
(dp76
g20
VEdna Tamargo Piano
p77
sg18
V1698865810368035
p78
ssg18
V1409206732458140_1409232892455524
p79
sa(dp80
g31
V2016-10-24T08:55:25+0000
p81
sg33
VMa sha Allah  \U0001f60a
p82
sg35
(dp83
g20
VUzma Shahid
p84
sg18
V595105707281176
p85
ssg18
V1409206732458140_1409225602456253
p86
sa(dp87
g31
V2016-10-24T10:59:01+0000
p88
sg33
VHaya Adnan.... see this is what u want, #K2
p89
sg35
(dp90
g20
VAdnan Khan
p91
sg18
V1191831707576737
p92
ssg18
V1409206732458140_1409299992448814
p93
sa(dp94
g31
V2016-10-24T09:52:27+0000
p95
sg33
VGod bless you dost well done
p96
sg35
(dp97
g20
VImran Hassan
p98
sg18
V1315822675108282
p99
ssg18
V1409206732458140_1409253112453502
p100
sa(dp101
g31
V2016-10-24T09:47:04+0000
p102
sg33
VWell done
p103
sg35
(dp104
g20
VAK Khan
p105
sg18
V1646137995635766
p106
ssg18
V1409206732458140_1409250512453762
p107
sa(dp108
g31
V2016-10-24T10:07:15+0000
p109
sg33
VI wish i could
p110
sg35
(dp111
g20
VBambang Harijanto
p112
sg18
V1312156755485396
p113
ssg18
V1409206732458140_1409262949119185
p114
sa(dp115
g31
V2016-10-25T20:05:05+0000
p116
sg33
g49
sg35
(dp117
g20
VIrshad Nabi
p118
sg18
V1141285979292480
p119
ssg18
V1409206732458140_1410718735640273
p120
sa(dp121
g31
V2016-10-24T08:46:30+0000
p122
sg33
VSoHaib AhMed
p123
sg35
(dp124
g20
VFaraz Hussain
p125
sg18
V773992412739625
p126
ssg18
V1409206732458140_1409220775790069
p127
sassVlink
p128
Vhttps://www.facebook.com/ExplorePakistan/photos/a.440939899284833.106969.118828831495943/470765649635591/?type=3
p129
sg31
V2016-10-24T08:16:12+0000
p130
sg33
VSalute Nazeer Sabir
p131
sg16
Vphoto
p132
sg18
V118828831495943_1409206732458140
p133
s.