(dp0
Vreactions
p1
(dp2
Vpaging
p3
(dp4
Vcursors
p5
(dp6
Vafter
p7
VTVRBd01ERXdNRFUxTWpNMk9EWTJPakUwTnpjM01UTXhPREU2TWpVME1EazJNVFl4TXc9PQZDZD
p8
sVbefore
p9
VTVRBd01ERXdNRFUxTWpNMk9EWTJPakUwTnpjM01UTXhPREU2TWpVME1EazJNVFl4TXc9PQZDZD
p10
ssVnext
p11
Vhttps://graph.facebook.com/v2.6/118828831495943_1388524797859667/reactions?access_token=599965930180946%7C575aa5390a4589483de7f8cf99702788&summary=true&limit=1&after=TVRBd01ERXdNRFUxTWpNMk9EWTJPakUwTnpjM01UTXhPREU2TWpVME1EazJNVFl4TXc9PQZDZD
p12
ssVdata
p13
(lp14
(dp15
Vtype
p16
VLIKE
p17
sVid
p18
V364818280530010
p19
sVname
p20
VFida Hussain
p21
sasVsummary
p22
(dp23
Vtotal_count
p24
I1512
sVviewer_reaction
p25
VNONE
p26
sssg20
VTimeline Photos
p27
sVshares
p28
(dp29
Vcount
p30
I257
ssVlink
p31
Vhttps://www.facebook.com/ExplorePakistan/photos/a.118837968161696.8199.118828831495943/1388524797859667/?type=3
p32
sVcomments
p33
(dp34
g3
(dp35
g5
(dp36
g7
VMQZDZD
p37
sg9
VMTMZD
p38
sssg13
(lp39
(dp40
Vcreated_time
p41
V2016-10-04T10:01:31+0000
p42
sVmessage
p43
VLove lakistan
p44
sVfrom
p45
(dp46
g20
VSanam Zeb
p47
sg18
V328804570830393
p48
ssg18
V1388524797859667_1388545917857555
p49
sa(dp50
g41
V2016-10-04T11:45:31+0000
p51
sg43
VWowww
p52
sg45
(dp53
g20
VFaryal Yunus
p54
sg18
V1117645195018704
p55
ssg18
V1388524797859667_1388599507852196
p56
sa(dp57
g41
V2016-10-04T17:40:28+0000
p58
sg43
VSeems a portrait. Beautiful.
p59
sg45
(dp60
g20
VRaja Omar Hayat
p61
sg18
V1093459270772403
p62
ssg18
V1388524797859667_1388852714493542
p63
sa(dp64
g41
V2016-10-06T02:10:54+0000
p65
sg43
VYE MERE PAKISTAN YE TERA PAKISTAN HA IS PE DIL QURBAN IS PE JAAN BHI QURBAN HAI.
p66
sg45
(dp67
g20
VAnjum Canada
p68
sg18
V1206013769437087
p69
ssg18
V1388524797859667_1390235764355237
p70
sa(dp71
g41
V2016-10-05T19:17:39+0000
p72
sg43
VNice Pic
p73
sg45
(dp74
g20
VFarzana Fahim
p75
sg18
V188670501582419
p76
ssg18
V1388524797859667_1389987194380094
p77
sa(dp78
g41
V2016-10-04T14:10:21+0000
p79
sg43
VMark Zuckerberg
p80
sg45
(dp81
g20
VJibran Khan
p82
sg18
V337660196592532
p83
ssg18
V1388524797859667_1388695554509258
p84
sa(dp85
g41
V2016-10-04T17:23:40+0000
p86
sg43
VRolling IBEX Been there Done that Boys (y)
p87
sg45
(dp88
g20
VAimal Khan Bangash
p89
sg18
V10209060026950490
p90
ssg18
V1388524797859667_1388842077827939
p91
sa(dp92
g41
V2016-10-04T17:33:10+0000
p93
sg43
VLike
p94
sg45
(dp95
g20
VZulfiquar Ahmed
p96
sg18
V1872173442994950
p97
ssg18
V1388524797859667_1388849297827217
p98
sa(dp99
g41
V2016-10-05T15:51:24+0000
p100
sg43
V
p101
sg45
(dp102
g20
VKamil Tahir
p103
sg18
V326803197685658
p104
ssg18
V1388524797859667_1389820121063468
p105
sa(dp106
g41
V2016-10-04T15:39:04+0000
p107
sg43
VHassan Shaikhu
p108
sg45
(dp109
g20
VWaqar Rebel
p110
sg18
V325434697828941
p111
ssg18
V1388524797859667_1388762774502536
p112
sa(dp113
g41
V2016-10-06T03:35:31+0000
p114
sg43
VAmbreen Saeed
p115
sg45
(dp116
g20
VRafia Saeed
p117
sg18
V1414199275272047
p118
ssg18
V1388524797859667_1390281797683967
p119
sa(dp120
g41
V2016-10-04T13:11:04+0000
p121
sg43
VZahid Ali
p122
sg45
(dp123
g20
VMuhammad Usman
p124
sg18
V10210572511011122
p125
ssg18
V1388524797859667_1388650674513746
p126
sa(dp127
g41
V2016-10-04T16:13:41+0000
p128
sg43
VLove u Pakistan
p129
sg45
(dp130
g20
VSheri Gul
p131
sg18
V1829352193969158
p132
ssg18
V1388524797859667_1388790864499727
p133
sassg41
V2016-10-04T09:13:40+0000
p134
sg43
VMIGHTY KARAKURAM HIGHWAY AND PASU CONES... #GILGIT #PAKISTAN
p135
sg16
Vphoto
p136
sg18
V118828831495943_1388524797859667
p137
s.