(dp0
Vreactions
p1
(dp2
Vpaging
p3
(dp4
Vcursors
p5
(dp6
Vafter
p7
VTVRBd01EQXhPVEUxT0RVMU1ERXpPakUwTnpjNE5UTTJOalE2TWpVME1EazJNVFl4TXc9PQZDZD
p8
sVbefore
p9
VTVRBd01EQXhPVEUxT0RVMU1ERXpPakUwTnpjNE5UTTJOalE2TWpVME1EazJNVFl4TXc9PQZDZD
p10
ssVnext
p11
Vhttps://graph.facebook.com/v2.6/118828831495943_1410413132337500/reactions?access_token=599965930180946%7C575aa5390a4589483de7f8cf99702788&limit=1&after=TVRBd01EQXhPVEUxT0RVMU1ERXpPakUwTnpjNE5UTTJOalE2TWpVME1EazJNVFl4TXc9PQZDZD
p12
ssVdata
p13
(lp14
(dp15
Vtype
p16
VLIKE
p17
sVid
p18
V1241330589274124
p19
sVname
p20
VHajra Amer
p21
sassg20
VTimeline Photos
p22
sVshares
p23
(dp24
Vcount
p25
I37
ssVlink
p26
Vhttps://www.facebook.com/ExplorePakistan/photos/a.118837968161696.8199.118828831495943/1410413132337500/?type=3
p27
sVcomments
p28
(dp29
g3
(dp30
g5
(dp31
g7
VMQZDZD
p32
sg9
VMTEZD
p33
sssg13
(lp34
(dp35
Vcreated_time
p36
V2016-10-25T14:12:11+0000
p37
sVmessage
p38
V\u062c\u0627\u0646\u0627 \u0686\u0627\u06c1\u06cc\u0626\u06d2 \u0645\u06af\u0631 \u0633\u06cc\u0631 \u062a\u0641\u0631\u06cc\u062d \u06a9\u06d2 \u0644\u0626\u06d2 ....\u0645\u0631\u06a9\u06d2 \u0628\u0647\u06cc \u0686\u06cc\u0646 \u0646\u06c1 \u067e\u0627\u06cc\u0627 \u062a\u0648 \u06a9\u062f\u0647\u0631 \u062c\u0627\u0648\u0621\u06af\u06d2 \u061f
p39
sVfrom
p40
(dp41
g20
VSuraiya Khatoon
p42
sg18
V1778991979040425
p43
ssg18
V1410413132337500_1410424135669733
p44
sa(dp45
g36
V2016-10-25T15:15:45+0000
p46
sg38
VBut i dont understand anything...if u can translate.to me in english...i will be very happy to know about it...thnks...
p47
sg40
(dp48
g20
VEdna Tamargo Piano
p49
sg18
V1698865810368035
p50
ssg18
V1410413132337500_1410477445664402
p51
sa(dp52
g36
V2016-10-25T15:58:05+0000
p53
sg38
VBeen there but karimabad to china border is most beatiful.
p54
sg40
(dp55
g20
VMohammad Ashraf
p56
sg18
V997041330421897
p57
ssg18
V1410413132337500_1410508562327957
p58
sa(dp59
g36
V2016-10-25T15:03:54+0000
p60
sg38
VKhawatheen o khazraath...lol\u000aJaida channgarrh
p61
sg40
(dp62
g20
VAli Alvi
p63
sg18
V10211256509276755
p64
ssg18
V1410413132337500_1410471365665010
p65
sa(dp66
g36
V2016-10-26T17:00:06+0000
p67
sg38
VSir fairy meadows ka bi btaya
p68
sg40
(dp69
g20
VNiamat Raikoti
p70
sg18
V1290165074367734
p71
ssg18
V1410413132337500_1411550465557100
p72
sa(dp73
g36
V2016-10-29T17:19:02+0000
p74
sg38
VKya bat hei skardu , shangrila ki...
p75
sg40
(dp76
g20
VSonia Khan
p77
sg18
V527111757487389
p78
ssg18
V1410413132337500_1415136551865158
p79
sa(dp80
g36
V2016-10-25T17:07:09+0000
p81
sg38
VNiceeeeeeeee.
p82
sg40
(dp83
g20
VFaisal Abbas
p84
sg18
V1692066281108190
p85
ssg18
V1410413132337500_1410567425655404
p86
sa(dp87
g36
V2016-10-30T18:51:27+0000
p88
sg38
VImpreSsive.
p89
sg40
(dp90
g20
VM Amer Zahoor
p91
sg18
V10207514436440788
p92
ssg18
V1410413132337500_1416513955060751
p93
sa(dp94
g36
V2016-10-26T07:37:13+0000
p95
sg38
Voh....wah Javed ch sb ..
p96
sg40
(dp97
g20
VAhsan Majeed
p98
sg18
V1206939009351883
p99
ssg18
V1410413132337500_1411147585597388
p100
sa(dp101
g36
V2016-10-25T23:16:22+0000
p102
sg38
VJo khuch likha jaweed sahib ne wo in sub jagaon ki beuty k samny bohot kam he na yaqeen aay to lazmi zimdagi main aik bar  visit karain wahan ka wapis aany k dil nahi karega
p103
sg40
(dp104
g20
VTabish Khurram
p105
sg18
V1111962958879301
p106
ssg18
V1410413132337500_1410833778962102
p107
sa(dp108
g36
V2016-10-26T09:41:48+0000
p109
sg38
VZainab Fatima
p110
sg40
(dp111
g20
VJami Fatima
p112
sg18
V1058923724207017
p113
ssg18
V1410413132337500_1411260795586067
p114
sassg36
V2016-10-25T13:56:10+0000
p115
sg38
VA famous Pakiatani jounalist has to write about beauty of Skardu valley.
p116
sg16
Vphoto
p117
sg18
V118828831495943_1410413132337500
p118
s.