(dp0
Vreactions
p1
(dp2
Vpaging
p3
(dp4
Vcursors
p5
(dp6
Vafter
p7
VTVRBd01EQXhOak15TXpjeU5UTXlPakUwTnpjNE16a3dNalk2TWpVME1EazJNVFl4TXc9PQZDZD
p8
sVbefore
p9
VTVRBd01EQXhOak15TXpjeU5UTXlPakUwTnpjNE16a3dNalk2TWpVME1EazJNVFl4TXc9PQZDZD
p10
ssVnext
p11
Vhttps://graph.facebook.com/v2.6/118828831495943_1397691596942987/reactions?access_token=599965930180946%7C575aa5390a4589483de7f8cf99702788&summary=true&limit=1&after=TVRBd01EQXhOak15TXpjeU5UTXlPakUwTnpjNE16a3dNalk2TWpVME1EazJNVFl4TXc9PQZDZD
p12
ssVdata
p13
(lp14
(dp15
Vtype
p16
VLIKE
p17
sVid
p18
V1101007459963656
p19
sVname
p20
VAtaullah Arain
p21
sasVsummary
p22
(dp23
Vtotal_count
p24
I873
sVviewer_reaction
p25
VNONE
p26
sssg20
VTimeline Photos
p27
sVshares
p28
(dp29
Vcount
p30
I66
ssVlink
p31
Vhttps://www.facebook.com/ExplorePakistan/photos/a.118837968161696.8199.118828831495943/1397691596942987/?type=3
p32
sVcomments
p33
(dp34
g3
(dp35
g5
(dp36
g7
VMQZDZD
p37
sg9
VMQZDZD
p38
sssg13
(lp39
(dp40
Vcreated_time
p41
V2016-10-14T09:43:31+0000
p42
sVmessage
p43
VBilal Virk
p44
sVfrom
p45
(dp46
g20
VMuhammad Rashid Mushtaq
p47
sg18
V10211147236903108
p48
ssg18
V1397691596942987_1398420656870081
p49
sassg41
V2016-10-13T18:51:16+0000
p50
sg43
VFall Colours of Passu Cathederals #Gojal #Pakistan\u000a\u000aPicture : Rao Mubashar
p51
sg16
Vphoto
p52
sg18
V118828831495943_1397691596942987
p53
s.