(dp0
Vreactions
p1
(dp2
Vpaging
p3
(dp4
Vcursors
p5
(dp6
Vafter
p7
VTVRBd01EQTROekF5T1RRME5EazFPakUwTnpjNE5ERXpPRFk2TWpVME1EazJNVFl4TXc9PQZDZD
p8
sVbefore
p9
VTVRBd01EQTROekF5T1RRME5EazFPakUwTnpjNE5ERXpPRFk2TWpVME1EazJNVFl4TXc9PQZDZD
p10
ssVnext
p11
Vhttps://graph.facebook.com/v2.6/118828831495943_1406637362715077/reactions?access_token=599965930180946%7C575aa5390a4589483de7f8cf99702788&limit=1&after=TVRBd01EQTROekF5T1RRME5EazFPakUwTnpjNE5ERXpPRFk2TWpVME1EazJNVFl4TXc9PQZDZD
p12
ssVdata
p13
(lp14
(dp15
Vtype
p16
VLIKE
p17
sVid
p18
V1624136941219722
p19
sVname
p20
VSyed Turab Haider Shah
p21
sassg20
VTimeline Photos
p22
sVshares
p23
(dp24
Vcount
p25
I139
ssVlink
p26
Vhttps://www.facebook.com/ExplorePakistan/photos/a.118837968161696.8199.118828831495943/1406637362715077/?type=3
p27
sVcomments
p28
(dp29
g3
(dp30
g5
(dp31
g7
VMQZDZD
p32
sg9
VMTYZD
p33
sssg13
(lp34
(dp35
Vcreated_time
p36
V2016-10-21T20:29:42+0000
p37
sVmessage
p38
VMashaAllah
p39
sVfrom
p40
(dp41
g20
VMemee Janjua
p42
sg18
V1682698945313547
p43
ssg18
V1406637362715077_1406658789379601
p44
sa(dp45
g36
V2016-10-21T20:20:13+0000
p46
sg38
VWow beautiful
p47
sg40
(dp48
g20
VMelody Dela Cruz
p49
sg18
V226041181127278
p50
ssg18
V1406637362715077_1406652722713541
p51
sa(dp52
g36
V2016-10-22T14:33:15+0000
p53
sg38
VThis place has mesmerizing beauty. Out of this world. I'm lucky enough to have seen it. Would like to go once again as well insha Allah.
p54
sg40
(dp55
g20
VFarah Wahab
p56
sg18
V1301255473238286
p57
ssg18
V1406637362715077_1407478182630995
p58
sa(dp59
g36
V2016-10-21T20:15:07+0000
p60
sg38
V<3 <3 <3
p61
sg40
(dp62
g20
VNido Redefined
p63
sg18
V10157680115250611
p64
ssg18
V1406637362715077_1406648889380591
p65
sa(dp66
g36
V2016-10-22T15:56:53+0000
p67
sg38
VBEEEEEAAAUUUUTTTTIIIIFFFFUUUULLLL, MA SHAA ALLAH!!!
p68
sg40
(dp69
g20
VQuaideazam Iqbal
p70
sg18
V1779926222266063
p71
ssg18
V1406637362715077_1407565535955593
p72
sa(dp73
g36
V2016-10-22T06:19:39+0000
p74
sg38
V
p75
sg40
(dp76
g20
VZohaib Ahmed
p77
sg18
V10211919065040302
p78
ssg18
V1406637362715077_1407072116004935
p79
sa(dp80
g36
V2016-10-21T21:02:38+0000
p81
sg38
g75
sg40
(dp82
g20
VMalik Bari
p83
sg18
V1137481546301687
p84
ssg18
V1406637362715077_1406682686043878
p85
sa(dp86
g36
V2016-10-22T07:52:20+0000
p87
sg38
VBeautiful reflections.
p88
sg40
(dp89
g20
VShahid Hussain
p90
sg18
V1778922825696740
p91
ssg18
V1406637362715077_1407144525997694
p92
sa(dp93
g36
V2016-10-22T14:16:20+0000
p94
sg38
g75
sg40
(dp95
g20
VMirza Saud
p96
sg18
V822958464530312
p97
ssg18
V1406637362715077_1407457102633103
p98
sa(dp99
g36
V2016-10-22T05:05:24+0000
p100
sg38
VWawoo anezing....
p101
sg40
(dp102
g20
VMyounaskhan Myounaskhan
p103
sg18
V218545371899725
p104
ssg18
V1406637362715077_1407031099342370
p105
sa(dp106
g36
V2016-10-22T19:37:47+0000
p107
sg38
VBeautiful
p108
sg40
(dp109
g20
VSoulat Zahoor
p110
sg18
V1679610562352616
p111
ssg18
V1406637362715077_1407754842603329
p112
sa(dp113
g36
V2016-10-21T21:04:15+0000
p114
sg38
VVvbeautiful...
p115
sg40
(dp116
g20
VEdna Tamargo Piano
p117
sg18
V1698865810368035
p118
ssg18
V1406637362715077_1406683386043808
p119
sa(dp120
g36
V2016-10-22T10:13:16+0000
p121
sg38
VNice
p122
sg40
(dp123
g20
VMazhar Khan
p124
sg18
V1687252788255944
p125
ssg18
V1406637362715077_1407233739322106
p126
sa(dp127
g36
V2016-10-21T20:56:35+0000
p128
sg38
VYes ... All beautiful place aventure her i see in pkistan  explore  its amizing ,great  and pkistan place is bless with your allahhhh so nice
p129
sg40
(dp130
g20
VMelody Dela Cruz
p131
sg18
V226041181127278
p132
ssg18
V1406637362715077_1406678999377580
p133
sa(dp134
g36
V2016-10-22T15:34:59+0000
p135
sg38
VWahab Khan
p136
sg40
(dp137
g20
VNajam Us Saqib
p138
sg18
V666976006803908
p139
ssg18
V1406637362715077_1407542342624579
p140
sa(dp141
g36
V2016-10-21T20:49:50+0000
p142
sg38
VI love pakistan
p143
sg40
(dp144
g20
VN Farrukh Sheikh
p145
sg18
V282262642174425
p146
ssg18
V1406637362715077_1406674232711390
p147
sassg36
V2016-10-21T20:06:50+0000
p148
sg38
VRama Lake #Astore #Pakistan\u000a\u000aPicture : Muhammad Kamal
p149
sg16
Vphoto
p150
sg18
V118828831495943_1406637362715077
p151
s.