(dp0
Vreactions
p1
(dp2
Vpaging
p3
(dp4
Vcursors
p5
(dp6
Vafter
p7
VTVRBd01ERXdNRFUxTWpNMk9EWTJPakUwTnpjM01UTXhPVGc2TWpVME1EazJNVFl4TXc9PQZDZD
p8
sVbefore
p9
VTVRBd01ERXdNRFUxTWpNMk9EWTJPakUwTnpjM01UTXhPVGc2TWpVME1EazJNVFl4TXc9PQZDZD
p10
ssVnext
p11
Vhttps://graph.facebook.com/v2.6/118828831495943_1387626817949465/reactions?access_token=599965930180946%7C575aa5390a4589483de7f8cf99702788&summary=true&limit=1&after=TVRBd01ERXdNRFUxTWpNMk9EWTJPakUwTnpjM01UTXhPVGc2TWpVME1EazJNVFl4TXc9PQZDZD
p12
ssVdata
p13
(lp14
(dp15
Vtype
p16
VLIKE
p17
sVid
p18
V364818280530010
p19
sVname
p20
VFida Hussain
p21
sasVsummary
p22
(dp23
Vtotal_count
p24
I1627
sVviewer_reaction
p25
VNONE
p26
sssg20
VTimeline Photos
p27
sVshares
p28
(dp29
Vcount
p30
I170
ssVlink
p31
Vhttps://www.facebook.com/ExplorePakistan/photos/a.118837968161696.8199.118828831495943/1387626817949465/?type=3
p32
sVcomments
p33
(dp34
g3
(dp35
g5
(dp36
g7
VMQZDZD
p37
sg9
VMTEZD
p38
sssg13
(lp39
(dp40
Vcreated_time
p41
V2016-10-03T11:22:20+0000
p42
sVmessage
p43
VI sent a message to this page for a support. Really disappointment. No one replied me until now. I really like this page and posts but i am really disappointed by the ignorance of page admin.
p44
sVfrom
p45
(dp46
g20
VMaaz Sattar
p47
sg18
V10154295748523778
p48
ssg18
V1387626817949465_1387697624609051
p49
sa(dp50
g41
V2016-10-03T16:49:08+0000
p51
sg43
VAli Raza dkhlo this comes in my newsfeed mera kya ksoor hai\U0001f914\U0001f602
p52
sg45
(dp53
g20
VZara Nouman Ashar
p54
sg18
V780495088755895
p55
ssg18
V1387626817949465_1387929627919184
p56
sa(dp57
g41
V2016-10-03T10:19:09+0000
p58
sg43
VAwwwwwwww uffff SUBHANALLAH.i would love to walk here with my hubby.\U0001f60d
p59
sg45
(dp60
g20
VJaweria Mujahid
p61
sg18
V10209442979205145
p62
ssg18
V1387626817949465_1387638157948331
p63
sa(dp64
g41
V2016-10-03T20:40:27+0000
p65
sg43
VWao amazing!!
p66
sg45
(dp67
g20
VAamir Ali
p68
sg18
V354168508257732
p69
ssg18
V1387626817949465_1388115997900547
p70
sa(dp71
g41
V2016-10-03T09:58:56+0000
p72
sg43
VSubhan allah ...... Pakistan kisi Switzerland se kam khubsurat nahi
p73
sg45
(dp74
g20
VHasaan Anna
p75
sg18
V10154659022278559
p76
ssg18
V1387626817949465_1387629831282497
p77
sa(dp78
g41
V2016-10-03T14:35:06+0000
p79
sg43
VNice pic
p80
sg45
(dp81
g20
VOmran Zaman
p82
sg18
V915463121931349
p83
ssg18
V1387626817949465_1387826091262871
p84
sa(dp85
g41
V2016-10-04T05:43:16+0000
p86
sg43
Vwah..beautiful...amazing..
p87
sg45
(dp88
g20
VKarolina G-ka
p89
sg18
V10154164158017523
p90
ssg18
V1387626817949465_1388416084537205
p91
sa(dp92
g41
V2016-10-03T12:24:14+0000
p93
sg43
VWow, what an autumn. Fabulous..
p94
sg45
(dp95
g20
VShahid Hussain
p96
sg18
V1778922825696740
p97
ssg18
V1387626817949465_1387734797938667
p98
sa(dp99
g41
V2016-10-03T11:09:32+0000
p100
sg43
VCool
p101
sg45
(dp102
g20
VShama Yasmin
p103
sg18
V578527975684853
p104
ssg18
V1387626817949465_1387663754612438
p105
sa(dp106
g41
V2016-10-03T16:27:49+0000
p107
sg43
VZeEshan ShAhzad Khalid Mehmood
p108
sg45
(dp109
g20
VFahad Umer
p110
sg18
V1213634658747437
p111
ssg18
V1387626817949465_1387914994587314
p112
sa(dp113
g41
V2016-10-04T07:20:08+0000
p114
sg43
VJom Nurul Shazwani Mohd Rahim
p115
sg45
(dp116
g20
VAsif Raza Baig
p117
sg18
V10210026634810152
p118
ssg18
V1387626817949465_1388468684531945
p119
sassg41
V2016-10-03T09:54:58+0000
p120
sg43
VAutumn at its best here in Gilgit #Baltistan #Pakistan\u000a\u000aPicture : Munib Shiekh
p121
sg16
Vphoto
p122
sg18
V118828831495943_1387626817949465
p123
s.