(dp0
Vreactions
p1
(dp2
Vpaging
p3
(dp4
Vcursors
p5
(dp6
Vafter
p7
VTVRBd01EQTFNakE0TURNMk9UazJPakUwTnpjNE5UTXpPRFk2TWpVME1EazJNVFl4TXc9PQZDZD
p8
sVbefore
p9
VTVRBd01EQTFNakE0TURNMk9UazJPakUwTnpjNE5UTXpPRFk2TWpVME1EazJNVFl4TXc9PQZDZD
p10
ssVnext
p11
Vhttps://graph.facebook.com/v2.6/118828831495943_1407770832601730/reactions?access_token=599965930180946%7C575aa5390a4589483de7f8cf99702788&limit=1&after=TVRBd01EQTFNakE0TURNMk9UazJPakUwTnpjNE5UTXpPRFk2TWpVME1EazJNVFl4TXc9PQZDZD
p12
ssVdata
p13
(lp14
(dp15
Vtype
p16
VLIKE
p17
sVid
p18
V561562887360641
p19
sVname
p20
VSalman Mubeen
p21
sassg20
VTimeline Photos
p22
sVshares
p23
(dp24
Vcount
p25
I217
ssVlink
p26
Vhttps://www.facebook.com/ExplorePakistan/photos/a.118837968161696.8199.118828831495943/1407770832601730/?type=3
p27
sVcomments
p28
(dp29
g3
(dp30
g5
(dp31
g7
VOQZDZD
p32
sg9
VMjgZD
p33
ssg11
Vhttps://graph.facebook.com/v2.6/118828831495943_1407770832601730/comments?access_token=599965930180946%7C575aa5390a4589483de7f8cf99702788&limit=20&after=OQZDZD
p34
ssg13
(lp35
(dp36
Vcreated_time
p37
V2016-10-23T08:02:08+0000
p38
sVmessage
p39
VOmi Umair han bhaii jaye ga chitral
p40
sVfrom
p41
(dp42
g20
VZeeshan Ali
p43
sg18
V10209264328836854
p44
ssg18
V1407770832601730_1408264769219003
p45
sa(dp46
g37
V2016-10-23T00:08:40+0000
p47
sg39
VSoud Shakeel Muneeb Ahmed Abdullah Muhammad Ali Abubakkar Nakhuda Hamxa Kamdar Muhammad Ahsan Rahim han bhae kb chlna hai yaha ? :p
p48
sg41
(dp49
g20
VSoban Yousuf
p50
sg18
V1311427078887633
p51
ssg18
V1407770832601730_1407967395915407
p52
sa(dp53
g37
V2016-10-22T20:09:25+0000
p54
sg39
VWONDERFUL, SUBHAAN ALLAH!!!
p55
sg41
(dp56
g20
VQuaideazam Iqbal
p57
sg18
V1779926222266063
p58
ssg18
V1407770832601730_1407777855934361
p59
sa(dp60
g37
V2016-10-23T15:57:37+0000
p61
sg39
VZabardast
p62
sg41
(dp63
g20
VBabar Ali
p64
sg18
V1141061065947494
p65
ssg18
V1407770832601730_1408590789186401
p66
sa(dp67
g37
V2016-10-22T20:27:50+0000
p68
sg39
V\u2764\ufe0fbeautiful
p69
sg41
(dp70
g20
VN Farrukh Sheikh
p71
sg18
V282262642174425
p72
ssg18
V1407770832601730_1407793782599435
p73
sa(dp74
g37
V2016-10-23T18:03:35+0000
p75
sg39
VLkn wo sham jis ma baig nahi tha was best
p76
sg41
(dp77
g20
VIrfan Malik
p78
sg18
V1261347283922130
p79
ssg18
V1407770832601730_1408697759175704
p80
sa(dp81
g37
V2016-10-25T10:43:11+0000
p82
sg39
VBeautiful and Dangerous
p83
sg41
(dp84
g20
VAnila Azhar
p85
sg18
V406700083052744
p86
ssg18
V1407770832601730_1410277919017688
p87
sa(dp88
g37
V2016-10-23T17:47:04+0000
p89
sg39
VI drove through that track in 2005
p90
sg41
(dp91
g20
VShakil Ahmed
p92
sg18
V10208743549045034
p93
ssg18
V1407770832601730_1408677102511103
p94
sa(dp95
g37
V2016-10-23T04:22:15+0000
p96
sg39
VBhai kia bolta
p97
sg41
(dp98
g20
VAsad Ullah
p99
sg18
V10209900536605275
p100
ssg18
V1407770832601730_1408121165900030
p101
sa(dp102
g37
V2016-10-22T20:47:17+0000
p103
sg39
VIntikhab Alam remember that landsliding\U0001f602\U0001f602
p104
sg41
(dp105
g20
VSamar Altaf
p106
sg18
V1127836597293249
p107
ssg18
V1407770832601730_1407806425931504
p108
sa(dp109
g37
V2016-10-22T20:16:09+0000
p110
sg39
VMaria Khan and what about this road?:p
p111
sg41
(dp112
g20
VMaimoona Khan
p113
sg18
V10154493296120609
p114
ssg18
V1407770832601730_1407782415933905
p115
sa(dp116
g37
V2016-10-23T15:03:53+0000
p117
sg39
VHaris Khalid Syed Umair Bukhari Mehar Saeed M Hammad Asif bc's imagine driving here!
p118
sg41
(dp119
g20
VBehram Khan Durrani
p120
sg18
V568016386724055
p121
ssg18
V1407770832601730_1408556879189792
p122
sa(dp123
g37
V2016-10-23T08:19:50+0000
p124
sg39
V.. ......\U0001f595\u0641\u0631\u06cc \u0627\u06cc\u0632\u06cc \u0644\u0648\u0688 \u0633\u0627\u0641\u0679 \u0648\u06cc\u0626\u0631.....\u000a\u000a\u062f\u0648\u0633\u062a\u0648 \u0627\u0628 \u0641\u0631\u06cc \u0627\u06cc\u0632\u06cc \u0644\u0648\u0688 \u06a9\u06d2 \u0645\u0632\u06d2 \u0644\u0648. ....\u000a\u000a  \u0627\u0628 \u0622\u067e \u06a9\u0633\u06cc \u0628\u06be\u06cc \u0646\u06cc\u0679 \u0648\u0631\u06a9 \u067e\u0631 \u0641\u0631\u06cc \u0645\u0648\u0628\u0627\u0626\u0644 \u0628\u06cc\u0644\u0646\u0633 (\u0627\u06cc\u0632\u06cc \u0644\u0648\u0688) \u062d\u0627\u0635\u0644 \u06a9\u0631 \u0633\u06a9\u062a\u06d2 \u0647\u06cc\u06ba \u0627\u0648\u0631 \u0648\u0647 \u0628\u06be\u06cc \u062c\u062a\u0646\u0627 \u0645\u0631\u0636\u06cc \u0622\u067e \u06a9\u0648 \u0628\u0633 \u06cc\u0647 \u0645\u0648\u0628\u0627\u0626\u0644 \u0627\u06cc\u067e\u0644\u06cc\u06a9\u06cc\u0634\u0646 \u0688\u0627\u0624\u0646\u0644\u0648\u0688 \u06a9\u0631\u0646\u06cc \u06be\u06d2 \u0627\u0648\u0631 \u0627\u0633 \u0645\u06cc\u06ba \u0627\u067e\u0646\u0627 \u0627\u06a9\u0627\u0624\u0646\u0679 \u0628\u0646\u0627\u0646\u0627 \u06be\u06d2 \u0627\u0633 \u06a9\u06d2 \u0628\u0639\u062f \u0622\u067e \u062c\u062a\u0646\u0627 \u0645\u0631\u0636\u06cc \u0628\u06cc\u0644\u0646\u0633 \u062d\u0627\u0635\u0644 \u06a9\u0631 \u0633\u06a9\u062a\u06d2 \u06be\u06cc\u06ba \u2705\u2705 \u2705\u2705\u2705\u2705\u2705\u2705\u2705\u2705\u2705\u000a  \u062a\u0648 \u0646\u06cc\u0686\u06d2 \u062f\u06cc\u06d2 \u06af\u0626\u06d2 \u0644\u0646\u06a9 \u06a9\u0648 \u0627\u0648\u067e\u0646 \u06a9\u0631\u06cc\u06ba \u0627\u0648\u0631 \u0627\u06cc\u067e\u0644\u06cc\u06a9\u06cc\u0634\u0646 \u062f\u0627\u0624\u0646\u0644\u0648\u0688 \u06a9\u0631 \u06a9\u06d2 \u0641\u0631\u06cc \u0628\u06cc\u0644\u0646\u0633 \u062d\u0627\u0635\u0644 \u06a9\u0631\u06cc\u06ba ... \u000ahttps://42.slde.io/527657ce\u000a\u0627\u06af\u0631 \u0622\u067e \u0633\u0648\u0686 \u0631\u0647\u06d2 \u06be\u0648 \u06a9\u06d2 \u06cc\u0647 \u0633\u0628 \u062c\u06be\u0648\u0679 \u06be\u06d2 \u0641\u0631\u0627\u0688 \u06be\u06d2 \u06be\u06cc\u06a9\u0646\u06af \u0647\u06d2 \u062a\u0648 \u0622\u067e \u0645\u062c\u06be\u06d2 \u0631\u06cc\u06a9\u0648\u06cc\u0633\u0679 \u0628\u06be\u06cc\u062c \u06a9\u0631 \u0645\u06cc\u0633\u062c \u06a9\u0631 \u0633\u06a9\u062a\u06d2 \u06be\u06cc\u06ba ... \u0634\u06a9\u0631\u06cc\u0647\u000aClick the link and download the recharge application and completed
p125
sg41
(dp126
g20
VUsman Ghani
p127
sg18
V688654934631707
p128
ssg18
V1407770832601730_1408275509217929
p129
sa(dp130
g37
V2016-10-23T06:48:08+0000
p131
sg39
VMeraj Faheem@bilal bhattNaveed Ur Rahman
p132
sg41
(dp133
g20
VTaha Mahmood
p134
sg18
V1670688236554543
p135
ssg18
V1407770832601730_1408212439224236
p136
sa(dp137
g37
V2016-10-22T21:37:32+0000
p138
sg39
VAsif Chaudhary yar yahan jana hai
p139
sg41
(dp140
g20
VSalman Ahmed
p141
sg18
V1612462052113269
p142
ssg18
V1407770832601730_1407840089261471
p143
sa(dp144
g37
V2016-10-22T21:14:30+0000
p145
sg39
VJauhar Zulfiqar
p146
sg41
(dp147
g20
VRehan Ashraf
p148
sg18
V10209121477008640
p149
ssg18
V1407770832601730_1407824315929715
p150
sa(dp151
g37
V2016-10-23T12:14:15+0000
p152
sg39
VAbdulrehman Khalid julne o \U0001f603\U0001f608
p153
sg41
(dp154
g20
VArsl Dk
p155
sg18
V1145605115532755
p156
ssg18
V1407770832601730_1408428002536013
p157
sa(dp158
g37
V2016-10-24T08:02:03+0000
p159
sg39
VWhat A Pic it is!!\u000a\u000a\u2765 Lunch Time \u25ba Explore the Beauty of Pakistan\u000a\u000a\u272a Add Close \u23e9  Explore the Beauty of Pakistan\u000a\u000a\u272a Bot Boss \u25cf  Muhammad Amir Asim\u000a\u000a\u2747 MultiBot || BotBoss.Tk \u2747
p160
sg41
(dp161
g20
VMuhammad Amir Asim
p162
sg18
V1847366448833385
p163
ssg18
V1407770832601730_1409199452458868
p164
sa(dp165
g37
V2016-10-23T01:04:03+0000
p166
sg39
VAmeer Qureshi Imran Ahmad Malik Kamran
p167
sg41
(dp168
g20
VSyed GEm
p169
sg18
V1402414569792679
p170
ssg18
V1407770832601730_1408008739244606
p171
sa(dp172
g37
V2016-10-23T04:06:59+0000
p173
sg39
VIrfan Malik Farrukh Ali Baig Kaya adventure tha \U0001f60d
p174
sg41
(dp175
g20
VRaja Sami
p176
sg18
V1130791120309239
p177
ssg18
V1407770832601730_1408114485900698
p178
sassg37
V2016-10-22T20:00:23+0000
p179
sg39
VBreath Taking View of Chitral - Prasan Road #Chitral #Pakistan
p180
sg16
Vphoto
p181
sg18
V118828831495943_1407770832601730
p182
s.