(dp0
Vreactions
p1
(dp2
Vpaging
p3
(dp4
Vcursors
p5
(dp6
Vafter
p7
VTVRBd01EQTJOVFUxT0RjMk5qRTNPakUwTnpjNE9UTTFOVGc2TWpVME1EazJNVFl4TXc9PQZDZD
p8
sVbefore
p9
VTVRBd01EQTJOVFUxT0RjMk5qRTNPakUwTnpjNE9UTTFOVGc2TWpVME1EazJNVFl4TXc9PQZDZD
p10
ssVnext
p11
Vhttps://graph.facebook.com/v2.6/118828831495943_1413928831985930/reactions?access_token=599965930180946%7C575aa5390a4589483de7f8cf99702788&limit=1&after=TVRBd01EQTJOVFUxT0RjMk5qRTNPakUwTnpjNE9UTTFOVGc2TWpVME1EazJNVFl4TXc9PQZDZD
p12
ssVdata
p13
(lp14
(dp15
Vtype
p16
VLIKE
p17
sVid
p18
V1867038946857950
p19
sVname
p20
VAin Zahra
p21
sassg20
VTimeline Photos
p22
sVshares
p23
(dp24
Vcount
p25
I99
ssVlink
p26
Vhttps://www.facebook.com/ExplorePakistan/photos/a.118837968161696.8199.118828831495943/1413928831985930/?type=3
p27
sVcomments
p28
(dp29
g3
(dp30
g5
(dp31
g7
VMQZDZD
p32
sg9
VNQZDZD
p33
sssg13
(lp34
(dp35
Vcreated_time
p36
V2016-10-29T05:35:34+0000
p37
sVmessage
p38
VDon't tell me it's the same guy I met around naran on his bicycle travelling up north. The last I saw him was a few kilometers before babusar pass around 2nd Oct.
p39
sVfrom
p40
(dp41
g20
VAli Hamza
p42
sg18
V10153917443080308
p43
ssg18
V1413928831985930_1414540928591387
p44
sa(dp45
g36
V2016-10-30T02:29:45+0000
p46
sg38
VYes this is...
p47
sg40
(dp48
g20
VSyed Jazib Ali Naqvi
p49
sg18
V930637740401011
p50
ssg18
V1413928831985930_1415678948477585
p51
sa(dp52
g36
V2016-10-28T17:47:39+0000
p53
sg38
V\u067e\u0627\u0633\u0648 \u06a9\u0648\u0646\u0632
p54
sg40
(dp55
g20
VBilal Hussain Mian
p56
sg18
V10210647261808837
p57
ssg18
V1413928831985930_1413971978648282
p58
sa(dp59
g36
V2016-10-29T05:58:33+0000
p60
sg38
VPassu <3
p61
sg40
(dp62
g20
VUsama Khalid
p63
sg18
V1065944786836750
p64
ssg18
V1413928831985930_1414552728590207
p65
sa(dp66
g36
V2016-10-29T20:18:54+0000
p67
sg38
V\U0001f495\U0001f49a\U0001f1f5\U0001f1f0
p68
sg40
(dp69
g20
VN Farrukh Sheikh
p70
sg18
V282262642174425
p71
ssg18
V1413928831985930_1415338231844990
p72
sassg36
V2016-10-28T17:07:24+0000
p73
sg38
VKKH #Pakistan
p74
sg16
Vphoto
p75
sg18
V118828831495943_1413928831985930
p76
s.