(dp0
Vreactions
p1
(dp2
Vpaging
p3
(dp4
Vcursors
p5
(dp6
Vafter
p7
VTVRBd01EQTVNREExT1RBNE5EVXhPakUwTnpjNE1qSTVORGs2TWpVME1EazJNVFl4TXc9PQZDZD
p8
sVbefore
p9
VTVRBd01EQTVNREExT1RBNE5EVXhPakUwTnpjNE1qSTVORGs2TWpVME1EazJNVFl4TXc9PQZDZD
p10
ssVnext
p11
Vhttps://graph.facebook.com/v2.6/118828831495943_1407666675945479/reactions?access_token=599965930180946%7C575aa5390a4589483de7f8cf99702788&limit=1&after=TVRBd01EQTVNREExT1RBNE5EVXhPakUwTnpjNE1qSTVORGs2TWpVME1EazJNVFl4TXc9PQZDZD
p12
ssVdata
p13
(lp14
(dp15
Vtype
p16
VLIKE
p17
sVid
p18
V1670278143282366
p19
sVname
p20
VShair Khan
p21
sassg20
VTimeline Photos
p22
sVshares
p23
(dp24
Vcount
p25
I38
ssVlink
p26
Vhttps://www.facebook.com/ExplorePakistan/photos/a.118837968161696.8199.118828831495943/1407666675945479/?type=3
p27
sVcomments
p28
(dp29
g3
(dp30
g5
(dp31
g7
VMQZDZD
p32
sg9
VNQZDZD
p33
sssg13
(lp34
(dp35
Vcreated_time
p36
V2016-10-22T19:43:03+0000
p37
sVmessage
p38
VVery beautiful, Ma Shaa Allah!!!
p39
sVfrom
p40
(dp41
g20
VQuaideazam Iqbal
p42
sg18
V1779926222266063
p43
ssg18
V1407666675945479_1407758829269597
p44
sa(dp45
g36
V2016-10-22T18:42:34+0000
p46
sg38
VI didn't see this river on upper neelam \U0001f914
p47
sg40
(dp48
g20
VAli Shiekh
p49
sg18
V10153820876446401
p50
ssg18
V1407666675945479_1407694132609400
p51
sa(dp52
g36
V2016-10-23T17:48:39+0000
p53
sg38
VMuhammad Shoaib Hassan, Muhammad Ramzan, Arslan Iqbal, Ahsan Noor
p54
sg40
(dp55
g20
VNazir Khan Tinauli
p56
sg18
V886093461522157
p57
ssg18
V1407666675945479_1408678545844292
p58
sa(dp59
g36
V2016-10-24T07:09:32+0000
p60
sg38
VMuhammad Hashim
p61
sg40
(dp62
g20
VTaseen Mughal
p63
sg18
V1720621404860205
p64
ssg18
V1407666675945479_1409176522461161
p65
sa(dp66
g36
V2016-10-23T04:02:35+0000
p67
sg38
VMehwar Ayaz Rao
p68
sg40
(dp69
g20
VAyaz Ahmad
p70
sg18
V1298536430198823
p71
ssg18
V1407666675945479_1408111509234329
p72
sassg36
V2016-10-22T18:02:51+0000
p73
sg38
V#JANWAI..... Upper Neelam Valley\u000a#Kashmir #Pakiatan\u000a\u000aPhoto: Taseen Mughal
p74
sg16
Vphoto
p75
sg18
V118828831495943_1407666675945479
p76
s.