(dp0
Vreactions
p1
(dp2
Vpaging
p3
(dp4
Vcursors
p5
(dp6
Vafter
p7
VTVRBd01ERXdNRFUxTWpNMk9EWTJPakUwTnpjM01UTXhOalU2TWpVME1EazJNVFl4TXc9PQZDZD
p8
sVbefore
p9
VTVRBd01ERXdNRFUxTWpNMk9EWTJPakUwTnpjM01UTXhOalU2TWpVME1EazJNVFl4TXc9PQZDZD
p10
ssVnext
p11
Vhttps://graph.facebook.com/v2.6/118828831495943_1391514817560665/reactions?access_token=599965930180946%7C575aa5390a4589483de7f8cf99702788&summary=true&limit=1&after=TVRBd01ERXdNRFUxTWpNMk9EWTJPakUwTnpjM01UTXhOalU2TWpVME1EazJNVFl4TXc9PQZDZD
p12
ssVdata
p13
(lp14
(dp15
Vtype
p16
VLIKE
p17
sVid
p18
V364818280530010
p19
sVname
p20
VFida Hussain
p21
sasVsummary
p22
(dp23
Vtotal_count
p24
I625
sVviewer_reaction
p25
VNONE
p26
sssg20
VTimeline Photos
p27
sVshares
p28
(dp29
Vcount
p30
I42
ssVlink
p31
Vhttps://www.facebook.com/ExplorePakistan/photos/a.118837968161696.8199.118828831495943/1391514817560665/?type=3
p32
sVcomments
p33
(dp34
g3
(dp35
g5
(dp36
g7
VMQZDZD
p37
sg9
VNQZDZD
p38
sssg13
(lp39
(dp40
Vcreated_time
p41
V2016-10-07T15:14:36+0000
p42
sVmessage
p43
VLove u Pakistan, Khyber Pakhtunkhwa
p44
sVfrom
p45
(dp46
g20
VSheri Gul
p47
sg18
V1829352193969158
p48
ssg18
V1391514817560665_1391521150893365
p49
sa(dp50
g41
V2016-10-07T16:18:56+0000
p51
sg43
VLove u Pakistan Khyber Pakhtunkhwa Brogil
p52
sg45
(dp53
g20
VSheri Gul
p54
sg18
V1829352193969158
p55
ssg18
V1391514817560665_1391555884223225
p56
sa(dp57
g41
V2016-10-07T16:18:06+0000
p58
sg43
VLove u Pakistan Khyber Pakhtunkhwa Brogil
p59
sg45
(dp60
g20
VSheri Gul
p61
sg18
V1829352193969158
p62
ssg18
V1391514817560665_1391555594223254
p63
sa(dp64
g41
V2016-10-07T16:30:02+0000
p65
sg43
Vyes my Love Pakistan so .....
p66
sg45
(dp67
g20
VSanam Zeb
p68
sg18
V328804570830393
p69
ssg18
V1391514817560665_1391562030889277
p70
sa(dp71
g41
V2016-10-07T15:47:39+0000
p72
sg43
VAyesha Sheikh
p73
sg45
(dp74
g20
VSalman Bhutta
p75
sg18
V1100091796765030
p76
ssg18
V1391514817560665_1391539130891567
p77
sassg41
V2016-10-07T15:00:35+0000
p78
sg43
VBeautiful Broghil #KPK #Pakistan\u000a\u000aPicture : Zahid Bhatti
p79
sg16
Vphoto
p80
sg18
V118828831495943_1391514817560665
p81
s.