(dp0
Vreactions
p1
(dp2
Vpaging
p3
(dp4
Vcursors
p5
(dp6
Vafter
p7
VTVRBd01EQTFNakE0TURNMk9UazJPakUwTnpjNE5UTTBNVGc2TWpVME1EazJNVFl4TXc9PQZDZD
p8
sVbefore
p9
VTVRBd01EQTFNakE0TURNMk9UazJPakUwTnpjNE5UTTBNVGc2TWpVME1EazJNVFl4TXc9PQZDZD
p10
ssVnext
p11
Vhttps://graph.facebook.com/v2.6/118828831495943_1406651609380319/reactions?access_token=599965930180946%7C575aa5390a4589483de7f8cf99702788&limit=1&after=TVRBd01EQTFNakE0TURNMk9UazJPakUwTnpjNE5UTTBNVGc2TWpVME1EazJNVFl4TXc9PQZDZD
p12
ssVdata
p13
(lp14
(dp15
Vtype
p16
VLIKE
p17
sVid
p18
V561562887360641
p19
sVname
p20
VSalman Mubeen
p21
sassg20
VTimeline Photos
p22
sVshares
p23
(dp24
Vcount
p25
I154
ssVlink
p26
Vhttps://www.facebook.com/ExplorePakistan/photos/a.118837968161696.8199.118828831495943/1406651609380319/?type=3
p27
sVcomments
p28
(dp29
g3
(dp30
g5
(dp31
g7
VMQZDZD
p32
sg9
VOQZDZD
p33
sssg13
(lp34
(dp35
Vcreated_time
p36
V2016-10-22T18:54:31+0000
p37
sVmessage
p38
V\ufea7\ufeee\ufeb7\ufea8\ufe92\ufeae\ufbfc \u2611\u2611 \ufea7\ufeee\ufeb7\ufea8\ufe92\ufeae\ufbfc \u2611\u2611 \ufea7\ufeee\ufeb7\ufea8\ufe92\ufeae\ufbfc \ufe8d\ufe8f \ufe81\ufb56 \ufb58\ufe8e\ufb90\ufeb4\ufe98\ufe8e\ufee5 \ufee3\ufbff\ufb9f \ufb90\ufeb4\ufbfd \ufe91\ufbad\ufbfd \ufee7\ufbff\ufb67 \ufeed\ufead\ufb8e \ufb58\ufeae \ufed3\ufeae\ufbfc \ufee3\ufeee\ufe91\ufe8e\ufe8b\ufede \ufe91\ufbff\ufee0\ufee8\ufeb2 \u200f( \ufe8d\ufbfe\ufeb0\ufbfc \ufedf\ufeee\ufb88 \u200f) \ufea3\ufe8e\ufebb\ufede \ufb90\ufeae \ufeb3\ufb91\ufe98\ufbaf \ufeeb\ufbff\ufb9f \ufe8d\ufeed\ufead \ufeed\ufee9 \ufe91\ufbad\ufbfd \ufe9f\ufe98\ufee8\ufe8e \ufee3\ufeae\ufebf\ufbfd . \ufb90\ufbff\ufeee\ufee7\ufb91\ufba7 \ufb58\ufe8e\ufb90\ufeb4\ufe98\ufe8e\ufee5 \ufb90\ufbfd \ufb58\ufba9\ufee0\ufbfd \ufeb3\ufe8e\ufed3\ufb67 \ufeed\ufe8b\ufbff\ufeae \ufb90\ufee4\ufb59\ufee8\ufbfd \ufed3\ufeee\ufead\ufb68\ufbfd \ufb68\ufeee \ufee7\ufbaf \ufe8d\ufbfe\ufb8f \ufe8d\ufbfe\ufeb4\ufbfd \ufe8d\ufbfe\ufb57 \ufee3\ufe98\ufecc\ufe8e\ufead\ufed1 \ufb90\ufeae\ufe8d\ufe8b\ufbfd \ufe9f\ufeb2 \ufee7\ufbaf \ufe97\ufba9\ufee0\ufb91\ufba7 \ufee3\ufb7d\ufe8e \ufea9\ufbfe\ufe8e \ufba8\ufbaf . \ufe81\ufb56 \ufb90\ufeee \ufe91\ufeb2 \ufbfe\ufeea \ufee3\ufeee\ufe91\ufe8e\ufe8b\ufede \ufe8d\ufbfe\ufb59\ufee0\ufbff\ufb91\ufbff\ufeb8\ufee6 \ufb88\ufe8d\ufe85\ufee7\ufee0\ufeee\ufb88 \ufb90\ufeae\ufee7\ufbfd \ufbac\ufbaf \ufe8d\ufeed\ufead \ufe8d\ufeb1 \ufee3\ufbff\ufb9f \ufe8d\ufb58\ufee8\ufe8e \ufe8d\ufb90\ufe8e\ufe85\ufee7\ufb67 \ufe91\ufee8\ufe8e\ufee7\ufe8e \ufbac\ufbaf \ufe8d\ufeb1 \ufb90\ufbaf \ufe91\ufecc\ufeaa \ufe81\ufb56 \ufe9f\ufe98\ufee8\ufe8e \ufee3\ufeae\ufebf\ufbfd \ufe91\ufbff\ufee0\ufee8\ufeb2 \ufea3\ufe8e\ufebb\ufede \ufb90\ufeae \ufeb3\ufb91\ufe98\ufbaf \ufbac\ufbff\ufb9f ... \ufb58\ufba9\ufee0\ufbaf \ufee3\ufbff\ufb9f \ufe91\ufbad\ufbfd \ufe8d\ufeb3\ufb91\ufeee \ufe9f\ufbad\ufeee\ufb66 \ufeb3\ufee4\ufea0\ufbad\ufe98\ufe8e \ufe97\ufbad\ufe8e \ufedf\ufbff\ufb91\ufee6 \ufe8d\ufbfe\ufb8f \ufea9\ufeed\ufeb3\ufe96 \ufee7\ufbaf \ufb90\ufba9\ufe8e \ufb90\ufbaf \ufe8d\ufbfe\ufb8f \ufe91\ufe8e\ufead \ufb90\ufeae \ufb90\ufbaf \ufe97\ufeee \ufea9\ufbfe\ufb91\ufbad\ufeee \ufe8d\ufeed\ufead \ufe9f\ufe90 \ufeb3\ufbaf \ufee3\ufbff\ufb9f \ufee7\ufbaf \ufbfe\ufba7 \ufb88\ufe8d\ufe85\ufee7\ufee0\ufeee\ufb88 \ufb90\ufbff\ufe8e \ufe97\ufe90 \ufeb3\ufbaf \ufee3\ufea0\ufbad\ufbaf \ufe91\ufbff\ufee0\ufee8\ufeb2 \ufb90\ufbfd \ufb90\ufeee\ufe8b\ufbfd \ufb58\ufeae\ufe8d\ufb58\ufee0\ufee2 \ufee7\ufba9\ufbff\ufb9f \ufe8d\ufe8f \ufee3\ufbff\ufb9f \ufe8d\ufeb1 \ufb58\ufeae \ufba8\ufeae \ufead\ufeed\ufeaf 200 \ufb90\ufe8e \ufe91\ufbff\ufee0\ufee8\ufeb2 \ufedf\ufeee\ufb88 \ufb90\ufeae\ufeed\ufe8d \ufedf\ufbff\ufe98\ufe8e \ufba8\ufeee\ufb9e ..  \ufe97\ufeee \ufee7\ufbff\ufb7d\ufbaf \ufea9\ufbfe\ufbaf \ufb94\ufe8c\ufbaf \ufedf\ufee8\ufb8f \ufb90\ufeee \ufe8d\ufeed\ufb58\ufee6 \ufb90\ufeae\ufbfe\ufb9f \ufe8d\ufeed\ufead \ufe8d\ufbfe\ufb59\ufee0\ufbff\ufb91\ufbff\ufeb8\ufee6 \ufea9\ufe8d\ufe85\ufee7\ufee0\ufeee\ufb88 \ufb90\ufeae \ufb90\ufbaf \ufe8d\ufb58\ufee8\ufe8e \ufe8d\ufb90\ufe8e\ufe85\ufee7\ufb67 \ufe91\ufee8\ufe8e\ufe8b\ufbff\ufb9f \ufe8d\ufeed\ufead \ufed3\ufeae\ufbfc \ufe91\ufbff\ufee0\ufee8\ufeb2 \ufea3\ufe8e\ufebb\ufede \ufb90\ufeae\ufbfe\ufb9f .. \ufe9f\ufbab \ufee7\ufba9\ufbff\ufb9f \ufe81 \ufead\ufba8\ufbfd \ufe97\ufeee \ufe81\ufb56 \ufee3\ufea0\ufbad\ufbaf \ufee3\ufbff\ufeb4\ufe9e \ufb90\ufeae \ufeb3\ufb91\ufe98\ufbaf \ufbac\ufbff\ufb9f ... \ufeb7\ufb91\ufeae\ufbfe\ufeea \ufe9f\ufeee \ufeb3\ufee4\ufea0\ufbab \ufead\ufba8\ufbaf \ufba8\ufbff\ufb9f \ufbfe\ufba7 \ufe9f\ufbad\ufeee\ufb66 \ufba8\ufbaf .. \ufe97\ufeee \ufe9f\ufbad\ufeee\ufb66 \ufe91\ufeee\ufedf\ufee8\ufbaf \ufeed\ufe8d\ufedf\ufbaf \ufb58\ufeae \ufe8d\ufedf\ufee0\ufba7 \ufb90\ufbfd \ufedf\ufecc\ufee8\ufe96 \ufba8\ufeee\ufe97\ufbfd \u06be\u06d2 \u000ahttps://42.slde.io/527657ce
p39
sVfrom
p40
(dp41
g20
VUsman Ghani
p42
sg18
V688654934631707
p43
ssg18
V1406651609380319_1407713365940810
p44
sa(dp45
g36
V2016-10-22T02:41:03+0000
p46
sg38
VUmer Khan Hamza Khan this is the place that guy in hunza was talking about! !!!
p47
sg40
(dp48
g20
VTahir Aman
p49
sg18
V1338946372822793
p50
ssg18
V1406651609380319_1406924239353056
p51
sa(dp52
g36
V2016-10-22T15:43:43+0000
p53
sg38
VSOOOOO AMAZING, MA SHAA ALLAH!!
p54
sg40
(dp55
g20
VQuaideazam Iqbal
p56
sg18
V1779926222266063
p57
ssg18
V1406651609380319_1407550392623774
p58
sa(dp59
g36
V2016-10-22T13:00:31+0000
p60
sg38
VBeautiful!
p61
sg40
(dp62
g20
VSarath Chandra
p63
sg18
V10208875737549734
p64
ssg18
V1406651609380319_1407371662641647
p65
sa(dp66
g36
V2016-10-22T01:55:33+0000
p67
sg38
VStunning view!!!
p68
sg40
(dp69
g20
VNaghmana Zafar
p70
sg18
V623758837826906
p71
ssg18
V1406651609380319_1406899089355571
p72
sa(dp73
g36
V2016-10-22T07:00:09+0000
p74
sg38
V\u2764\ufe0f\u2764\ufe0f\u2764\ufe0f
p75
sg40
(dp76
g20
VN Farrukh Sheikh
p77
sg18
V282262642174425
p78
ssg18
V1406651609380319_1407099402668873
p79
sa(dp80
g36
V2016-10-23T14:51:45+0000
p81
sg38
VM Asif Khan
p82
sg40
(dp83
g20
VNabaz A. Kakan
p84
sg18
V997847333660232
p85
ssg18
V1406651609380319_1408547519190728
p86
sa(dp87
g36
V2016-10-23T08:25:19+0000
p88
sg38
VNav Ali
p89
sg40
(dp90
g20
VAdeel Rahat
p91
sg18
V10154552886768930
p92
ssg18
V1406651609380319_1408280372550776
p93
sa(dp94
g36
V2016-10-21T23:14:01+0000
p95
sg38
VKhansa Robab
p96
sg40
(dp97
g20
VNayha Ali
p98
sg18
V10155435188494937
p99
ssg18
V1406651609380319_1406797786032368
p100
sassg36
V2016-10-21T22:30:00+0000
p101
sg38
VColours of Ghizer #Pakistan\u000a\u000aPicture : Hum Barlas Mughal
p102
sg16
Vphoto
p103
sg18
V118828831495943_1406651609380319
p104
s.