(dp0
Vreactions
p1
(dp2
Vpaging
p3
(dp4
Vcursors
p5
(dp6
Vafter
p7
VTVRBd01EQTFNakE0TURNMk9UazJPakUwTnpjNE5UTXpPVFk2TWpVME1EazJNVFl4TXc9PQZDZD
p8
sVbefore
p9
VTVRBd01EQTFNakE0TURNMk9UazJPakUwTnpjNE5UTXpPVFk2TWpVME1EazJNVFl4TXc9PQZDZD
p10
ssVnext
p11
Vhttps://graph.facebook.com/v2.6/118828831495943_1407614242617389/reactions?access_token=599965930180946%7C575aa5390a4589483de7f8cf99702788&limit=1&after=TVRBd01EQTFNakE0TURNMk9UazJPakUwTnpjNE5UTXpPVFk2TWpVME1EazJNVFl4TXc9PQZDZD
p12
ssVdata
p13
(lp14
(dp15
Vtype
p16
VLIKE
p17
sVid
p18
V561562887360641
p19
sVname
p20
VSalman Mubeen
p21
sassg20
VTimeline Photos
p22
sVshares
p23
(dp24
Vcount
p25
I192
ssVlink
p26
Vhttps://www.facebook.com/ExplorePakistan/photos/a.118837968161696.8199.118828831495943/1407614242617389/?type=3
p27
sVcomments
p28
(dp29
g3
(dp30
g5
(dp31
g7
VMQZDZD
p32
sg9
VOQZDZD
p33
sssg13
(lp34
(dp35
Vcreated_time
p36
V2016-10-22T17:05:02+0000
p37
sVmessage
p38
VNo doubt Heaven on earth ..... piece of beauty ..thanx Allah for giving us so much ......
p39
sVfrom
p40
(dp41
g20
VMuhammad Ali
p42
sg18
V10155484189074478
p43
ssg18
V1407614242617389_1407621482616665
p44
sa(dp45
g36
V2016-10-22T16:56:42+0000
p46
sg38
VOne of my dream lake
p47
sg40
(dp48
g20
VShoaib M Khan
p49
sg18
V1178039962239595
p50
ssg18
V1407614242617389_1407617049283775
p51
sa(dp52
g36
V2016-10-22T17:06:27+0000
p53
sg38
VBeautiful
p54
sg40
(dp55
g20
VHasaan Anna
p56
sg18
V10154659022278559
p57
ssg18
V1407614242617389_1407622199283260
p58
sa(dp59
g36
V2016-10-22T17:27:17+0000
p60
sg38
VKoi free me lay jaye yar
p61
sg40
(dp62
g20
VM. Khurram Siddiqui
p63
sg18
V10154030176738097
p64
ssg18
V1407614242617389_1407637475948399
p65
sa(dp66
g36
V2016-10-22T16:55:43+0000
p67
sg38
VMuhammad Saqib Allah says " aur tm Apna Rab ki kaunsi kaunsi namatoon ko jhutlao ga" GB naimat e the jonnah dakhna di Naveed Soomro
p68
sg40
(dp69
g20
VMuhammad Umair Altaf
p70
sg18
V10208892601725691
p71
ssg18
V1407614242617389_1407616545950492
p72
sa(dp73
g36
V2016-10-22T17:04:25+0000
p74
sg38
VSoHaib AhMed
p75
sg40
(dp76
g20
VFaraz Hussain
p77
sg18
V773992412739625
p78
ssg18
V1407614242617389_1407621105950036
p79
sa(dp80
g36
V2016-10-22T18:24:30+0000
p81
sg38
V
p82
sg40
(dp83
g20
VRaja Ilyas Minhas
p84
sg18
V1240492836011478
p85
ssg18
V1407614242617389_1407681819277298
p86
sa(dp87
g36
V2016-10-22T19:43:40+0000
p88
sg38
VBohat khubsurat, Ma Shaa Allah!!!
p89
sg40
(dp90
g20
VQuaideazam Iqbal
p91
sg18
V1779926222266063
p92
ssg18
V1407614242617389_1407759285936218
p93
sa(dp94
g36
V2016-10-25T10:51:17+0000
p95
sg38
VNice
p96
sg40
(dp97
g20
VAnila Azhar
p98
sg18
V406700083052744
p99
ssg18
V1407614242617389_1410282995683847
p100
sassg36
V2016-10-22T16:52:55+0000
p101
sg38
VRainbow Lake #Minimarg #Astore #Pakistan\u000a\u000aPicture : Attiq Ghouri
p102
sg16
Vphoto
p103
sg18
V118828831495943_1407614242617389
p104
s.