(dp0
Vreactions
p1
(dp2
Vpaging
p3
(dp4
Vcursors
p5
(dp6
Vafter
p7
VTVRBd01EQTVNREExT1RBNE5EVXhPakUwTnpjNE1qSTVNems2TWpVME1EazJNVFl4TXc9PQZDZD
p8
sVbefore
p9
VTVRBd01EQTVNREExT1RBNE5EVXhPakUwTnpjNE1qSTVNems2TWpVME1EazJNVFl4TXc9PQZDZD
p10
ssVnext
p11
Vhttps://graph.facebook.com/v2.6/118828831495943_1408706232508190/reactions?access_token=599965930180946%7C575aa5390a4589483de7f8cf99702788&limit=1&after=TVRBd01EQTVNREExT1RBNE5EVXhPakUwTnpjNE1qSTVNems2TWpVME1EazJNVFl4TXc9PQZDZD
p12
ssVdata
p13
(lp14
(dp15
Vtype
p16
VLIKE
p17
sVid
p18
V1670278143282366
p19
sVname
p20
VShair Khan
p21
sassg20
VTimeline Photos
p22
sVshares
p23
(dp24
Vcount
p25
I143
ssVlink
p26
Vhttps://www.facebook.com/ExplorePakistan/photos/a.118837968161696.8199.118828831495943/1408706232508190/?type=3
p27
sVcomments
p28
(dp29
g3
(dp30
g5
(dp31
g7
VMQZDZD
p32
sg9
VMTAZD
p33
sssg13
(lp34
(dp35
Vcreated_time
p36
V2016-10-23T19:21:01+0000
p37
sVmessage
p38
Ves bellisimo
p39
sVfrom
p40
(dp41
g20
VNorma Acosta
p42
sg18
V1787482831518994
p43
ssg18
V1408706232508190_1408754085836738
p44
sa(dp45
g36
V2016-10-23T21:20:18+0000
p46
sg38
VAre these yaks?
p47
sg40
(dp48
g20
VPritee Kathpal
p49
sg18
V1755107278074087
p50
ssg18
V1408706232508190_1408852549160225
p51
sa(dp52
g36
V2016-10-23T19:35:27+0000
p53
sg38
VLovely
p54
sg40
(dp55
g20
VHasaan Anna
p56
sg18
V10154659022278559
p57
ssg18
V1408706232508190_1408767409168739
p58
sa(dp59
g36
V2016-10-23T20:53:16+0000
p60
sg38
Vphander and langer, both are beautiful places.
p61
sg40
(dp62
g20
VAbdullah Muhammad Ali
p63
sg18
V10207264470145231
p64
ssg18
V1408706232508190_1408828082496005
p65
sa(dp66
g36
V2016-10-24T16:01:04+0000
p67
sg38
VBeautiful place
p68
sg40
(dp69
g20
VAnila Azhar
p70
sg18
V406700083052744
p71
ssg18
V1408706232508190_1409516532427160
p72
sa(dp73
g36
V2016-10-24T01:48:12+0000
p74
sg38
VZaberdasttt
p75
sg40
(dp76
g20
VFarah Naz
p77
sg18
V191932184590228
p78
ssg18
V1408706232508190_1408993982479415
p79
sa(dp80
g36
V2016-10-24T04:05:20+0000
p81
sg38
VLovely
p82
sg40
(dp83
g20
VEdna Tamargo Piano
p84
sg18
V1698865810368035
p85
ssg18
V1408706232508190_1409085599136920
p86
sa(dp87
g36
V2016-10-24T07:47:03+0000
p88
sg38
VAmbreen Saeed
p89
sg40
(dp90
g20
VRafia Saeed
p91
sg18
V1414199275272047
p92
ssg18
V1408706232508190_1409189882459825
p93
sa(dp94
g36
V2016-10-23T19:23:17+0000
p95
sg38
VImran Mujahid
p96
sg40
(dp97
g20
VMoin- Uddin
p98
sg18
V1437209029640639
p99
ssg18
V1408706232508190_1408755485836598
p100
sa(dp101
g36
V2016-10-24T01:29:54+0000
p102
sg38
VXee Shan Azam Sulehri
p103
sg40
(dp104
g20
VMohammad Fasih
p105
sg18
V1853894144843225
p106
ssg18
V1408706232508190_1408983832480430
p107
sassg36
V2016-10-23T18:13:58+0000
p108
sg38
V#Langar in #Ghizer valley in north #Pakistan. It is very much near to the #Shandur pass and has a wonderful landscape...
p109
sg16
Vphoto
p110
sg18
V118828831495943_1408706232508190
p111
s.