(dp0
Vreactions
p1
(dp2
Vpaging
p3
(dp4
Vcursors
p5
(dp6
Vafter
p7
VTVRBd01EQTROekF5T1RRME5EazFPakUwTnpjNE5ERTBNakU2TWpVME1EazJNVFl4TXc9PQZDZD
p8
sVbefore
p9
VTVRBd01EQTROekF5T1RRME5EazFPakUwTnpjNE5ERTBNakU2TWpVME1EazJNVFl4TXc9PQZDZD
p10
ssVnext
p11
Vhttps://graph.facebook.com/v2.6/118828831495943_1405300416182105/reactions?access_token=599965930180946%7C575aa5390a4589483de7f8cf99702788&limit=1&after=TVRBd01EQTROekF5T1RRME5EazFPakUwTnpjNE5ERTBNakU2TWpVME1EazJNVFl4TXc9PQZDZD
p12
ssVdata
p13
(lp14
(dp15
Vtype
p16
VLIKE
p17
sVid
p18
V1624136941219722
p19
sVname
p20
VSyed Turab Haider Shah
p21
sassg20
VTimeline Photos
p22
sVshares
p23
(dp24
Vcount
p25
I154
ssVlink
p26
Vhttps://www.facebook.com/ExplorePakistan/photos/a.118837968161696.8199.118828831495943/1405300416182105/?type=3
p27
sVcomments
p28
(dp29
g3
(dp30
g5
(dp31
g7
VMQZDZD
p32
sg9
VMTMZD
p33
sssg13
(lp34
(dp35
Vcreated_time
p36
V2016-10-20T19:28:40+0000
p37
sVmessage
p38
VMost beautiful place :)
p39
sVfrom
p40
(dp41
g20
VSarah Jabran
p42
sg18
V686998124785973
p43
ssg18
V1405300416182105_1405557892823024
p44
sa(dp45
g36
V2016-10-21T05:22:13+0000
p46
sg38
VRaheel Khan how nice does this place look
p47
sg40
(dp48
g20
VNakasha Ali
p49
sg18
V10154770437363159
p50
ssg18
V1405300416182105_1405970429448437
p51
sa(dp52
g36
V2016-10-21T07:57:13+0000
p53
sg38
VSooooo wanna go there.. Will soon Insha'Allah!
p54
sg40
(dp55
g20
VSaba Ajwad
p56
sg18
V10153687965456847
p57
ssg18
V1405300416182105_1406064066105740
p58
sa(dp59
g36
V2016-10-20T21:53:42+0000
p60
sg38
VBeautiful MashaAllah
p61
sg40
(dp62
g20
VMemee Janjua
p63
sg18
V1682698945313547
p64
ssg18
V1405300416182105_1405697049475775
p65
sa(dp66
g36
V2016-10-20T18:27:04+0000
p67
sg38
V\U0001f44c
p68
sg40
(dp69
g20
VSyed Asad Shah
p70
sg18
V1138930439528874
p71
ssg18
V1405300416182105_1405516249493855
p72
sa(dp73
g36
V2016-10-22T17:58:24+0000
p74
sg38
VThanks for Sharing... :)
p75
sg40
(dp76
g20
VZia Ul Haq
p77
sg18
V10154627792134795
p78
ssg18
V1405300416182105_1407662329279247
p79
sa(dp80
g36
V2016-10-20T13:19:24+0000
p81
sg38
V
p82
sg40
(dp83
g20
VNabeel Ashraf
p84
sg18
V1869911786570816
p85
ssg18
V1405300416182105_1405310459514434
p86
sa(dp87
g36
V2016-10-25T13:33:05+0000
p88
sg38
VWonderful
p89
sg40
(dp90
g20
VAnila Azhar
p91
sg18
V406700083052744
p92
ssg18
V1405300416182105_1410397972339016
p93
sa(dp94
g36
V2016-10-20T18:11:38+0000
p95
sg38
V\u0627\u0644\u0644\u06c1 \u062a\u06cc\u0631\u0627 \u0634\u06a9\u0631
p96
sg40
(dp97
g20
VN Farrukh Sheikh
p98
sg18
V282262642174425
p99
ssg18
V1405300416182105_1405505746161572
p100
sa(dp101
g36
V2016-10-20T21:21:29+0000
p102
sg38
VKhansa Robab we gon stay here
p103
sg40
(dp104
g20
VNayha Ali
p105
sg18
V10155435188494937
p106
ssg18
V1405300416182105_1405665992812214
p107
sa(dp108
g36
V2016-10-22T17:58:39+0000
p109
sg38
VSyed Bilal Javaid Atif Malik Irfan Javed
p110
sg40
(dp111
g20
VZia Ul Haq
p112
sg18
V10154627792134795
p113
ssg18
V1405300416182105_1407662459279234
p114
sa(dp115
g36
V2016-10-20T19:25:02+0000
p116
sg38
VFahad Saleem
p117
sg40
(dp118
g20
VMahwish Fahad
p119
sg18
V10157678021490174
p120
ssg18
V1405300416182105_1405555389489941
p121
sa(dp122
g36
V2016-10-20T16:18:29+0000
p123
sg38
VQaiser Abbas
p124
sg40
(dp125
g20
VTaniya Qaiser
p126
sg18
V1602550986714192
p127
ssg18
V1405300416182105_1405428506169296
p128
sassg36
V2016-10-20T13:02:06+0000
p129
sg38
V#Shangrila Resort Lower #Kachura lake\u000a#Skardu... #Baltistan #Pakistan\u000a\u000aPhoto: Zia Ul Haq
p130
sg16
Vphoto
p131
sg18
V118828831495943_1405300416182105
p132
s.