(dp0
Vreactions
p1
(dp2
Vpaging
p3
(dp4
Vcursors
p5
(dp6
Vafter
p7
VTVRBd01EQTROekF5T1RRME5EazFPakUwTnpjNE5ERTFOakk2TWpVME1EazJNVFl4TXc9PQZDZD
p8
sVbefore
p9
VTVRBd01EQTROekF5T1RRME5EazFPakUwTnpjNE5ERTFOakk2TWpVME1EazJNVFl4TXc9PQZDZD
p10
ssVnext
p11
Vhttps://graph.facebook.com/v2.6/118828831495943_1398869216825225/reactions?access_token=599965930180946%7C575aa5390a4589483de7f8cf99702788&summary=true&limit=1&after=TVRBd01EQTROekF5T1RRME5EazFPakUwTnpjNE5ERTFOakk2TWpVME1EazJNVFl4TXc9PQZDZD
p12
ssVdata
p13
(lp14
(dp15
Vtype
p16
VLIKE
p17
sVid
p18
V1624136941219722
p19
sVname
p20
VSyed Turab Haider Shah
p21
sasVsummary
p22
(dp23
Vtotal_count
p24
I2187
sVviewer_reaction
p25
VNONE
p26
sssg20
VTimeline Photos
p27
sVshares
p28
(dp29
Vcount
p30
I226
ssVlink
p31
Vhttps://www.facebook.com/ExplorePakistan/photos/a.118837968161696.8199.118828831495943/1398869216825225/?type=3
p32
sVcomments
p33
(dp34
g3
(dp35
g5
(dp36
g7
VMTAZD
p37
sg9
VMjkZD
p38
ssg11
Vhttps://graph.facebook.com/v2.6/118828831495943_1398869216825225/comments?access_token=599965930180946%7C575aa5390a4589483de7f8cf99702788&limit=20&after=MTAZD
p39
ssg13
(lp40
(dp41
Vcreated_time
p42
V2016-10-15T13:48:44+0000
p43
sVmessage
p44
Vi have spent my childhood by every evening visiting here. still remember the horrifying feelings while passing these gigantic spell ways. but now a days reaching up there is a hell of job as this area is under the security of Pak Army. Need some top level permissions and references :(
p45
sVfrom
p46
(dp47
g20
VNasir Hayat Khan
p48
sg18
V902719596528026
p49
ssg18
V1398869216825225_1399708236741323
p50
sa(dp51
g42
V2016-10-15T04:51:21+0000
p52
sg44
VHow much time it takes to reach here from Swabi?
p53
sg46
(dp54
g20
VZeeshan Khan
p55
sg18
V10207882955934014
p56
ssg18
V1398869216825225_1399318250113655
p57
sa(dp58
g42
V2016-10-14T17:57:55+0000
p59
sg44
VPretty scary
p60
sg46
(dp61
g20
VCelina Ahmad
p62
sg18
V10154137066053523
p63
ssg18
V1398869216825225_1398879743490839
p64
sa(dp65
g42
V2016-10-14T18:31:32+0000
p66
sg44
VBohot dafa dekh chuki hun ye jagha... Real my or bhi khoobsurat dhikti hy...
p67
sg46
(dp68
g20
VJavaria Jojo
p69
sg18
V1747324268866722
p70
ssg18
V1398869216825225_1398904066821740
p71
sa(dp72
g42
V2016-10-19T19:11:59+0000
p73
sg44
VMirza Riaz haripur
p74
sg46
(dp75
g20
VAsad
p76
sg18
V588126134715100
p77
ssg18
V1398869216825225_1404610189584461
p78
sa(dp79
g42
V2016-10-16T22:40:47+0000
p80
sg44
VLived here for few years. !979 . Beautiful Indus River.
p81
sg46
(dp82
g20
VFatima Hick
p83
sg18
V891432550991736
p84
ssg18
V1398869216825225_1401227159922764
p85
sa(dp86
g42
V2016-10-15T01:58:52+0000
p87
sg44
VZilla SWABI or HARIPUR?
p88
sg46
(dp89
g20
VAbbas Khan
p90
sg18
V1138866702856837
p91
ssg18
V1398869216825225_1399199176792229
p92
sa(dp93
g42
V2016-10-14T18:02:41+0000
p94
sg44
V\U0001f496
p95
sg46
(dp96
g20
VPareeshay Noor
p97
sg18
V184310755358858
p98
ssg18
V1398869216825225_1398882406823906
p99
sa(dp100
g42
V2016-10-15T05:15:50+0000
p101
sg44
V
p102
sg46
(dp103
g20
VEdna Tamargo Piano
p104
sg18
V1698865810368035
p105
ssg18
V1398869216825225_1399336003445213
p106
sa(dp107
g42
V2016-10-16T04:37:11+0000
p108
sg44
VI guess it is world's largest earth filled dam
p109
sg46
(dp110
g20
VAamir Matloob
p111
sg18
V1175420482549881
p112
ssg18
V1398869216825225_1400411883337625
p113
sa(dp114
g42
V2016-10-14T20:00:05+0000
p115
sg44
VAmazing & beautiful
p116
sg46
(dp117
g20
VMemee Janjua
p118
sg18
V1682698945313547
p119
ssg18
V1398869216825225_1398973360148144
p120
sa(dp121
g42
V2016-10-14T18:04:57+0000
p122
sg44
VBeauty <3
p123
sg46
(dp124
g20
VZeeshan Khan
p125
sg18
V10207882955934014
p126
ssg18
V1398869216825225_1398883813490432
p127
sa(dp128
g42
V2016-10-14T18:33:57+0000
p129
sg44
VThe largest rock fill dam
p130
sg46
(dp131
g20
VFarhan Sardar
p132
sg18
V10154691830228970
p133
ssg18
V1398869216825225_1398905526821594
p134
sa(dp135
g42
V2016-10-14T18:03:14+0000
p136
sg44
VAmazing
p137
sg46
(dp138
g20
VHafiz Ahmed Yousaf
p139
sg18
V214669592276952
p140
ssg18
V1398869216825225_1398882843490529
p141
sa(dp142
g42
V2016-10-15T13:29:06+0000
p143
sg44
VSo beautiful
p144
sg46
(dp145
g20
VMarilou Zamora
p146
sg18
V322050098187507
p147
ssg18
V1398869216825225_1399691253409688
p148
sa(dp149
g42
V2016-10-14T18:32:11+0000
p150
sg44
VTarbela \U0001f60d#home
p151
sg46
(dp152
g20
VFatma Khan
p153
sg18
V1113344078763806
p154
ssg18
V1398869216825225_1398904430155037
p155
sa(dp156
g42
V2016-10-14T18:40:55+0000
p157
sg44
VMy tarbela ghazi \u2764\ufe0fmissing to much
p158
sg46
(dp159
g20
VWajahat Ahmed
p160
sg18
V726826237466605
p161
ssg18
V1398869216825225_1398911300154350
p162
sa(dp163
g42
V2016-10-14T18:28:14+0000
p164
sg44
VAm living in tarbel....
p165
sg46
(dp166
g20
VJavaria Jojo
p167
sg18
V1747324268866722
p168
ssg18
V1398869216825225_1398900936822053
p169
sa(dp170
g42
V2016-10-14T17:52:45+0000
p171
sg44
V\U0001f497
p172
sg46
(dp173
g20
VMaaz Ahmad
p174
sg18
V1214255181966131
p175
ssg18
V1398869216825225_1398875453491268
p176
sa(dp177
g42
V2016-10-15T08:06:29+0000
p178
sg44
VNice
p179
sg46
(dp180
g20
VRukhsana Khan
p181
sg18
V1747273428855478
p182
ssg18
V1398869216825225_1399436136768533
p183
sassg42
V2016-10-14T17:46:44+0000
p184
sg44
VSpillway of Tarbela Dam...\u000a#Tarbela Dam is an earth fill dam located on the Indus River in Distt #Swabi & #Haripur of #Pakistan
p185
sg16
Vphoto
p186
sg18
V118828831495943_1398869216825225
p187
s.