(dp0
Vreactions
p1
(dp2
Vpaging
p3
(dp4
Vcursors
p5
(dp6
Vafter
p7
VTVRBd01ERXdNRFUxTWpNMk9EWTJPakUwTnpjM01UTXdOams2TWpVME1EazJNVFl4TXc9PQZDZD
p8
sVbefore
p9
VTVRBd01ERXdNRFUxTWpNMk9EWTJPakUwTnpjM01UTXdOams2TWpVME1EazJNVFl4TXc9PQZDZD
p10
ssVnext
p11
Vhttps://graph.facebook.com/v2.6/118828831495943_1397460943632719/reactions?access_token=599965930180946%7C575aa5390a4589483de7f8cf99702788&summary=true&limit=1&after=TVRBd01ERXdNRFUxTWpNMk9EWTJPakUwTnpjM01UTXdOams2TWpVME1EazJNVFl4TXc9PQZDZD
p12
ssVdata
p13
(lp14
(dp15
Vtype
p16
VLIKE
p17
sVid
p18
V364818280530010
p19
sVname
p20
VFida Hussain
p21
sasVsummary
p22
(dp23
Vtotal_count
p24
I1691
sVviewer_reaction
p25
VNONE
p26
sssg20
VTimeline Photos
p27
sVshares
p28
(dp29
Vcount
p30
I208
ssVlink
p31
Vhttps://www.facebook.com/ExplorePakistan/photos/a.118837968161696.8199.118828831495943/1397460943632719/?type=3
p32
sVcomments
p33
(dp34
g3
(dp35
g5
(dp36
g7
VMQZDZD
p37
sg9
VMTYZD
p38
sssg13
(lp39
(dp40
Vcreated_time
p41
V2016-10-13T17:09:14+0000
p42
sVmessage
p43
V
p44
sVfrom
p45
(dp46
g20
VSunny Khan Jadoon
p47
sg18
V1876589819237718
p48
ssg18
V1397460943632719_1397570926955054
p49
sa(dp50
g41
V2016-10-14T04:12:34+0000
p51
sg43
VHows this
p52
sg45
(dp53
g20
VFadee Malik
p54
sg18
V10154001839206765
p55
ssg18
V1397460943632719_1398204316891715
p56
sa(dp57
g41
V2016-10-14T05:33:22+0000
p58
sg43
VBeautiful photography.
p59
sg45
(dp60
g20
VShagufta Ansari
p61
sg18
V1027270457386180
p62
ssg18
V1397460943632719_1398257430219737
p63
sa(dp64
g41
V2016-10-13T16:05:42+0000
p65
sg43
VAttabad lake looks beautiful in pictures only... I think lulusar is more orgasmic
p66
sg45
(dp67
g20
VAbdus Sami
p68
sg18
V1162603827163316
p69
ssg18
V1397460943632719_1397477630297717
p70
sa(dp71
g41
V2016-10-13T16:09:21+0000
p72
sg43
VMesmerizing beauty
p73
sg45
(dp74
g20
VMunazza Shaukat
p75
sg18
V864611973673996
p76
ssg18
V1397460943632719_1397482576963889
p77
sa(dp78
g41
V2016-10-13T16:47:45+0000
p79
sg43
Vsa inteleg ca...te documentezi ?
p80
sg45
(dp81
g20
VOfelia Cincu
p82
sg18
V1188346067916528
p83
ssg18
V1397460943632719_1397533903625423
p84
sa(dp85
g41
V2016-10-14T10:11:03+0000
p86
sg43
VAtaabad lake
p87
sg45
(dp88
g20
VNazia Yasir
p89
sg18
V1676760069320765
p90
ssg18
V1397460943632719_1398446926867454
p91
sa(dp92
g41
V2016-10-13T19:19:26+0000
p93
sg43
VKillin me!  With envy!!!!
p94
sg45
(dp95
g20
VAminah Sultan
p96
sg18
V10211018730327103
p97
ssg18
V1397460943632719_1397731363605677
p98
sa(dp99
g41
V2016-10-14T15:48:53+0000
p100
sg43
VAta bad lake
p101
sg45
(dp102
g20
VMazhar Iqbal
p103
sg18
V1164643556941025
p104
ssg18
V1397460943632719_1398741650171315
p105
sa(dp106
g41
V2016-10-13T16:19:49+0000
p107
sg43
VI cant believe \U0001f632
p108
sg45
(dp109
g20
VEmine Tolu
p110
sg18
V1213225202057680
p111
ssg18
V1397460943632719_1397494780296002
p112
sa(dp113
g41
V2016-10-13T17:30:56+0000
p114
sg43
V\U0001f44d
p115
sg45
(dp116
g20
VHira Zaheer
p117
sg18
V333331287029058
p118
ssg18
V1397460943632719_1397595090285971
p119
sa(dp120
g41
V2016-10-14T09:22:09+0000
p121
sg43
VHonza
p122
sg45
(dp123
g20
VMusarat Imran
p124
sg18
V1121762177940796
p125
ssg18
V1397460943632719_1398406583538155
p126
sa(dp127
g41
V2016-10-13T18:01:13+0000
p128
sg43
V\U0001f44d
p129
sg45
(dp130
g20
VSadia Siddiqui
p131
sg18
V1696925220624966
p132
ssg18
V1397460943632719_1397631400282340
p133
sa(dp134
g41
V2016-10-13T16:22:01+0000
p135
sg43
V\u2764
p136
sg45
(dp137
g20
VHamid Praising
p138
sg18
V619671494867256
p139
ssg18
V1397460943632719_1397497020295778
p140
sa(dp141
g41
V2016-10-13T15:55:53+0000
p142
sg43
VMiesha
p143
sg45
(dp144
g20
VSaad Sheikh
p145
sg18
V1132066783536420
p146
ssg18
V1397460943632719_1397461693632644
p147
sa(dp148
g41
V2016-10-13T16:06:38+0000
p149
sg43
Vlove Pakistan.
p150
sg45
(dp151
g20
VSanam Zeb
p152
sg18
V328804570830393
p153
ssg18
V1397460943632719_1397478863630927
p154
sassg41
V2016-10-13T15:55:14+0000
p155
sg43
VAtaAbad lake,,, The beautiful,,, in June 2016\u000a#Gilgit #Baltistan\u000a\u000aPhoto: Khurram Shahzad...
p156
sg16
Vphoto
p157
sg18
V118828831495943_1397460943632719
p158
s.