(dp0
Vreactions
p1
(dp2
Vpaging
p3
(dp4
Vcursors
p5
(dp6
Vafter
p7
VTVRBd01ERXdNRFUxTWpNMk9EWTJPakUwTnpjM01UTXhOelU2TWpVME1EazJNVFl4TXc9PQZDZD
p8
sVbefore
p9
VTVRBd01ERXdNRFUxTWpNMk9EWTJPakUwTnpjM01UTXhOelU2TWpVME1EazJNVFl4TXc9PQZDZD
p10
ssVnext
p11
Vhttps://graph.facebook.com/v2.6/118828831495943_1390496057662541/reactions?access_token=599965930180946%7C575aa5390a4589483de7f8cf99702788&summary=true&limit=1&after=TVRBd01ERXdNRFUxTWpNMk9EWTJPakUwTnpjM01UTXhOelU2TWpVME1EazJNVFl4TXc9PQZDZD
p12
ssVdata
p13
(lp14
(dp15
Vtype
p16
VLIKE
p17
sVid
p18
V364818280530010
p19
sVname
p20
VFida Hussain
p21
sasVsummary
p22
(dp23
Vtotal_count
p24
I1154
sVviewer_reaction
p25
VNONE
p26
sssg20
VTimeline Photos
p27
sVshares
p28
(dp29
Vcount
p30
I73
ssVlink
p31
Vhttps://www.facebook.com/ExplorePakistan/photos/a.118837968161696.8199.118828831495943/1390496057662541/?type=3
p32
sVcomments
p33
(dp34
g3
(dp35
g5
(dp36
g7
VMQZDZD
p37
sg9
VMTAZD
p38
sssg13
(lp39
(dp40
Vcreated_time
p41
V2016-10-06T10:12:36+0000
p42
sVmessage
p43
VVery niceeee\U0001f60d\U0001f619\U0001f618i lv Pakistan
p44
sVfrom
p45
(dp46
g20
VEdna Tamargo Piano
p47
sg18
V1698865810368035
p48
ssg18
V1390496057662541_1390500184328795
p49
sa(dp50
g41
V2016-10-06T10:12:38+0000
p51
sg43
V
p52
sg45
(dp53
g20
VShoaib Ahmad
p54
sg18
V1345087022228427
p55
ssg18
V1390496057662541_1390500190995461
p56
sa(dp57
g41
V2016-10-06T11:08:00+0000
p58
sg43
g52
sg45
(dp59
g20
VAmmar Ahmad
p60
sg18
V1212966198765148
p61
ssg18
V1390496057662541_1390535794325234
p62
sa(dp63
g41
V2016-10-06T10:57:14+0000
p64
sg43
g52
sg45
(dp65
g20
VZee Khattak
p66
sg18
V1275204925865247
p67
ssg18
V1390496057662541_1390529487659198
p68
sa(dp69
g41
V2016-10-06T12:15:58+0000
p70
sg43
g52
sg45
(dp71
g20
VTaher Mirza
p72
sg18
V1151635484914003
p73
ssg18
V1390496057662541_1390591240986356
p74
sa(dp75
g41
V2016-10-06T14:34:25+0000
p76
sg43
Vthis is situated on the bypass of mansehra
p77
sg45
(dp78
g20
VKashif Bangash
p79
sg18
V1177304348983115
p80
ssg18
V1390496057662541_1390695077642639
p81
sa(dp82
g41
V2016-10-06T19:42:48+0000
p83
sg43
VMansehra
p84
sg45
(dp85
g20
VUsman Abdul Samad
p86
sg18
V283010052092969
p87
ssg18
V1390496057662541_1390926224286191
p88
sa(dp89
g41
V2016-10-06T11:12:49+0000
p90
sg43
VVery nice i love pakistan .
p91
sg45
(dp92
g20
VAayaan Khan
p93
sg18
V173906879734694
p94
ssg18
V1390496057662541_1390538080991672
p95
sa(dp96
g41
V2016-10-06T18:43:39+0000
p97
sg43
VNice
p98
sg45
(dp99
g20
VRukhsana Khan
p100
sg18
V1747273428855478
p101
ssg18
V1390496057662541_1390880517624095
p102
sa(dp103
g41
V2016-10-06T20:09:30+0000
p104
sg43
g52
sg45
(dp105
g20
VWaji Gillani
p106
sg18
V1434908356524678
p107
ssg18
V1390496057662541_1390950227617124
p108
sassg41
V2016-10-06T10:07:04+0000
p109
sg43
VThis is in #Mansehra...\u000aKPK #Pakistan...\u000a\u000aPhoto: Khurram Shahzad
p110
sg16
Vphoto
p111
sg18
V118828831495943_1390496057662541
p112
s.