(dp0
Vreactions
p1
(dp2
Vpaging
p3
(dp4
Vcursors
p5
(dp6
Vafter
p7
VTVRBd01EQXdNVFV6TmpnM05qTTVPakUwTnpjM016STJOelE2TnpnNE5qUTRNRE0zT1RFek16RXkZD
p8
sVbefore
p9
VTVRBd01EQXdNVFV6TmpnM05qTTVPakUwTnpjM016STJOelE2TnpnNE5qUTRNRE0zT1RFek16RXkZD
p10
ssVnext
p11
Vhttps://graph.facebook.com/v2.6/118828831495943_1406312136080933/reactions?access_token=599965930180946%7C575aa5390a4589483de7f8cf99702788&limit=1&after=TVRBd01EQXdNVFV6TmpnM05qTTVPakUwTnpjM016STJOelE2TnpnNE5qUTRNRE0zT1RFek16RXkZD
p12
ssVdata
p13
(lp14
(dp15
Vtype
p16
VWOW
p17
sVid
p18
V1550603961621378
p19
sVname
p20
VM Siraj Ulfat
p21
sassg20
VTimeline Photos
p22
sVshares
p23
(dp24
Vcount
p25
I35
ssVlink
p26
Vhttps://www.facebook.com/ExplorePakistan/photos/a.118837968161696.8199.118828831495943/1406312136080933/?type=3
p27
sVcomments
p28
(dp29
g3
(dp30
g5
(dp31
g7
VMQZDZD
p32
sg9
VNAZDZD
p33
sssg13
(lp34
(dp35
Vcreated_time
p36
V2016-10-21T20:02:59+0000
p37
sVmessage
p38
VLong Live Pak-China Friendship.
p39
sVfrom
p40
(dp41
g20
VNawab Tanweer Ahmad
p42
sg18
V10154227884883740
p43
ssg18
V1406312136080933_1406633469382133
p44
sa(dp45
g36
V2016-10-22T16:35:25+0000
p46
sg38
VWHAT A VIEW, SUBHAAN ALLAH!!!
p47
sg40
(dp48
g20
VQuaideazam Iqbal
p49
sg18
V1779926222266063
p50
ssg18
V1406312136080933_1407600482618765
p51
sa(dp52
g36
V2016-10-21T19:12:51+0000
p53
sg38
V
p54
sg40
(dp55
g20
VFaisal Khan
p56
sg18
V10207817534499799
p57
ssg18
V1406312136080933_1406592642719549
p58
sa(dp59
g36
V2016-10-21T13:24:11+0000
p60
sg38
VPak China\U0001f60d
p61
sg40
(dp62
g20
VHaider Ali
p63
sg18
V1822655201345330
p64
ssg18
V1406312136080933_1406324826079664
p65
sassg36
V2016-10-21T13:04:31+0000
p66
sg38
VFlags depicts passion of Pak-China friendship..\u000aLocation: few miles ahead of sost towards Khunjerab.\u000a\u000aCredits: Hassan Shahzad
p67
sg16
Vphoto
p68
sg18
V118828831495943_1406312136080933
p69
s.