(dp0
Vreactions
p1
(dp2
Vpaging
p3
(dp4
Vcursors
p5
(dp6
Vafter
p7
VTVRBd01ERXdNRFUxTWpNMk9EWTJPakUwTnpjM01USTVNakE2TWpVME1EazJNVFl4TXc9PQZDZD
p8
sVbefore
p9
VTVRBd01ERXdNRFUxTWpNMk9EWTJPakUwTnpjM01USTVNakE2TWpVME1EazJNVFl4TXc9PQZDZD
p10
ssVnext
p11
Vhttps://graph.facebook.com/v2.6/118828831495943_1405093109536169/reactions?access_token=599965930180946%7C575aa5390a4589483de7f8cf99702788&limit=1&after=TVRBd01ERXdNRFUxTWpNMk9EWTJPakUwTnpjM01USTVNakE2TWpVME1EazJNVFl4TXc9PQZDZD
p12
ssVdata
p13
(lp14
(dp15
Vtype
p16
VLIKE
p17
sVid
p18
V364818280530010
p19
sVname
p20
VFida Hussain
p21
sassg20
VTimeline Photos
p22
sVshares
p23
(dp24
Vcount
p25
I89
ssVlink
p26
Vhttps://www.facebook.com/ExplorePakistan/photos/a.118837968161696.8199.118828831495943/1405093109536169/?type=3
p27
sVcomments
p28
(dp29
g3
(dp30
g5
(dp31
g7
VMQZDZD
p32
sg9
VMTEZD
p33
sssg13
(lp34
(dp35
Vcreated_time
p36
V2016-10-20T07:25:31+0000
p37
sVmessage
p38
V
p39
sVfrom
p40
(dp41
g20
VEdna Tamargo Piano
p42
sg18
V1698865810368035
p43
ssg18
V1405093109536169_1405104816201665
p44
sa(dp45
g36
V2016-10-20T13:56:37+0000
p46
sg38
VLove u Pakistan, kpk, Swat
p47
sg40
(dp48
g20
VSheri Gul
p49
sg18
V1829352193969158
p50
ssg18
V1405093109536169_1405333066178840
p51
sa(dp52
g36
V2016-10-21T15:33:08+0000
p53
sg38
Vmoola khuzdar Balochistan Pakistan
p54
sg40
(dp55
g20
VAkhter Zaman Malghani
p56
sg18
V1121714094531953
p57
ssg18
V1405093109536169_1406412662737547
p58
sa(dp59
g36
V2016-10-20T12:01:32+0000
p60
sg38
VWhite lake .... (spin khwar ) in pashto.
p61
sg40
(dp62
g20
VMuhammad Ayub Noor MoHmand
p63
sg18
V1032221340203262
p64
ssg18
V1405093109536169_1405260786186068
p65
sa(dp66
g36
V2016-10-20T12:08:07+0000
p67
sg38
VValley of lakes swat valley ...
p68
sg40
(dp69
g20
VMuhammad Ayub Noor MoHmand
p70
sg18
V1032221340203262
p71
ssg18
V1405093109536169_1405264462852367
p72
sa(dp73
g36
V2016-10-21T13:53:37+0000
p74
sg38
VMashaAllah
p75
sg40
(dp76
g20
VMemee Janjua
p77
sg18
V1682698945313547
p78
ssg18
V1405093109536169_1406341246078022
p79
sa(dp80
g36
V2016-10-20T10:06:04+0000
p81
sg38
Vi think its Kundol Lake, Kalam
p82
sg40
(dp83
g20
VRana Usman
p84
sg18
V1138488546234326
p85
ssg18
V1405093109536169_1405190236193123
p86
sa(dp87
g36
V2016-10-20T12:07:00+0000
p88
sg38
VSpin khwar lake in a heavy snowfall
p89
sg40
(dp90
g20
VHassan Raza
p91
sg18
V1327680090584677
p92
ssg18
V1405093109536169_1405263896185757
p93
sa(dp94
g36
V2016-10-20T16:29:37+0000
p95
sg38
VAwesome
p96
sg40
(dp97
g20
VRiz Hayat
p98
sg18
V10157643498420716
p99
ssg18
V1405093109536169_1405439182834895
p100
sa(dp101
g36
V2016-10-20T20:36:31+0000
p102
sg38
VFaadi Khan E'sham Khan Mehsud ogora who is standing in the pic? \U0001f60a\U0001f602
p103
sg40
(dp104
g20
VAdnan Raza
p105
sg18
V1099392750129914
p106
ssg18
V1405093109536169_1405609056151241
p107
sa(dp108
g36
V2016-10-20T14:16:04+0000
p109
sg38
VSameh Sayed Seleem
p110
sg40
(dp111
g20
VMaaz Sattar
p112
sg18
V10154295748523778
p113
ssg18
V1405093109536169_1405345336177613
p114
sassg36
V2016-10-20T07:08:48+0000
p115
sg38
Vspell bounding beauty - Love your Country #Pakistan\u000aSpinkhwar Lake #Swat #Pakistan\u000a\u000aPicture : Ziaullah Khan
p116
sg16
Vphoto
p117
sg18
V118828831495943_1405093109536169
p118
s.