(dp0
Vreactions
p1
(dp2
Vpaging
p3
(dp4
Vcursors
p5
(dp6
Vafter
p7
VTVRBd01ERXdNRFUxTWpNMk9EWTJPakUwTnpjM01UTXdOVFU2TWpVME1EazJNVFl4TXc9PQZDZD
p8
sVbefore
p9
VTVRBd01ERXdNRFUxTWpNMk9EWTJPakUwTnpjM01UTXdOVFU2TWpVME1EazJNVFl4TXc9PQZDZD
p10
ssVnext
p11
Vhttps://graph.facebook.com/v2.6/118828831495943_1398679763510837/reactions?access_token=599965930180946%7C575aa5390a4589483de7f8cf99702788&summary=true&limit=1&after=TVRBd01ERXdNRFUxTWpNMk9EWTJPakUwTnpjM01UTXdOVFU2TWpVME1EazJNVFl4TXc9PQZDZD
p12
ssVdata
p13
(lp14
(dp15
Vtype
p16
VLIKE
p17
sVid
p18
V364818280530010
p19
sVname
p20
VFida Hussain
p21
sasVsummary
p22
(dp23
Vtotal_count
p24
I1919
sVviewer_reaction
p25
VNONE
p26
sssg20
VTimeline Photos
p27
sVshares
p28
(dp29
Vcount
p30
I250
ssVlink
p31
Vhttps://www.facebook.com/ExplorePakistan/photos/a.118837968161696.8199.118828831495943/1398679763510837/?type=3
p32
sVcomments
p33
(dp34
g3
(dp35
g5
(dp36
g7
VMQZDZD
p37
sg9
VMTUZD
p38
sssg13
(lp39
(dp40
Vcreated_time
p41
V2016-10-14T16:33:02+0000
p42
sVmessage
p43
VI wanna climb it
p44
sVfrom
p45
(dp46
g20
VSummera Shaheen Malik
p47
sg18
V1273020992731651
p48
ssg18
V1398679763510837_1398795303499283
p49
sa(dp50
g41
V2016-10-14T14:53:47+0000
p51
sg43
VHighest tringo towers in the world
p52
sg45
(dp53
g20
VMuhammad Ayub Noor MoHmand
p54
sg18
V1032221340203262
p55
ssg18
V1398679763510837_1398698816842265
p56
sa(dp57
g41
V2016-10-14T14:57:42+0000
p58
sg43
VAmazing
p59
sg45
(dp60
g20
V\u0627\u0633\u0627\u0645\u06c1 \u0645\u062d\u0645\u0648\u062f
p61
sg18
V575413889309994
p62
ssg18
V1398679763510837_1398701606841986
p63
sa(dp64
g41
V2016-10-14T18:22:11+0000
p65
sg43
VMashaAllah
p66
sg45
(dp67
g20
VMuhammad Irfan
p68
sg18
V1791974237744324
p69
ssg18
V1398679763510837_1398896346822512
p70
sa(dp71
g41
V2016-10-15T05:14:22+0000
p72
sg43
VWoww so amazing\U0001f60d
p73
sg45
(dp74
g20
VEdna Tamargo Piano
p75
sg18
V1698865810368035
p76
ssg18
V1398679763510837_1399334873445326
p77
sa(dp78
g41
V2016-10-15T01:04:23+0000
p79
sg43
VSo beautiful
p80
sg45
(dp81
g20
VRukhsana Khan
p82
sg18
V1747273428855478
p83
ssg18
V1398679763510837_1399168816795265
p84
sa(dp85
g41
V2016-10-14T21:18:05+0000
p86
sg43
VYahan visit kaisy kia ja sakta hai
p87
sg45
(dp88
g20
VAli Haider
p89
sg18
V10202403069394207
p90
ssg18
V1398679763510837_1399030056809141
p91
sa(dp92
g41
V2016-10-14T16:34:27+0000
p93
sg43
VBeautiful MashaAllah <3
p94
sg45
(dp95
g20
VTehreem Choudhry
p96
sg18
V547076675490344
p97
ssg18
V1398679763510837_1398796216832525
p98
sa(dp99
g41
V2016-10-14T14:46:03+0000
p100
sg43
Vbeautiful
p101
sg45
(dp102
g20
VAurangzeb Khan
p103
sg18
V10154638793287210
p104
ssg18
V1398679763510837_1398691693509644
p105
sa(dp106
g41
V2016-10-14T15:09:03+0000
p107
sg43
VWah, the sky!! \U0001f499\U0001f499\U0001f499
p108
sg45
(dp109
g20
VKarolina G-ka
p110
sg18
V10154164158017523
p111
ssg18
V1398679763510837_1398709186841228
p112
sa(dp113
g41
V2016-10-15T09:42:02+0000
p114
sg43
VI like gilgit
p115
sg45
(dp116
g20
VAayaan Khan
p117
sg18
V173906879734694
p118
ssg18
V1398679763510837_1399492390096241
p119
sa(dp120
g41
V2016-10-16T00:58:29+0000
p121
sg43
VBeen to Gilgit and Swat but didn't make it here.  Beautiful. Murree was ......cool.
p122
sg45
(dp123
g20
VJohn Robertson
p124
sg18
V1255386651180191
p125
ssg18
V1398679763510837_1400268066685340
p126
sa(dp127
g41
V2016-10-15T12:50:32+0000
p128
sg43
VJunaid Hashmi ye hai
p129
sg45
(dp130
g20
VSyed Taha Zafar
p131
sg18
V1228879200502716
p132
ssg18
V1398679763510837_1399659656746181
p133
sa(dp134
g41
V2016-10-14T18:44:49+0000
p135
sg43
VRaza Khan
p136
sg45
(dp137
g20
VXaheer Shah
p138
sg18
V630164983822479
p139
ssg18
V1398679763510837_1398915253487288
p140
sa(dp141
g41
V2016-10-14T16:50:16+0000
p142
sg43
VLove Pakistan
p143
sg45
(dp144
g20
VSanam Zeb
p145
sg18
V328804570830393
p146
ssg18
V1398679763510837_1398812853497528
p147
sassg41
V2016-10-14T14:34:25+0000
p148
sg43
VThe #Trango #Towers are a family of rock towers situated in #Gilgit-#Baltistan, in the north of #Pakistan.
p149
sg16
Vphoto
p150
sg18
V118828831495943_1398679763510837
p151
s.