(dp0
Vreactions
p1
(dp2
Vpaging
p3
(dp4
Vcursors
p5
(dp6
Vafter
p7
VTVRBd01ERXdNRFUxTWpNMk9EWTJPakUwTnpjM01UTXhNVGs2TWpVME1EazJNVFl4TXc9PQZDZD
p8
sVbefore
p9
VTVRBd01ERXdNRFUxTWpNMk9EWTJPakUwTnpjM01UTXhNVGs2TWpVME1EazJNVFl4TXc9PQZDZD
p10
ssVnext
p11
Vhttps://graph.facebook.com/v2.6/118828831495943_1395016460543834/reactions?access_token=599965930180946%7C575aa5390a4589483de7f8cf99702788&summary=true&limit=1&after=TVRBd01ERXdNRFUxTWpNMk9EWTJPakUwTnpjM01UTXhNVGs2TWpVME1EazJNVFl4TXc9PQZDZD
p12
ssVdata
p13
(lp14
(dp15
Vtype
p16
VLIKE
p17
sVid
p18
V364818280530010
p19
sVname
p20
VFida Hussain
p21
sasVsummary
p22
(dp23
Vtotal_count
p24
I1263
sVviewer_reaction
p25
VNONE
p26
sssg20
VTimeline Photos
p27
sVshares
p28
(dp29
Vcount
p30
I90
ssVlink
p31
Vhttps://www.facebook.com/ExplorePakistan/photos/a.118837968161696.8199.118828831495943/1395016460543834/?type=3
p32
sVcomments
p33
(dp34
g3
(dp35
g5
(dp36
g7
VMQZDZD
p37
sg9
VMTIZD
p38
sssg13
(lp39
(dp40
Vcreated_time
p41
V2016-10-11T18:42:42+0000
p42
sVmessage
p43
VThese mountains remain covered with snow most part of the year hence there is no vegetation,
p44
sVfrom
p45
(dp46
g20
VMani Jan
p47
sg18
V1829233934030537
p48
ssg18
V1395016460543834_1395442213834592
p49
sa(dp50
g41
V2016-10-11T08:40:50+0000
p51
sg43
VDeforestration every where in Pakistan \U0001f622
p52
sg45
(dp53
g20
VKausar Shah Gailani
p54
sg18
V235407866837224
p55
ssg18
V1395016460543834_1395019107210236
p56
sa(dp57
g41
V2016-10-11T10:22:15+0000
p58
sg43
V
p59
sg45
(dp60
g20
VMunazza Shaukat
p61
sg18
V864611973673996
p62
ssg18
V1395016460543834_1395079947204152
p63
sa(dp64
g41
V2016-10-11T08:59:51+0000
p65
sg43
VWish there be more greenery on hills more trees to grow please
p66
sg45
(dp67
g20
VFarhat Bashir
p68
sg18
V10153913659666818
p69
ssg18
V1395016460543834_1395026607209486
p70
sa(dp71
g41
V2016-10-11T14:17:00+0000
p72
sg43
VBeautiful
p73
sg45
(dp74
g20
VMemee Janjua
p75
sg18
V1682698945313547
p76
ssg18
V1395016460543834_1395245197187627
p77
sa(dp78
g41
V2016-10-12T12:26:16+0000
p79
sg43
VWish to go there
p80
sg45
(dp81
g20
VMian Basit Joiya
p82
sg18
V1258996707453695
p83
ssg18
V1395016460543834_1396087130436767
p84
sa(dp85
g41
V2016-10-11T11:02:08+0000
p86
sg43
Vbeautiful
p87
sg45
(dp88
g20
VEid Amon
p89
sg18
V1808944726044035
p90
ssg18
V1395016460543834_1395101647201982
p91
sa(dp92
g41
V2016-10-11T10:50:24+0000
p93
sg43
VAmazing view
p94
sg45
(dp95
g20
VHasaan Anna
p96
sg18
V10154659022278559
p97
ssg18
V1395016460543834_1395095410535939
p98
sa(dp99
g41
V2016-10-11T12:51:36+0000
p100
sg43
VWow..amazing view
p101
sg45
(dp102
g20
VZainab Saif
p103
sg18
V391264851262012
p104
ssg18
V1395016460543834_1395172207194926
p105
sa(dp106
g41
V2016-10-11T09:18:23+0000
p107
sg43
VYup v v v v v osm
p108
sg45
(dp109
g20
V\u0622\u0632\u0627\u062f \u067e\u0646\u0686\u06be\u06cc
p110
sg18
V1684531741862835
p111
ssg18
V1395016460543834_1395037687208378
p112
sa(dp113
g41
V2016-10-11T21:35:35+0000
p114
sg43
VNatural beauty.
p115
sg45
(dp116
g20
VTajamal Shahid
p117
sg18
V1794308780816682
p118
ssg18
V1395016460543834_1395559993822814
p119
sa(dp120
g41
V2016-10-11T09:01:13+0000
p121
sg43
VBeautiful
p122
sg45
(dp123
g20
VAS Khan Marwat
p124
sg18
V155355941595405
p125
ssg18
V1395016460543834_1395026917209455
p126
sassg41
V2016-10-11T08:32:21+0000
p127
sg43
VOn the way to #Babusar top from #Naran\u000aKPK... #Pakistan
p128
sg16
Vphoto
p129
sg18
V118828831495943_1395016460543834
p130
s.