(dp0
Vreactions
p1
(dp2
Vpaging
p3
(dp4
Vcursors
p5
(dp6
Vafter
p7
VTVRBd01ERXdNRFUxTWpNMk9EWTJPakUwTnpjM01UTXhOekk2TWpVME1EazJNVFl4TXc9PQZDZD
p8
sVbefore
p9
VTVRBd01ERXdNRFUxTWpNMk9EWTJPakUwTnpjM01UTXhOekk2TWpVME1EazJNVFl4TXc9PQZDZD
p10
ssVnext
p11
Vhttps://graph.facebook.com/v2.6/118828831495943_1391283604250453/reactions?access_token=599965930180946%7C575aa5390a4589483de7f8cf99702788&summary=true&limit=1&after=TVRBd01ERXdNRFUxTWpNMk9EWTJPakUwTnpjM01UTXhOekk2TWpVME1EazJNVFl4TXc9PQZDZD
p12
ssVdata
p13
(lp14
(dp15
Vtype
p16
VLIKE
p17
sVid
p18
V364818280530010
p19
sVname
p20
VFida Hussain
p21
sasVsummary
p22
(dp23
Vtotal_count
p24
I1299
sVviewer_reaction
p25
VNONE
p26
sssg20
VTimeline Photos
p27
sVshares
p28
(dp29
Vcount
p30
I140
ssVlink
p31
Vhttps://www.facebook.com/ExplorePakistan/photos/a.118837968161696.8199.118828831495943/1391283604250453/?type=3
p32
sVcomments
p33
(dp34
g3
(dp35
g5
(dp36
g7
VMQZDZD
p37
sg9
VOQZDZD
p38
sssg13
(lp39
(dp40
Vcreated_time
p41
V2016-10-07T07:01:06+0000
p42
sVmessage
p43
VDear admin bachay ki Jan lo gay kia! \U0001f44d\U0001f3fc
p44
sVfrom
p45
(dp46
g20
VMurtaza Khan
p47
sg18
V1215592151813019
p48
ssg18
V1391283604250453_1391284664250347
p49
sa(dp50
g41
V2016-10-07T10:38:39+0000
p51
sg43
VMe and Umar Farooq  served in this part of Pskistan . Khaplu
p52
sg45
(dp53
g20
VTariq Saeed Khan
p54
sg18
V10153848284161356
p55
ssg18
V1391283604250453_1391374490908031
p56
sa(dp57
g41
V2016-10-07T10:52:59+0000
p58
sg43
VI have fallen in love
p59
sg45
(dp60
g20
VShazia Mansoor
p61
sg18
V1190195187717539
p62
ssg18
V1391283604250453_1391380694240744
p63
sa(dp64
g41
V2016-10-07T07:52:50+0000
p65
sg43
VLovely .... Subhan Allah
p66
sg45
(dp67
g20
VHasaan Anna
p68
sg18
V10154659022278559
p69
ssg18
V1391283604250453_1391302800915200
p70
sa(dp71
g41
V2016-10-08T19:38:22+0000
p72
sg43
VFrom which side this picture was taken?
p73
sg45
(dp74
g20
VMasood A. Rana
p75
sg18
V10153999904161716
p76
ssg18
V1391283604250453_1392661207446026
p77
sa(dp78
g41
V2016-10-07T19:01:39+0000
p79
sg43
VOutclass
p80
sg45
(dp81
g20
VAK Khan
p82
sg18
V1646137995635766
p83
ssg18
V1391283604250453_1391671640878316
p84
sa(dp85
g41
V2016-10-07T07:38:19+0000
p86
sg43
VAllahu Akbar....
p87
sg45
(dp88
g20
VDewi Sintha
p89
sg18
V320610651608365
p90
ssg18
V1391283604250453_1391297954249018
p91
sa(dp92
g41
V2016-10-07T18:48:51+0000
p93
sg43
Vby far the best side i have ever seen of  cones
p94
sg45
(dp95
g20
VShagufta Ahtasham
p96
sg18
V1068498743262749
p97
ssg18
V1391283604250453_1391660117546135
p98
sa(dp99
g41
V2016-10-07T08:39:52+0000
p100
sg43
VHuma Waheed
p101
sg45
(dp102
g20
VIQra Waheed
p103
sg18
V1776063479315184
p104
ssg18
V1391283604250453_1391323270913153
p105
sassg41
V2016-10-07T06:58:14+0000
p106
sg43
VPasu cones from a different angle\u000a#Gilgit #Baltistan.... #Pakistan..\u000a\u000aPic: Basharat Ali
p107
sg16
Vphoto
p108
sg18
V118828831495943_1391283604250453
p109
s.