(dp0
Vreactions
p1
(dp2
Vpaging
p3
(dp4
Vcursors
p5
(dp6
Vafter
p7
VTVRBd01ERXdORGt5TXpnd05ERXdPakUwTnpjMU5EZA3hNak02TWpVME1EazJNVFl4TXc9PQZDZD
p8
sVbefore
p9
VTVRBd01ERXdORGt5TXpnd05ERXdPakUwTnpjMU5EZA3hNak02TWpVME1EazJNVFl4TXc9PQZDZD
p10
ssVnext
p11
Vhttps://graph.facebook.com/v2.6/118828831495943_1395375130507967/reactions?access_token=599965930180946%7C575aa5390a4589483de7f8cf99702788&summary=true&limit=1&after=TVRBd01ERXdORGt5TXpnd05ERXdPakUwTnpjMU5EZA3hNak02TWpVME1EazJNVFl4TXc9PQZDZD
p12
ssVdata
p13
(lp14
(dp15
Vtype
p16
VLIKE
p17
sVid
p18
V337870549906022
p19
sVname
p20
VAhsi Khan
p21
sasVsummary
p22
(dp23
Vtotal_count
p24
I256
sVviewer_reaction
p25
VNONE
p26
sssVshares
p27
(dp28
Vcount
p29
I28
ssVcomments
p30
(dp31
g3
(dp32
g5
(dp33
g7
VMQZDZD
p34
sg9
VMwZDZD
p35
sssg13
(lp36
(dp37
Vcreated_time
p38
V2016-10-19T07:41:46+0000
p39
sVmessage
p40
VAllah u Kabeera
p41
sVfrom
p42
(dp43
g20
VZunair Qadri
p44
sg18
V1091976220917655
p45
ssg18
V1395375130507967_1404129779632502
p46
sa(dp47
g38
V2016-10-12T07:36:02+0000
p48
sg40
VSubhanAllah
p49
sg42
(dp50
g20
VMuhammad Waheed
p51
sg18
V1041485705929571
p52
ssg18
V1395375130507967_1395926293786184
p53
sa(dp54
g38
V2016-10-12T17:15:35+0000
p55
sg40
VSubhanAllah
p56
sg42
(dp57
g20
VSamar Iqbal
p58
sg18
V702226086607242
p59
ssg18
V1395375130507967_1396341077078039
p60
sassg38
V2016-10-11T17:24:54+0000
p61
sg40
V\u0646\u0628\u06cc \u0627\u06a9\u0631\u0645 \ufdfa \u0646\u06d2 \u0627\u06cc\u06a9 \u0645\u0631\u062a\u0628\u06c1 \u062d\u062c\u0631 \u0627\u0633\u0648\u062f \u06a9\u0648 \u0686\u0648\u0645\u0627 \u062a\u0648 \u0622\u062c \u0628\u06be\u06cc \u0639\u0634\u0627\u0642\u0627\u0646 \u0631\u0633\u0648\u0644\ufdfa \u0627\u0633 \u06a9\u0648 \u0686\u0648\u0645\u0646\u06d2 \u06a9\u0648 \u062a\u0631\u0633\u062a\u06d2 \u06be\u06cc\u06ba \u060c \u0627\u0648\u0631 \u0627\u0633 \u0627\u06cc\u06a9 \u0628\u0648\u0633\u06d2 \u06a9\u06cc \u062e\u06cc\u0631\u0627\u062a \u06be\u06d2 \u06a9\u06c1 \u062d\u062c\u0631 \u0627\u0633\u0648\u062f \u0642\u06cc\u0627\u0645\u062a \u062a\u06a9 \u0628\u0648\u0633\u06c1 \u0644\u06cc\u0646\u06d2 \u0648\u0627\u0644\u0648\u06ba \u06a9\u06cc \u0634\u0641\u0627\u0639\u062a \u06a9\u0631\u06d2 \u06af\u0627\u060c \u0630\u0631\u0627 \u0633\u0648\u0686\u06cc\u06d2 \u06a9\u06c1 \u062c\u0633 \u062d\u0633\u06cc\u0646 \u0627\u0628\u0646 \u0639\u0644\u06cc \u06a9\u0648 \u0631\u0633\u0648\u0644 \u0627\u06a9\u0631\u0645 \ufdfa \u0646\u06d2 \u0628\u06d2 \u062a\u062d\u0627\u0634\u06c1 \u0686\u0648\u0645\u0627 \u060c \u062c\u0633 \u06a9\u06cc \u067e\u06c1\u0644\u06cc \u062e\u0648\u0631\u0627\u06a9 \u06be\u06cc \u0646\u0628\u06cc \u0645\u0628\u0627\u0631\u06a9 \ufdfa \u06a9\u06cc \u0632\u0628\u0627\u0646 \u0633\u06d2 \u0644\u0639\u0627\u0628 \u062f\u06c1\u0646 \u0686\u0648\u0633\u0646\u0627 \u062a\u06be\u0627 \u060c \u0627\u0646 \u06a9\u06d2 \u062f\u0631\u062c\u0627\u062a \u06a9\u0627 \u0639\u0627\u0644\u0645 \u06a9\u06cc\u0627 \u06be\u0648\u06af\u0627
p62
sg16
Vstatus
p63
sg18
V118828831495943_1395375130507967
p64
s.