(dp0
Vreactions
p1
(dp2
Vpaging
p3
(dp4
Vcursors
p5
(dp6
Vafter
p7
VTVRBd01EQXdNVFV6TmpnM05qTTVPakUwTnpjM016STNORFk2TWpVME1EazJNVFl4TXc9PQZDZD
p8
sVbefore
p9
VTVRBd01EQXdNVFV6TmpnM05qTTVPakUwTnpjM016STNORFk2TWpVME1EazJNVFl4TXc9PQZDZD
p10
ssVnext
p11
Vhttps://graph.facebook.com/v2.6/118828831495943_1401584233220390/reactions?access_token=599965930180946%7C575aa5390a4589483de7f8cf99702788&limit=1&after=TVRBd01EQXdNVFV6TmpnM05qTTVPakUwTnpjM016STNORFk2TWpVME1EazJNVFl4TXc9PQZDZD
p12
ssVdata
p13
(lp14
(dp15
Vtype
p16
VLIKE
p17
sVid
p18
V1550603961621378
p19
sVname
p20
VM Siraj Ulfat
p21
sassg20
VTimeline Photos
p22
sVshares
p23
(dp24
Vcount
p25
I64
ssVlink
p26
Vhttps://www.facebook.com/ExplorePakistan/photos/a.118837968161696.8199.118828831495943/1401584233220390/?type=3
p27
sVcomments
p28
(dp29
g3
(dp30
g5
(dp31
g7
VMQZDZD
p32
sg9
VNwZDZD
p33
sssg13
(lp34
(dp35
Vcreated_time
p36
V2016-10-17T09:06:29+0000
p37
sVmessage
p38
VBeautiful
p39
sVfrom
p40
(dp41
g20
VHasaan Anna
p42
sg18
V10154659022278559
p43
ssg18
V1401584233220390_1401601399885340
p44
sa(dp45
g36
V2016-10-17T10:34:17+0000
p46
sg38
VOwwwwsummmm
p47
sg40
(dp48
g20
VSchehzad Hussain
p49
sg18
V1441070185903441
p50
ssg18
V1401584233220390_1401697896542357
p51
sa(dp52
g36
V2016-10-17T10:41:06+0000
p53
sg38
V\u0645\u0627 \u0634\u0627 \u0627\u0644\u0644\u0647
p54
sg40
(dp55
g20
VEdna Tamargo Piano
p56
sg18
V1698865810368035
p57
ssg18
V1401584233220390_1401704259875054
p58
sa(dp59
g36
V2016-10-18T09:41:39+0000
p60
sg38
VBeautiful
p61
sg40
(dp62
g20
VRukhsana Khan
p63
sg18
V1747273428855478
p64
ssg18
V1401584233220390_1402928646419282
p65
sa(dp66
g36
V2016-10-17T12:14:26+0000
p67
sg38
Vnice and quirky , lovely foto shot
p68
sg40
(dp69
g20
VOmran Zaman
p70
sg18
V915463121931349
p71
ssg18
V1401584233220390_1401769643201849
p72
sa(dp73
g36
V2016-10-17T11:44:55+0000
p74
sg38
VAmazing colours!!
p75
sg40
(dp76
g20
VKarolina G-ka
p77
sg18
V10154164158017523
p78
ssg18
V1401584233220390_1401751279870352
p79
sa(dp80
g36
V2016-10-17T19:06:55+0000
p81
sg38
V\u06c1\u0645\u0627\u0631\u06d2 \u0648\u0637\u0646 \u0634\u0627\u0646 \u06c1\u06cc \u0627\u0644\u06af \u0634\u06a9\u0631 \u06c1\u06d2 \u0631\u0628 \u06a9\u0627
p82
sg40
(dp83
g20
VN Farrukh Sheikh
p84
sg18
V282262642174425
p85
ssg18
V1401584233220390_1402127039832776
p86
sassg36
V2016-10-17T08:47:11+0000
p87
sg38
VA Mustard field in #Punjab... #Pakistan
p88
sg16
Vphoto
p89
sg18
V118828831495943_1401584233220390
p90
s.