(dp0
Vreactions
p1
(dp2
Vpaging
p3
(dp4
Vcursors
p5
(dp6
Vafter
p7
VTVRBd01ERXdNRFUxTWpNMk9EWTJPakUwTnpjM01UTXhOems2TWpVME1EazJNVFl4TXc9PQZDZD
p8
sVbefore
p9
VTVRBd01ERXdNRFUxTWpNMk9EWTJPakUwTnpjM01UTXhOems2TWpVME1EazJNVFl4TXc9PQZDZD
p10
ssVnext
p11
Vhttps://graph.facebook.com/v2.6/118828831495943_1388818131163667/reactions?access_token=599965930180946%7C575aa5390a4589483de7f8cf99702788&summary=true&limit=1&after=TVRBd01ERXdNRFUxTWpNMk9EWTJPakUwTnpjM01UTXhOems2TWpVME1EazJNVFl4TXc9PQZDZD
p12
ssVdata
p13
(lp14
(dp15
Vtype
p16
VLIKE
p17
sVid
p18
V364818280530010
p19
sVname
p20
VFida Hussain
p21
sasVsummary
p22
(dp23
Vtotal_count
p24
I1169
sVviewer_reaction
p25
VNONE
p26
sssg20
VTimeline Photos
p27
sVshares
p28
(dp29
Vcount
p30
I132
ssVlink
p31
Vhttps://www.facebook.com/ExplorePakistan/photos/a.118837968161696.8199.118828831495943/1388818131163667/?type=3
p32
sVcomments
p33
(dp34
g3
(dp35
g5
(dp36
g7
VMQZDZD
p37
sg9
VMTMZD
p38
sssg13
(lp39
(dp40
Vcreated_time
p41
V2016-10-04T17:38:01+0000
p42
sVmessage
p43
VZia Rehman agha PRUS che pake wo.. agha tunnel day..!!! \U0001f602
p44
sVfrom
p45
(dp46
g20
VItizaz Hakim
p47
sg18
V1086365081413279
p48
ssg18
V1388818131163667_1388851521160328
p49
sa(dp50
g41
V2016-10-04T18:33:31+0000
p51
sg43
VRozemun Khan Zarak Khan the car surfing needs to be relived in skardu
p52
sg45
(dp53
g20
VSalaar Hasan
p54
sg18
V10154903281744893
p55
ssg18
V1388818131163667_1388887741156706
p56
sa(dp57
g41
V2016-10-04T19:51:53+0000
p58
sg43
VSubhan Allah\u000aI love Pakistan
p59
sg45
(dp60
g20
VHashim Fiaz
p61
sg18
V317515871948897
p62
ssg18
V1388818131163667_1388949034483910
p63
sa(dp64
g41
V2016-10-04T17:41:02+0000
p65
sg43
V
p66
sg45
(dp67
g20
VNawab Tanweer Ahmad
p68
sg18
V10154227884883740
p69
ssg18
V1388818131163667_1388853044493509
p70
sa(dp71
g41
V2016-10-05T05:21:09+0000
p72
sg43
g66
sg45
(dp73
g20
VNaveed Sultan Lati
p74
sg18
V1440785182602330
p75
ssg18
V1388818131163667_1389302224448591
p76
sa(dp77
g41
V2016-10-04T18:03:55+0000
p78
sg43
g66
sg45
(dp79
g20
VFaisal Khalid
p80
sg18
V10154883565432780
p81
ssg18
V1388818131163667_1388870664491747
p82
sa(dp83
g41
V2016-10-04T21:23:58+0000
p84
sg43
g66
sg45
(dp85
g20
VSajjad Zafar
p86
sg18
V652364914933410
p87
ssg18
V1388818131163667_1389013481144132
p88
sa(dp89
g41
V2016-10-05T10:50:54+0000
p90
sg43
VSoon \U0001f62d
p91
sg45
(dp92
g20
VWaleed Bin Khalid
p93
sg18
V1406953779329694
p94
ssg18
V1388818131163667_1389506384428175
p95
sa(dp96
g41
V2016-10-05T11:03:38+0000
p97
sg43
VI love this 4 tunnels
p98
sg45
(dp99
g20
VSyed Zil E Rehman
p100
sg18
V358753624461475
p101
ssg18
V1388818131163667_1389522931093187
p102
sa(dp103
g41
V2016-10-04T16:59:47+0000
p104
sg43
VKanwal Ameer Zeeshan Qadeer only we knw how fun it was (vego) \U0001f602\U0001f602
p105
sg45
(dp106
g20
VHifza Shahid Sahibzada
p107
sg18
V10209698266527287
p108
ssg18
V1388818131163667_1388825687829578
p109
sa(dp110
g41
V2016-10-04T22:20:29+0000
p111
sg43
VAhmed Arslan Hammad Zafar Hassaan Sajid
p112
sg45
(dp113
g20
VAsfand Yar
p114
sg18
V1833431870271073
p115
ssg18
V1388818131163667_1389046981140782
p116
sa(dp117
g41
V2016-10-05T18:32:11+0000
p118
sg43
VFaryaal Hannan
p119
sg45
(dp120
g20
VRubab Khurshid
p121
sg18
V10154115268123403
p122
ssg18
V1388818131163667_1389960831049397
p123
sa(dp124
g41
V2016-10-04T19:30:06+0000
p125
sg43
Vsuch a great   page
p126
sg45
(dp127
g20
VHuman Hair
p128
sg18
V1694808184109277
p129
ssg18
V1388818131163667_1388934191152061
p130
sassg41
V2016-10-04T16:50:07+0000
p131
sg43
VENTERING THE TUNNELS ALONG THE ATaABAD LAKE.... #Gojal #Hunza \u000a#Gilgit... #Pakistan\u000a\u000aPHOTO....KHURRAM SHAHZAD
p132
sg16
Vphoto
p133
sg18
V118828831495943_1388818131163667
p134
s.