(dp0
Vreactions
p1
(dp2
Vpaging
p3
(dp4
Vcursors
p5
(dp6
Vafter
p7
VTVRBd01ERXdNRFUxTWpNMk9EWTJPakUwTnpjM01UTXhNakk2TWpVME1EazJNVFl4TXc9PQZDZD
p8
sVbefore
p9
VTVRBd01ERXdNRFUxTWpNMk9EWTJPakUwTnpjM01UTXhNakk2TWpVME1EazJNVFl4TXc9PQZDZD
p10
ssVnext
p11
Vhttps://graph.facebook.com/v2.6/118828831495943_1394494383929375/reactions?access_token=599965930180946%7C575aa5390a4589483de7f8cf99702788&summary=true&limit=1&after=TVRBd01ERXdNRFUxTWpNMk9EWTJPakUwTnpjM01UTXhNakk2TWpVME1EazJNVFl4TXc9PQZDZD
p12
ssVdata
p13
(lp14
(dp15
Vtype
p16
VLIKE
p17
sVid
p18
V364818280530010
p19
sVname
p20
VFida Hussain
p21
sasVsummary
p22
(dp23
Vtotal_count
p24
I1738
sVviewer_reaction
p25
VNONE
p26
sssg20
VTimeline Photos
p27
sVshares
p28
(dp29
Vcount
p30
I202
ssVlink
p31
Vhttps://www.facebook.com/ExplorePakistan/photos/a.118837968161696.8199.118828831495943/1394494383929375/?type=3
p32
sVcomments
p33
(dp34
g3
(dp35
g5
(dp36
g7
VMQZDZD
p37
sg9
VMTIZD
p38
sssg13
(lp39
(dp40
Vcreated_time
p41
V2016-10-10T18:09:57+0000
p42
sVmessage
p43
VAmazing Landscape :)
p44
sVfrom
p45
(dp46
g20
VIkram Asghar
p47
sg18
V10211109112790596
p48
ssg18
V1394494383929375_1394513167260830
p49
sa(dp50
g41
V2016-10-10T18:13:54+0000
p51
sg43
VBeautiful Pakistan \u2764\ufe0f
p52
sg45
(dp53
g20
VCelina Ahmad
p54
sg18
V10154137066053523
p55
ssg18
V1394494383929375_1394515453927268
p56
sa(dp57
g41
V2016-10-11T18:36:39+0000
p58
sg43
Vcould u pl tell me exact address of this spot, i want to visit it waiting pl
p59
sg45
(dp60
g20
VZafar Iqbal
p61
sg18
V1247529261987652
p62
ssg18
V1394494383929375_1395438683834945
p63
sa(dp64
g41
V2016-10-10T18:29:02+0000
p65
sg43
Vyes Pakistan
p66
sg45
(dp67
g20
VSanam Zeb
p68
sg18
V328804570830393
p69
ssg18
V1394494383929375_1394523627259784
p70
sa(dp71
g41
V2016-10-10T19:55:44+0000
p72
sg43
VVery beautiful
p73
sg45
(dp74
g20
VHasaan Anna
p75
sg18
V10154659022278559
p76
ssg18
V1394494383929375_1394595503919263
p77
sa(dp78
g41
V2016-10-10T18:50:33+0000
p79
sg43
VMore photos please
p80
sg45
(dp81
g20
VNancy Begum
p82
sg18
V10154729692661789
p83
ssg18
V1394494383929375_1394542160591264
p84
sa(dp85
g41
V2016-10-11T09:33:21+0000
p86
sg43
VSUBHANALLAH
p87
sg45
(dp88
g20
VTasneem Ali
p89
sg18
V330452410653451
p90
ssg18
V1394494383929375_1395051007207046
p91
sa(dp92
g41
V2016-10-17T16:16:16+0000
p93
sg43
VNic
p94
sg45
(dp95
g20
VMuhammad Ali
p96
sg18
V185172618603533
p97
ssg18
V1394494383929375_1401995226512624
p98
sa(dp99
g41
V2016-10-11T03:09:33+0000
p100
sg43
VMashallah
p101
sg45
(dp102
g20
VAS Khan Marwat
p103
sg18
V155355941595405
p104
ssg18
V1394494383929375_1394869807225166
p105
sa(dp106
g41
V2016-10-10T18:39:43+0000
p107
sg43
VZainy Sheikh
p108
sg45
(dp109
g20
VMuhammad Noman Xiddiqui
p110
sg18
V1073025806148120
p111
ssg18
V1394494383929375_1394532037258943
p112
sa(dp113
g41
V2016-10-11T07:48:23+0000
p114
sg43
VMehwar Ayaz Rao
p115
sg45
(dp116
g20
VAyaz Ahmad
p117
sg18
V1298536430198823
p118
ssg18
V1394494383929375_1395001670545313
p119
sa(dp120
g41
V2016-10-10T18:47:54+0000
p121
sg43
VHamza Ahmad
p122
sg45
(dp123
g20
VSyed Taha Zafar
p124
sg18
V1228879200502716
p125
ssg18
V1394494383929375_1394539537258193
p126
sassg41
V2016-10-10T17:38:34+0000
p127
sg43
V#Gojal also known as Upper #Hunza is a valley, situated in the far north of Pakistan. It borders Pakistan and China at Khunjerab Pass. It is the largest tehsil of the #Gilgit-#Baltistan region of #Pakistan.\u000a\u000aPhoto: Hunzukutz Kahn
p128
sg16
Vphoto
p129
sg18
V118828831495943_1394494383929375
p130
s.