(dp0
Vreactions
p1
(dp2
Vpaging
p3
(dp4
Vcursors
p5
(dp6
Vafter
p7
VTVRBd01ERXdNRFUxTWpNMk9EWTJPakUwTnpjM01UTXhPRGM2TWpVME1EazJNVFl4TXc9PQZDZD
p8
sVbefore
p9
VTVRBd01ERXdNRFUxTWpNMk9EWTJPakUwTnpjM01UTXhPRGM2TWpVME1EazJNVFl4TXc9PQZDZD
p10
ssVnext
p11
Vhttps://graph.facebook.com/v2.6/118828831495943_1387913241254156/reactions?access_token=599965930180946%7C575aa5390a4589483de7f8cf99702788&summary=true&limit=1&after=TVRBd01ERXdNRFUxTWpNMk9EWTJPakUwTnpjM01UTXhPRGM2TWpVME1EazJNVFl4TXc9PQZDZD
p12
ssVdata
p13
(lp14
(dp15
Vtype
p16
VLIKE
p17
sVid
p18
V364818280530010
p19
sVname
p20
VFida Hussain
p21
sasVsummary
p22
(dp23
Vtotal_count
p24
I764
sVviewer_reaction
p25
VNONE
p26
sssg20
VTimeline Photos
p27
sVshares
p28
(dp29
Vcount
p30
I43
ssVlink
p31
Vhttps://www.facebook.com/ExplorePakistan/photos/a.118837968161696.8199.118828831495943/1387913241254156/?type=3
p32
sVcreated_time
p33
V2016-10-03T16:24:01+0000
p34
sVmessage
p35
VFall colours on the way to Khunjrab Top..\u000a13th Day of September 2016\u000a\u000aPhoto: Shabana Irfan
p36
sg16
Vphoto
p37
sg18
V118828831495943_1387913241254156
p38
s.