(dp0
Vreactions
p1
(dp2
Vpaging
p3
(dp4
Vcursors
p5
(dp6
Vafter
p7
VTVRBd01ERXdNRFUxTWpNMk9EWTJPakUwTnpjM01UTXlNREU2TWpVME1EazJNVFl4TXc9PQZDZD
p8
sVbefore
p9
VTVRBd01ERXdNRFUxTWpNMk9EWTJPakUwTnpjM01UTXlNREU2TWpVME1EazJNVFl4TXc9PQZDZD
p10
ssVnext
p11
Vhttps://graph.facebook.com/v2.6/118828831495943_1387419621303518/reactions?access_token=599965930180946%7C575aa5390a4589483de7f8cf99702788&summary=true&limit=1&after=TVRBd01ERXdNRFUxTWpNMk9EWTJPakUwTnpjM01UTXlNREU2TWpVME1EazJNVFl4TXc9PQZDZD
p12
ssVdata
p13
(lp14
(dp15
Vtype
p16
VLIKE
p17
sVid
p18
V364818280530010
p19
sVname
p20
VFida Hussain
p21
sasVsummary
p22
(dp23
Vtotal_count
p24
I3772
sVviewer_reaction
p25
VNONE
p26
sssg20
VTimeline Photos
p27
sVshares
p28
(dp29
Vcount
p30
I515
ssVlink
p31
Vhttps://www.facebook.com/ExplorePakistan/photos/a.118837968161696.8199.118828831495943/1387419621303518/?type=3
p32
sVcomments
p33
(dp34
g3
(dp35
g5
(dp36
g7
VNAZDZD
p37
sg9
VMjQZD
p38
ssg11
Vhttps://graph.facebook.com/v2.6/118828831495943_1387419621303518/comments?access_token=599965930180946%7C575aa5390a4589483de7f8cf99702788&limit=20&after=NAZDZD
p39
ssg13
(lp40
(dp41
Vcreated_time
p42
V2016-10-03T03:42:16+0000
p43
sVmessage
p44
VAmazing
p45
sVfrom
p46
(dp47
g20
VWaqar Ahmad
p48
sg18
V1301814289850088
p49
ssg18
V1387419621303518_1387420611303419
p50
sa(dp51
g42
V2016-10-03T05:26:20+0000
p52
sg44
VDo you mean its Nanga Parbat? Are you sure? From which loaction ?\u000aI doubt , this seems Rakaposhi
p53
sg46
(dp54
g20
VShahzad Yousaf
p55
sg18
V10209587443456610
p56
ssg18
V1387419621303518_1387484741297006
p57
sa(dp58
g42
V2016-10-03T08:26:08+0000
p59
sg44
VInsha Allah bht jald hum bi pak k sath jude ge to aur bi beauty lage ga.
p60
sg46
(dp61
g20
VAamir Lone
p62
sg18
V1809827055967188
p63
ssg18
V1387419621303518_1387576301287850
p64
sa(dp65
g42
V2016-10-03T09:52:36+0000
p66
sg44
VWell, in my opinion, this is Nanga Parbat on KKH at some point between Jaglot and Chilas.
p67
sg46
(dp68
g20
VHassan Ihsan
p69
sg18
V10209805991639373
p70
ssg18
V1387419621303518_1387626144616199
p71
sa(dp72
g42
V2016-10-03T14:02:11+0000
p73
sg44
VThis monster is the icon of Pakistan ...so pakis are monsters nd think twice to have fight with monsters...long live Pakistan ...
p74
sg46
(dp75
g20
VJawad Ahsan
p76
sg18
V978469202257761
p77
ssg18
V1387419621303518_1387799887932158
p78
sa(dp79
g42
V2016-10-03T06:31:49+0000
p80
sg44
VMighty Nanga Parbat.I think Its near jaglot at KKH
p81
sg46
(dp82
g20
VSyed Rizwan Bukhari
p83
sg18
V1038468679560938
p84
ssg18
V1387419621303518_1387515014627312
p85
sa(dp86
g42
V2016-10-03T07:36:27+0000
p87
sg44
VThat's it! I am going to have to plan a visit to this beautiful place!
p88
sg46
(dp89
g20
VLiz Hughes
p90
sg18
V10154635417867346
p91
ssg18
V1387419621303518_1387554967956650
p92
sa(dp93
g42
V2016-10-03T08:32:30+0000
p94
sg44
VI am from maqboza kashmir.we love pak so so much.we hate indian dogs.
p95
sg46
(dp96
g20
VAamir Lone
p97
sg18
V1809827055967188
p98
ssg18
V1387419621303518_1387578424620971
p99
sa(dp100
g42
V2016-10-03T19:16:32+0000
p101
sg44
VLucky u \u2606
p102
sg46
(dp103
g20
VTahmina Iqbal
p104
sg18
V10154744254366940
p105
ssg18
V1387419621303518_1388051381240342
p106
sa(dp107
g42
V2016-10-03T15:02:47+0000
p108
sg44
VDear Javed Iqbal, while we appreciate your posts on the beauty of Northern Pakistan's natural beauty, but seeing it 25 times or more everyday is getting boring and choking up our FB pages.  Pls refer us to the book from where we can see and appreciate it.  Thanks for your understanding.
p109
sg46
(dp110
g20
VShoaib Siddiqui
p111
sg18
V10154762836938701
p112
ssg18
V1387419621303518_1387851387927008
p113
sa(dp114
g42
V2016-10-03T09:59:42+0000
p115
sg44
VBeautiful  ...subhan Allah
p116
sg46
(dp117
g20
VHasaan Anna
p118
sg18
V10154659022278559
p119
ssg18
V1387419621303518_1387630181282462
p120
sa(dp121
g42
V2016-10-03T09:07:02+0000
p122
sg44
VNanga parbat is mighty .. subhan Allah
p123
sg46
(dp124
g20
VMuhammad Ali
p125
sg18
V10155484189074478
p126
ssg18
V1387419621303518_1387594637952683
p127
sa(dp128
g42
V2016-10-04T12:46:20+0000
p129
sg44
VSubhan Allah <3
p130
sg46
(dp131
g20
VZaina Sheikh
p132
sg18
V722873964534412
p133
ssg18
V1387419621303518_1388633107848836
p134
sa(dp135
g42
V2016-10-03T07:25:26+0000
p136
sg44
VAwesome
p137
sg46
(dp138
g20
VEmaan Rehana
p139
sg18
V1808612659419085
p140
ssg18
V1387419621303518_1387550501290430
p141
sa(dp142
g42
V2016-10-03T06:45:46+0000
p143
sg44
VStunning :)
p144
sg46
(dp145
g20
VUmar Afzal
p146
sg18
V1219748498097608
p147
ssg18
V1387419621303518_1387524757959671
p148
sa(dp149
g42
V2016-10-03T09:38:58+0000
p150
sg44
VNanga parbet
p151
sg46
(dp152
g20
VSunny Khan Jadoon
p153
sg18
V1876589819237718
p154
ssg18
V1387419621303518_1387616874617126
p155
sa(dp156
g42
V2016-10-03T09:17:32+0000
p157
sg44
VNice
p158
sg46
(dp159
g20
VHaider Ali
p160
sg18
V1822655201345330
p161
ssg18
V1387419621303518_1387604487951698
p162
sa(dp163
g42
V2016-10-03T07:43:48+0000
p164
sg44
VNow this Khizer Aftab
p165
sg46
(dp166
g20
VAhmed Aftab
p167
sg18
V1309865859037052
p168
ssg18
V1387419621303518_1387557487956398
p169
sa(dp170
g42
V2016-10-04T14:00:20+0000
p171
sg44
VSyEd WaQas ShAh, Atiq Rana, Sufyan Ahmed Mughal, Mirza Uzair Bin Nadeem Now this..\U0001f609 Nanga parbat..
p172
sg46
(dp173
g20
VSyed Ahmed
p174
sg18
V1103410366444246
p175
ssg18
V1387419621303518_1388689457843201
p176
sa(dp177
g42
V2016-10-03T05:49:06+0000
p178
sg44
VSayed Shajar Abbas Naqvi
p179
sg46
(dp180
g20
VNawaz Janjua
p181
sg18
V10207972614096766
p182
ssg18
V1387419621303518_1387493297962817
p183
sassg42
V2016-10-03T03:39:59+0000
p184
sg44
VHimalayan Monster from KKH #Pakistan
p185
sg16
Vphoto
p186
sg18
V118828831495943_1387419621303518
p187
s.