(dp0
Vreactions
p1
(dp2
Vpaging
p3
(dp4
Vcursors
p5
(dp6
Vafter
p7
VTVRBd01ERXdNRFUxTWpNMk9EWTJPakUwTnpjM01UTXhNems2TWpVME1EazJNVFl4TXc9PQZDZD
p8
sVbefore
p9
VTVRBd01ERXdNRFUxTWpNMk9EWTJPakUwTnpjM01UTXhNems2TWpVME1EazJNVFl4TXc9PQZDZD
p10
ssVnext
p11
Vhttps://graph.facebook.com/v2.6/118828831495943_1392138747498272/reactions?access_token=599965930180946%7C575aa5390a4589483de7f8cf99702788&summary=true&limit=1&after=TVRBd01ERXdNRFUxTWpNMk9EWTJPakUwTnpjM01UTXhNems2TWpVME1EazJNVFl4TXc9PQZDZD
p12
ssVdata
p13
(lp14
(dp15
Vtype
p16
VLIKE
p17
sVid
p18
V364818280530010
p19
sVname
p20
VFida Hussain
p21
sasVsummary
p22
(dp23
Vtotal_count
p24
I750
sVviewer_reaction
p25
VNONE
p26
sssg20
VTimeline Photos
p27
sVshares
p28
(dp29
Vcount
p30
I76
ssVlink
p31
Vhttps://www.facebook.com/ExplorePakistan/photos/a.118837968161696.8199.118828831495943/1392138747498272/?type=3
p32
sVcomments
p33
(dp34
g3
(dp35
g5
(dp36
g7
VMQZDZD
p37
sg9
VNAZDZD
p38
sssg13
(lp39
(dp40
Vcreated_time
p41
V2016-10-11T11:07:54+0000
p42
sVmessage
p43
VSakardu Hasseen valley
p44
sVfrom
p45
(dp46
g20
VAbdul Rehman
p47
sg18
V373324549725165
p48
ssg18
V1392138747498272_1395103853868428
p49
sa(dp50
g41
V2016-10-08T11:04:58+0000
p51
sg43
VRozemun Khan
p52
sg45
(dp53
g20
VSalaar Hasan
p54
sg18
V10154903281744893
p55
ssg18
V1392138747498272_1392255330819947
p56
sa(dp57
g41
V2016-10-08T17:50:45+0000
p58
sg43
VI love Pakistan
p59
sg45
(dp60
g20
VMazhar Iqbal
p61
sg18
V330583343974861
p62
ssg18
V1392138747498272_1392583420787138
p63
sa(dp64
g41
V2016-10-08T08:12:16+0000
p65
sg43
VIrrfan Huaain Malik
p66
sg45
(dp67
g20
VAzan Malik
p68
sg18
V934466736680704
p69
ssg18
V1392138747498272_1392161277496019
p70
sassg41
V2016-10-08T07:31:20+0000
p71
sg43
V#Skardu.... #Baltistan \u000a#Pakistan\u000a\u000aPhoto: Altaf Noori
p72
sg16
Vphoto
p73
sg18
V118828831495943_1392138747498272
p74
s.