(dp0
Vreactions
p1
(dp2
Vpaging
p3
(dp4
Vcursors
p5
(dp6
Vafter
p7
VTVRBd01ERXdNRFUxTWpNMk9EWTJPakUwTnpjM01UTXlNRFE2TWpVME1EazJNVFl4TXc9PQZDZD
p8
sVbefore
p9
VTVRBd01ERXdNRFUxTWpNMk9EWTJPakUwTnpjM01UTXlNRFE2TWpVME1EazJNVFl4TXc9PQZDZD
p10
ssVnext
p11
Vhttps://graph.facebook.com/v2.6/118828831495943_1386568018055345/reactions?access_token=599965930180946%7C575aa5390a4589483de7f8cf99702788&summary=true&limit=1&after=TVRBd01ERXdNRFUxTWpNMk9EWTJPakUwTnpjM01UTXlNRFE2TWpVME1EazJNVFl4TXc9PQZDZD
p12
ssVdata
p13
(lp14
(dp15
Vtype
p16
VLIKE
p17
sVid
p18
V364818280530010
p19
sVname
p20
VFida Hussain
p21
sasVsummary
p22
(dp23
Vtotal_count
p24
I1458
sVviewer_reaction
p25
VNONE
p26
sssg20
VTimeline Photos
p27
sVshares
p28
(dp29
Vcount
p30
I141
ssVlink
p31
Vhttps://www.facebook.com/ExplorePakistan/photos/a.118837968161696.8199.118828831495943/1386568018055345/?type=3
p32
sVcomments
p33
(dp34
g3
(dp35
g5
(dp36
g7
VMQZDZD
p37
sg9
VMTMZD
p38
sssg13
(lp39
(dp40
Vcreated_time
p41
V2016-10-02T09:37:38+0000
p42
sVmessage
p43
VWe lost the jungles\U0001f622
p44
sVfrom
p45
(dp46
g20
VKausar Shah Gailani
p47
sg18
V235407866837224
p48
ssg18
V1386568018055345_1386609018051245
p49
sa(dp50
g41
V2016-10-02T10:25:18+0000
p51
sg43
V
p52
sg45
(dp53
g20
VMian Usman Zahoor
p54
sg18
V10154782062254729
p55
ssg18
V1386568018055345_1386645918047555
p56
sa(dp57
g41
V2016-10-02T11:12:13+0000
p58
sg43
VHv enjoyed rafting there .was wonderful \U0001f44d\U0001f44d
p59
sg45
(dp60
g20
VFaryal Yunus
p61
sg18
V1117645195018704
p62
ssg18
V1386568018055345_1386684584710355
p63
sa(dp64
g41
V2016-10-02T12:44:21+0000
p65
sg43
VWhat a wonderful world
p66
sg45
(dp67
g20
VQazi Umer
p68
sg18
V1265138770225043
p69
ssg18
V1386568018055345_1386740044704809
p70
sa(dp71
g41
V2016-10-02T08:30:11+0000
p72
sg43
VWonderful View
p73
sg45
(dp74
g20
VMalik Muhammad Salman Haidery
p75
sg18
V1164580540299027
p76
ssg18
V1386568018055345_1386568431388637
p77
sa(dp78
g41
V2016-10-02T10:19:04+0000
p79
sg43
VFaizan Ahmad yeh krna baki ha \U0001f4aa
p80
sg45
(dp81
g20
VTaha Sheikh
p82
sg18
V1144092259012537
p83
ssg18
V1386568018055345_1386643514714462
p84
sa(dp85
g41
V2016-10-03T06:08:45+0000
p86
sg43
VI saw this..
p87
sg45
(dp88
g20
VMalik Idrees Nawaz
p89
sg18
V1109472535774222
p90
ssg18
V1386568018055345_1387500627962084
p91
sa(dp92
g41
V2016-10-03T09:00:55+0000
p93
sg43
VAn unforgettable experience
p94
sg45
(dp95
g20
VKhalid Harral
p96
sg18
V1325763510807156
p97
ssg18
V1386568018055345_1387591037953043
p98
sa(dp99
g41
V2016-10-02T09:19:54+0000
p100
sg43
V;-)
p101
sg45
(dp102
g20
VMohsin Gillani
p103
sg18
V330973090594444
p104
ssg18
V1386568018055345_1386600448052102
p105
sa(dp106
g41
V2016-10-02T16:22:42+0000
p107
sg43
VWao
p108
sg45
(dp109
g20
VAyyan Ali
p110
sg18
V219740758446823
p111
ssg18
V1386568018055345_1386935138018633
p112
sa(dp113
g41
V2016-10-02T10:58:35+0000
p114
sg43
VHassan Raxa
p115
sg45
(dp116
g20
VMudasir Khalid
p117
sg18
V1245472168850431
p118
ssg18
V1386568018055345_1386677304711083
p119
sa(dp120
g41
V2016-10-02T12:43:48+0000
p121
sg43
VKhawar Shuaib Bilal Naeem
p122
sg45
(dp123
g20
VHumaira Shuaib
p124
sg18
V10157776778055533
p125
ssg18
V1386568018055345_1386739508038196
p126
sa(dp127
g41
V2016-10-02T09:32:15+0000
p128
sg43
Vi love pakistan
p129
sg45
(dp130
g20
VSanam Zeb
p131
sg18
V328804570830393
p132
ssg18
V1386568018055345_1386606678051479
p133
sassg41
V2016-10-02T08:29:15+0000
p134
sg43
VRAFTING IN RIVER KUNHAR...\u000a#Naran KPK #Pakistan\u000a\u000aPhoto: Khurram Shahzad
p135
sg16
Vphoto
p136
sg18
V118828831495943_1386568018055345
p137
s.