(dp0
Vreactions
p1
(dp2
Vpaging
p3
(dp4
Vcursors
p5
(dp6
Vafter
p7
VTVRBd01EQTVNREExT1RBNE5EVXhPakUwTnpjNE1qSTVNalU2TWpVME1EazJNVFl4TXc9PQZDZD
p8
sVbefore
p9
VTVRBd01EQTVNREExT1RBNE5EVXhPakUwTnpjNE1qSTVNalU2TWpVME1EazJNVFl4TXc9PQZDZD
p10
ssVnext
p11
Vhttps://graph.facebook.com/v2.6/118828831495943_1412334542145359/reactions?access_token=599965930180946%7C575aa5390a4589483de7f8cf99702788&limit=1&after=TVRBd01EQTVNREExT1RBNE5EVXhPakUwTnpjNE1qSTVNalU2TWpVME1EazJNVFl4TXc9PQZDZD
p12
ssVdata
p13
(lp14
(dp15
Vtype
p16
VLIKE
p17
sVid
p18
V1670278143282366
p19
sVname
p20
VShair Khan
p21
sassg20
VTimeline Photos
p22
sVshares
p23
(dp24
Vcount
p25
I46
ssVlink
p26
Vhttps://www.facebook.com/ExplorePakistan/photos/a.118837968161696.8199.118828831495943/1412334542145359/?type=3
p27
sVcreated_time
p28
V2016-10-27T08:34:38+0000
p29
sVmessage
p30
V#AYUBIA...#ABBOTTABAD \u000aIN  AUGUST 2016...
p31
sg16
Vphoto
p32
sg18
V118828831495943_1412334542145359
p33
s.