(dp0
Vreactions
p1
(dp2
Vpaging
p3
(dp4
Vcursors
p5
(dp6
Vafter
p7
VTVRBd01EQXhOak15TXpjeU5UTXlPakUwTnpjNE16ZA3pPRGs2TWpVME1EazJNVFl4TXc9PQZDZD
p8
sVbefore
p9
VTVRBd01EQXhOak15TXpjeU5UTXlPakUwTnpjNE16ZA3pPRGs2TWpVME1EazJNVFl4TXc9PQZDZD
p10
ssVnext
p11
Vhttps://graph.facebook.com/v2.6/118828831495943_1401021029943377/reactions?access_token=599965930180946%7C575aa5390a4589483de7f8cf99702788&limit=1&after=TVRBd01EQXhOak15TXpjeU5UTXlPakUwTnpjNE16ZA3pPRGs2TWpVME1EazJNVFl4TXc9PQZDZD
p12
ssVdata
p13
(lp14
(dp15
Vtype
p16
VLIKE
p17
sVid
p18
V1101007459963656
p19
sVname
p20
VAtaullah Arain
p21
sassg20
VTimeline Photos
p22
sVshares
p23
(dp24
Vcount
p25
I128
ssVlink
p26
Vhttps://www.facebook.com/ExplorePakistan/photos/a.118837968161696.8199.118828831495943/1401021029943377/?type=3
p27
sVcomments
p28
(dp29
g3
(dp30
g5
(dp31
g7
VMgZDZD
p32
sg9
VOQZDZD
p33
sssg13
(lp34
(dp35
Vcreated_time
p36
V2016-10-16T18:30:08+0000
p37
sVmessage
p38
VIt's really a piece of heaven on earth
p39
sVfrom
p40
(dp41
g20
VHasaan Anna
p42
sg18
V10154659022278559
p43
ssg18
V1401021029943377_1401035549941925
p44
sa(dp45
g36
V2016-10-17T20:05:16+0000
p46
sg38
VTotally fake I know very well the whole Gilgit side are barren. (Dry land)
p47
sg40
(dp48
g20
VAnwar Dev
p49
sg18
V1804702859788974
p50
ssg18
V1401021029943377_1402165909828889
p51
sa(dp52
g36
V2016-10-17T00:52:02+0000
p53
sg38
V
p54
sg40
(dp55
g20
VEdna Tamargo Piano
p56
sg18
V1698865810368035
p57
ssg18
V1401021029943377_1401330059912474
p58
sa(dp59
g36
V2016-10-16T20:11:49+0000
p60
sg38
g54
sg40
(dp61
g20
VAmmar Ahmad
p62
sg18
V1212966198765148
p63
ssg18
V1401021029943377_1401118659933614
p64
sa(dp65
g36
V2016-10-17T11:09:47+0000
p66
sg38
VWhere is this in hunza kindly tell me anyone ???
p67
sg40
(dp68
g20
VMuhammad Ali
p69
sg18
V10155484189074478
p70
ssg18
V1401021029943377_1401732396538907
p71
sa(dp72
g36
V2016-10-17T10:28:05+0000
p73
sg38
VKyia bat hay....g
p74
sg40
(dp75
g20
VMyounaskhan Myounaskhan
p76
sg18
V218545371899725
p77
ssg18
V1401021029943377_1401689419876538
p78
sa(dp79
g36
V2016-10-16T19:58:17+0000
p80
sg38
Vpiece of heaven
p81
sg40
(dp82
g20
VMuhammad Adeel
p83
sg18
V1126326634070135
p84
ssg18
V1401021029943377_1401109559934524
p85
sa(dp86
g36
V2016-10-17T19:21:08+0000
p87
sg38
V\u0634\u06a9\u0631\u06cc\u06c1  \u06cc\u06c1 \u06a9\u0627\u0645 \u06a9\u0631\u062a\u06d2 \u0631\u06c1\u0648
p88
sg40
(dp89
g20
VN Farrukh Sheikh
p90
sg18
V282262642174425
p91
ssg18
V1401021029943377_1402135439831936
p92
sassg36
V2016-10-16T18:06:59+0000
p93
sg38
V#Hunza.... A piece of heaven on earth..\u000a#Gilgit... #Pakistan\u000a\u000aPhoto: MAJID HUSSAIN
p94
sg16
Vphoto
p95
sg18
V118828831495943_1401021029943377
p96
s.