(dp0
Vreactions
p1
(dp2
Vpaging
p3
(dp4
Vcursors
p5
(dp6
Vafter
p7
VTVRBd01EQXdNVFV6TmpnM05qTTVPakUwTnpjM016STNNalU2TWpVME1EazJNVFl4TXc9PQZDZD
p8
sVbefore
p9
VTVRBd01EQXdNVFV6TmpnM05qTTVPakUwTnpjM016STNNalU2TWpVME1EazJNVFl4TXc9PQZDZD
p10
ssVnext
p11
Vhttps://graph.facebook.com/v2.6/118828831495943_1404085679636912/reactions?access_token=599965930180946%7C575aa5390a4589483de7f8cf99702788&limit=1&after=TVRBd01EQXdNVFV6TmpnM05qTTVPakUwTnpjM016STNNalU2TWpVME1EazJNVFl4TXc9PQZDZD
p12
ssVdata
p13
(lp14
(dp15
Vtype
p16
VLIKE
p17
sVid
p18
V1550603961621378
p19
sVname
p20
VM Siraj Ulfat
p21
sassg20
VTimeline Photos
p22
sVshares
p23
(dp24
Vcount
p25
I82
ssVlink
p26
Vhttps://www.facebook.com/ExplorePakistan/photos/a.118837968161696.8199.118828831495943/1404085679636912/?type=3
p27
sVcomments
p28
(dp29
g3
(dp30
g5
(dp31
g7
VMQZDZD
p32
sg9
VNwZDZD
p33
sssg13
(lp34
(dp35
Vcreated_time
p36
V2016-10-19T06:48:21+0000
p37
sVmessage
p38
VWonderful\U0001f60d
p39
sVfrom
p40
(dp41
g20
VEdna Tamargo Piano
p42
sg18
V1698865810368035
p43
ssg18
V1404085679636912_1404103456301801
p44
sa(dp45
g36
V2016-10-20T04:50:35+0000
p46
sg38
VLove \U0001f1f5\U0001f1f0
p47
sg40
(dp48
g20
VRabia Khan
p49
sg18
V1040794366046509
p50
ssg18
V1404085679636912_1405017319543748
p51
sa(dp52
g36
V2016-10-19T18:47:00+0000
p53
sg38
VBeautiful xx
p54
sg40
(dp55
g20
VSarah Brown
p56
sg18
V1709286585960552
p57
ssg18
V1404085679636912_1404591559586324
p58
sa(dp59
g36
V2016-10-19T07:00:50+0000
p60
sg38
VNYXx
p61
sg40
(dp62
g20
VHaider Ali
p63
sg18
V1822655201345330
p64
ssg18
V1404085679636912_1404114856300661
p65
sa(dp66
g36
V2016-10-19T07:59:47+0000
p67
sg38
V\U0001f44d
p68
sg40
(dp69
g20
VHira Zaheer
p70
sg18
V333331287029058
p71
ssg18
V1404085679636912_1404137236298423
p72
sa(dp73
g36
V2016-10-19T14:16:11+0000
p74
sg38
VIts Dimer Basha  Dam site 40km down of chilas town
p75
sg40
(dp76
g20
VTariq Anwar
p77
sg18
V1146393728758919
p78
ssg18
V1404085679636912_1404373509608129
p79
sa(dp80
g36
V2016-10-19T10:56:13+0000
p81
sg38
VHamza Aslam Shoaib Khan rasta dekh  ly beta...\U0001f602\U0001f602
p82
sg40
(dp83
g20
VAbid Karimi
p84
sg18
V887179234751895
p85
ssg18
V1404085679636912_1404228936289253
p86
sassg36
V2016-10-19T06:04:20+0000
p87
sg38
V#RIVER #INDUS near #Chilas..This is a place between Shatiyal(Kohistan) and Chilas(Diamer)...
p88
sg16
Vphoto
p89
sg18
V118828831495943_1404085679636912
p90
s.