(dp0
Vreactions
p1
(dp2
Vpaging
p3
(dp4
Vcursors
p5
(dp6
Vafter
p7
VTVRBd01EQXdNVFV6TmpnM05qTTVPakUwTnpjM016STNPRGc2TWpVME1EazJNVFl4TXc9PQZDZD
p8
sVbefore
p9
VTVRBd01EQXdNVFV6TmpnM05qTTVPakUwTnpjM016STNPRGc2TWpVME1EazJNVFl4TXc9PQZDZD
p10
ssVnext
p11
Vhttps://graph.facebook.com/v2.6/118828831495943_1399826456729501/reactions?access_token=599965930180946%7C575aa5390a4589483de7f8cf99702788&summary=true&limit=1&after=TVRBd01EQXdNVFV6TmpnM05qTTVPakUwTnpjM016STNPRGc2TWpVME1EazJNVFl4TXc9PQZDZD
p12
ssVdata
p13
(lp14
(dp15
Vtype
p16
VLIKE
p17
sVid
p18
V1550603961621378
p19
sVname
p20
VM Siraj Ulfat
p21
sasVsummary
p22
(dp23
Vtotal_count
p24
I3234
sVviewer_reaction
p25
VNONE
p26
sssg20
VTimeline Photos
p27
sVshares
p28
(dp29
Vcount
p30
I427
ssVlink
p31
Vhttps://www.facebook.com/ExplorePakistan/photos/a.118837968161696.8199.118828831495943/1399826456729501/?type=3
p32
sVcomments
p33
(dp34
g3
(dp35
g5
(dp36
g7
VNDIZD
p37
sg9
VNjEZD
p38
ssg11
Vhttps://graph.facebook.com/v2.6/118828831495943_1399826456729501/comments?access_token=599965930180946%7C575aa5390a4589483de7f8cf99702788&limit=20&after=NDIZD
p39
ssg13
(lp40
(dp41
Vcreated_time
p42
V2016-10-15T18:27:42+0000
p43
sVmessage
p44
VLovely place to visit
p45
sVfrom
p46
(dp47
g20
VMuhammad Saleh
p48
sg18
V10209284831591592
p49
ssg18
V1399826456729501_1399972013381612
p50
sa(dp51
g42
V2016-10-15T16:08:46+0000
p52
sg44
VBest\u000aShot is taken from sundus/ hargisa side. Far distance, green patch is gamba n chunda.
p53
sg46
(dp54
g20
VUsman Iftikhar Chaudary
p55
sg18
V1092030484221444
p56
ssg18
V1399826456729501_1399844273394386
p57
sa(dp58
g42
V2016-10-15T16:38:09+0000
p59
sg44
VMasha'allah, i'm Arab,Yemeni and i'm in love with this beauty, long life Pakistan! <3
p60
sg46
(dp61
g20
V\u0628\u0646\u062a\u0634 \u064a\u0627\u0634\u0628\u0648\u0629
p62
sg18
V264913803910319
p63
ssg18
V1399826456729501_1399879856724161
p64
sa(dp65
g42
V2016-10-15T19:00:16+0000
p66
sg44
VHere's another stunning photo of this desert
p67
sg46
(dp68
g20
VJawad Ahmed
p69
sg18
V602294243283573
p70
ssg18
V1399826456729501_1400002696711877
p71
sa(dp72
g42
V2016-10-15T17:53:04+0000
p73
sg44
V\U0001f60d
p74
sg46
(dp75
g20
VKomal Naveed
p76
sg18
V1810937055818403
p77
ssg18
V1399826456729501_1399942430051237
p78
sa(dp79
g42
V2016-10-15T16:30:30+0000
p80
sg44
VJust lv it..super lovely...\U0001f60d\U0001f619\U0001f618
p81
sg46
(dp82
g20
VEdna Tamargo Piano
p83
sg18
V1698865810368035
p84
ssg18
V1399826456729501_1399874233391390
p85
sa(dp86
g42
V2016-10-15T20:17:22+0000
p87
sg44
VV beautiful
p88
sg46
(dp89
g20
VRukhsana Khan
p90
sg18
V1747273428855478
p91
ssg18
V1399826456729501_1400070580038422
p92
sa(dp93
g42
V2016-10-16T05:17:10+0000
p94
sg44
VLovely capture
p95
sg46
(dp96
g20
VJawaid Islam
p97
sg18
V10157633927075453
p98
ssg18
V1399826456729501_1400443803334433
p99
sa(dp100
g42
V2016-10-15T19:23:44+0000
p101
sg44
VMashaAllah
p102
sg46
(dp103
g20
VMian Basit Joiya
p104
sg18
V1258996707453695
p105
ssg18
V1399826456729501_1400027606709386
p106
sa(dp107
g42
V2016-10-15T16:36:36+0000
p108
sg44
VBeautiful
p109
sg46
(dp110
g20
VMemee Janjua
p111
sg18
V1682698945313547
p112
ssg18
V1399826456729501_1399878293390984
p113
sa(dp114
g42
V2016-10-16T16:06:37+0000
p115
sg44
VAww lovely
p116
sg46
(dp117
g20
VZoha Zameer
p118
sg18
V1022467867841709
p119
ssg18
V1399826456729501_1400930979952382
p120
sa(dp121
g42
V2016-10-16T06:08:26+0000
p122
sg44
Vma shah ALLAH
p123
sg46
(dp124
g20
VWaqas Ahmad Khan
p125
sg18
V1196179603801576
p126
ssg18
V1399826456729501_1400471529998327
p127
sa(dp128
g42
V2016-10-15T15:56:37+0000
p129
sg44
VIntikhab Alam the view frm this desert is just wow\U0001f44c\u2764\U0001f60d\U0001f60d
p130
sg46
(dp131
g20
VSamar Altaf
p132
sg18
V1127836597293249
p133
ssg18
V1399826456729501_1399835903395223
p134
sa(dp135
g42
V2016-10-17T18:17:39+0000
p136
sg44
V
p137
sg46
(dp138
g20
VBk Ahmed
p139
sg18
V1817100448573289
p140
ssg18
V1399826456729501_1402089689836511
p141
sa(dp142
g42
V2016-10-16T17:50:49+0000
p143
sg44
g137
sg46
(dp144
g20
VAmir Mahmood Khokhar
p145
sg18
V1155003497869821
p146
ssg18
V1399826456729501_1401009663277847
p147
sa(dp148
g42
V2016-10-16T18:34:40+0000
p149
sg44
VSoHaib AhMed never seen a desert like this before
p150
sg46
(dp151
g20
VFaraz Hussain
p152
sg18
V773992412739625
p153
ssg18
V1399826456729501_1401042416607905
p154
sa(dp155
g42
V2016-10-16T08:13:27+0000
p156
sg44
VThat's a lovely place to visit..
p157
sg46
(dp158
g20
VHina Malik
p159
sg18
V10211638795191981
p160
ssg18
V1399826456729501_1400531676658979
p161
sa(dp162
g42
V2016-10-17T19:31:00+0000
p163
sg44
V\u067e\u06cc\u0627\u0631\u0627 \u0648\u0637\u0646 \u06c1\u0645\u0627\u0631\u0627
p164
sg46
(dp165
g20
VN Farrukh Sheikh
p166
sg18
V282262642174425
p167
ssg18
V1399826456729501_1402144776497669
p168
sa(dp169
g42
V2016-10-15T16:41:43+0000
p170
sg44
VAWESOME.
p171
sg46
(dp172
g20
VImran Husmit Ratul
p173
sg18
V1728919387427109
p174
ssg18
V1399826456729501_1399882996723847
p175
sa(dp176
g42
V2016-10-15T18:37:00+0000
p177
sg44
V\U0001f44d\U0001f44d
p178
sg46
(dp179
g20
VMohammad Fahim Sharif
p180
sg18
V10208191092750221
p181
ssg18
V1399826456729501_1399985206713626
p182
sassg42
V2016-10-15T15:40:57+0000
p183
sg44
VThe #Katpana Desert at #Skardu, #Gilgit-#Baltistan in #Pakistan, this desert is also known as the "Cold Desert"
p184
sg16
Vphoto
p185
sg18
V118828831495943_1399826456729501
p186
s.