(dp0
Vreactions
p1
(dp2
Vpaging
p3
(dp4
Vcursors
p5
(dp6
Vafter
p7
VTVRBd01EQTROekF5T1RRME5EazFPakUwTnpjNE5ERTBOakU2TWpVME1EazJNVFl4TXc9PQZDZD
p8
sVbefore
p9
VTVRBd01EQTROekF5T1RRME5EazFPakUwTnpjNE5ERTBOakU2TWpVME1EazJNVFl4TXc9PQZDZD
p10
ssVnext
p11
Vhttps://graph.facebook.com/v2.6/118828831495943_1402068756505271/reactions?access_token=599965930180946%7C575aa5390a4589483de7f8cf99702788&limit=1&after=TVRBd01EQTROekF5T1RRME5EazFPakUwTnpjNE5ERTBOakU2TWpVME1EazJNVFl4TXc9PQZDZD
p12
ssVdata
p13
(lp14
(dp15
Vtype
p16
VLIKE
p17
sVid
p18
V1624136941219722
p19
sVname
p20
VSyed Turab Haider Shah
p21
sassg20
VTimeline Photos
p22
sVshares
p23
(dp24
Vcount
p25
I259
ssVlink
p26
Vhttps://www.facebook.com/ExplorePakistan/photos/a.118837968161696.8199.118828831495943/1402068756505271/?type=3
p27
sVcomments
p28
(dp29
g3
(dp30
g5
(dp31
g7
VMQZDZD
p32
sg9
VMTUZD
p33
sssg13
(lp34
(dp35
Vcreated_time
p36
V2016-10-17T21:26:00+0000
p37
sVmessage
p38
VSubhannalah
p39
sVfrom
p40
(dp41
g20
VHumza Irfan
p42
sg18
V1279441542108189
p43
ssg18
V1402068756505271_1402266629818817
p44
sa(dp45
g36
V2016-10-17T17:48:53+0000
p46
sg38
VMa sha Allah, heaven on earth\U0001f618\U0001f60d\U0001f493
p47
sg40
(dp48
g20
VQaiser Altaf
p49
sg18
V1883610798524970
p50
ssg18
V1402068756505271_1402069403171873
p51
sa(dp52
g36
V2016-10-17T17:55:39+0000
p53
sg38
VMaa Shaa Allah...amazing place...beautiful greeny farm...\U0001f60d\U0001f60d\U0001f60d
p54
sg40
(dp55
g20
VEdna Tamargo Piano
p56
sg18
V1698865810368035
p57
ssg18
V1402068756505271_1402072569838223
p58
sa(dp59
g36
V2016-10-18T06:46:43+0000
p60
sg38
VSubhanAllah\U0001f60d\U0001f60d\U0001f60d
p61
sg40
(dp62
g20
VFarrah Khawar Shafiq
p63
sg18
V885578651572059
p64
ssg18
V1402068756505271_1402772646434882
p65
sa(dp66
g36
V2016-10-17T18:56:09+0000
p67
sg38
VVisit Shigar and also see Shigar fort. Really amazing.
p68
sg40
(dp69
g20
VMujtaba Hussain
p70
sg18
V210165886084292
p71
ssg18
V1402068756505271_1402119279833552
p72
sa(dp73
g36
V2016-10-18T23:35:10+0000
p74
sg38
Vnice
p75
sg40
(dp76
g20
VOmran Zaman
p77
sg18
V915463121931349
p78
ssg18
V1402068756505271_1403807362998077
p79
sa(dp80
g36
V2016-10-19T07:01:14+0000
p81
sg38
V\U0001f60d\U0001f60d
p82
sg40
(dp83
g20
VHaider Ali
p84
sg18
V1822655201345330
p85
ssg18
V1402068756505271_1404114956300651
p86
sa(dp87
g36
V2016-10-17T18:49:13+0000
p88
sg38
VGohar Khan\u000aHum kahan gaey thy yr \U0001f62e
p89
sg40
(dp90
g20
VCh Zeeshan
p91
sg18
V1566743090018204
p92
ssg18
V1402068756505271_1402113329834147
p93
sa(dp94
g36
V2016-10-18T07:43:48+0000
p95
sg38
VBeauutiful.. <3
p96
sg40
(dp97
g20
VZobash Asim
p98
sg18
V1591652597804686
p99
ssg18
V1402068756505271_1402837526428394
p100
sa(dp101
g36
V2016-10-19T17:40:50+0000
p102
sg38
VMohsin Ausaf Bilal Samad Ali
p103
sg40
(dp104
g20
VZeerak Aftab
p105
sg18
V1210971108925776
p106
ssg18
V1402068756505271_1404534842925329
p107
sa(dp108
g36
V2016-10-18T03:27:45+0000
p109
sg38
VAdeel Masoud
p110
sg40
(dp111
g20
VSunnor Gull
p112
sg18
V1348328461844994
p113
ssg18
V1402068756505271_1402529416459205
p114
sa(dp115
g36
V2016-10-17T19:00:54+0000
p116
sg38
VMohammad Abdul Tahseen
p117
sg40
(dp118
g20
VMansoor Alam
p119
sg18
V10157671868785300
p120
ssg18
V1402068756505271_1402123499833130
p121
sa(dp122
g36
V2016-10-17T23:20:04+0000
p123
sg38
VHubba Naizsh
p124
sg40
(dp125
g20
VShaz Khan
p126
sg18
V10207551614524307
p127
ssg18
V1402068756505271_1402339489811531
p128
sa(dp129
g36
V2016-10-18T12:39:47+0000
p130
sg38
VAbdul Wahab
p131
sg40
(dp132
g20
VSufiyan Ul Haq
p133
sg18
V1293382700723952
p134
ssg18
V1402068756505271_1403136603065153
p135
sa(dp136
g36
V2016-10-17T18:46:01+0000
p137
sg38
VBeautyful pakistan
p138
sg40
(dp139
g20
VN Farrukh Sheikh
p140
sg18
V282262642174425
p141
ssg18
V1402068756505271_1402110929834387
p142
sassg36
V2016-10-17T17:47:29+0000
p143
sg38
VThe #Shigar Valley is a valley in #Baltistan in northern #Pakistan that is watered by the Shigar River. The valley stretches about 170 km from #Skardu to Askole and is the gateway to the high mountains of the #Karakoram...
p144
sg16
Vphoto
p145
sg18
V118828831495943_1402068756505271
p146
s.