(dp0
Vreactions
p1
(dp2
Vpaging
p3
(dp4
Vcursors
p5
(dp6
Vafter
p7
VTVRBd01EQTROekF5T1RRME5EazFPakUwTnpjNE5ERXpPVGs2TWpVME1EazJNVFl4TXc9PQZDZD
p8
sVbefore
p9
VTVRBd01EQTROekF5T1RRME5EazFPakUwTnpjNE5ERXpPVGs2TWpVME1EazJNVFl4TXc9PQZDZD
p10
ssVnext
p11
Vhttps://graph.facebook.com/v2.6/118828831495943_1406025616109585/reactions?access_token=599965930180946%7C575aa5390a4589483de7f8cf99702788&limit=1&after=TVRBd01EQTROekF5T1RRME5EazFPakUwTnpjNE5ERXpPVGs2TWpVME1EazJNVFl4TXc9PQZDZD
p12
ssVdata
p13
(lp14
(dp15
Vtype
p16
VLIKE
p17
sVid
p18
V1624136941219722
p19
sVname
p20
VSyed Turab Haider Shah
p21
sassg20
VTimeline Photos
p22
sVshares
p23
(dp24
Vcount
p25
I224
ssVlink
p26
Vhttps://www.facebook.com/ExplorePakistan/photos/a.118837968161696.8199.118828831495943/1406025616109585/?type=3
p27
sVcomments
p28
(dp29
g3
(dp30
g5
(dp31
g7
VMQZDZD
p32
sg9
VMTUZD
p33
sssg13
(lp34
(dp35
Vcreated_time
p36
V2016-10-21T08:12:56+0000
p37
sVmessage
p38
VBeautiful
p39
sVfrom
p40
(dp41
g20
VMemee Janjua
p42
sg18
V1682698945313547
p43
ssg18
V1406025616109585_1406086399436840
p44
sa(dp45
g36
V2016-10-21T10:18:42+0000
p46
sg38
Vsoooooo beautiful
p47
sg40
(dp48
g20
VSyed Uzair
p49
sg18
V707020942779093
p50
ssg18
V1406025616109585_1406168006095346
p51
sa(dp52
g36
V2016-10-21T09:40:55+0000
p53
sg38
VMy City
p54
sg40
(dp55
g20
VAwais Khan Tanoli
p56
sg18
V1739852096279071
p57
ssg18
V1406025616109585_1406138162764997
p58
sa(dp59
g36
V2016-10-21T07:57:43+0000
p60
sg38
VBeautiful
p61
sg40
(dp62
g20
VRao Rao Rao
p63
sg18
V418611955193540
p64
ssg18
V1406025616109585_1406064292772384
p65
sa(dp66
g36
V2016-10-21T10:02:07+0000
p67
sg38
VNathia gali... or ayubia forest
p68
sg40
(dp69
g20
VMuhammad Ayub Noor MoHmand
p70
sg18
V1032221340203262
p71
ssg18
V1406025616109585_1406152919430188
p72
sa(dp73
g36
V2016-10-21T14:16:34+0000
p74
sg38
VWas there last Friday
p75
sg40
(dp76
g20
VFaiq Ahmed Javaid
p77
sg18
V1106948536044687
p78
ssg18
V1406025616109585_1406356959409784
p79
sa(dp80
g36
V2016-10-22T15:58:42+0000
p81
sg38
VSOOO BEAUTIFUL, MA SHAA ALLAH!!
p82
sg40
(dp83
g20
VQuaideazam Iqbal
p84
sg18
V1779926222266063
p85
ssg18
V1406025616109585_1407566855955461
p86
sa(dp87
g36
V2016-10-21T16:03:42+0000
p88
sg38
VBeautiful country God bless Pakistan \U0001f1f5\U0001f1f0
p89
sg40
(dp90
g20
VJaved Pai
p91
sg18
V10154330757824093
p92
ssg18
V1406025616109585_1406439526068194
p93
sa(dp94
g36
V2016-10-21T17:44:20+0000
p95
sg38
VBeautiful! It reminds me a lot of Colorado state.
p96
sg40
(dp97
g20
VTonya Maddox Cupp
p98
sg18
V10211200209623527
p99
ssg18
V1406025616109585_1406528269392653
p100
sa(dp101
g36
V2016-10-21T20:14:07+0000
p102
sg38
VWonderful
p103
sg40
(dp104
g20
VEdna Tamargo Piano
p105
sg18
V1698865810368035
p106
ssg18
V1406025616109585_1406647362714077
p107
sa(dp108
g36
V2016-10-21T18:46:56+0000
p109
sg38
VLovely
p110
sg40
(dp111
g20
VSaira Khan
p112
sg18
V1227938677262177
p113
ssg18
V1406025616109585_1406568782721935
p114
sa(dp115
g36
V2016-10-21T13:36:06+0000
p116
sg38
VBeautiful.
p117
sg40
(dp118
g20
VPritee Kathpal
p119
sg18
V1755107278074087
p120
ssg18
V1406025616109585_1406331572745656
p121
sa(dp122
g36
V2016-10-21T13:35:31+0000
p123
sg38
VAwesome
p124
sg40
(dp125
g20
VHira Zaheer
p126
sg18
V333331287029058
p127
ssg18
V1406025616109585_1406331262745687
p128
sa(dp129
g36
V2016-10-21T16:50:55+0000
p130
sg38
V\U0001f44d\U0001f44d
p131
sg40
(dp132
g20
VShady Umrani
p133
sg18
V188622634919371
p134
ssg18
V1406025616109585_1406489086063238
p135
sa(dp136
g36
V2016-10-22T05:25:16+0000
p137
sg38
VAnas
p138
sg40
(dp139
g20
VSadaf Sajid Moazzam
p140
sg18
V1184569421629802
p141
ssg18
V1406025616109585_1407046552674158
p142
sassg36
V2016-10-21T07:03:09+0000
p143
sg38
VFrom #Abbottabad KPK towards #Murree PUNJAB..
p144
sg16
Vphoto
p145
sg18
V118828831495943_1406025616109585
p146
s.