(dp0
Vreactions
p1
(dp2
Vpaging
p3
(dp4
Vcursors
p5
(dp6
Vafter
p7
VTVRBd01ERXdNRFUxTWpNMk9EWTJPakUwTnpjM01UTXlNRGs2TWpVME1EazJNVFl4TXc9PQZDZD
p8
sVbefore
p9
VTVRBd01ERXdNRFUxTWpNMk9EWTJPakUwTnpjM01UTXlNRGs2TWpVME1EazJNVFl4TXc9PQZDZD
p10
ssVnext
p11
Vhttps://graph.facebook.com/v2.6/118828831495943_1385915864787227/reactions?access_token=599965930180946%7C575aa5390a4589483de7f8cf99702788&summary=true&limit=1&after=TVRBd01ERXdNRFUxTWpNMk9EWTJPakUwTnpjM01UTXlNRGs2TWpVME1EazJNVFl4TXc9PQZDZD
p12
ssVdata
p13
(lp14
(dp15
Vtype
p16
VLIKE
p17
sVid
p18
V364818280530010
p19
sVname
p20
VFida Hussain
p21
sasVsummary
p22
(dp23
Vtotal_count
p24
I2565
sVviewer_reaction
p25
VNONE
p26
sssg20
VTimeline Photos
p27
sVshares
p28
(dp29
Vcount
p30
I270
ssVlink
p31
Vhttps://www.facebook.com/ExplorePakistan/photos/a.118837968161696.8199.118828831495943/1385915864787227/?type=3
p32
sVcomments
p33
(dp34
g3
(dp35
g5
(dp36
g7
VNDIZD
p37
sg9
VNjEZD
p38
ssg11
Vhttps://graph.facebook.com/v2.6/118828831495943_1385915864787227/comments?access_token=599965930180946%7C575aa5390a4589483de7f8cf99702788&limit=20&after=NDIZD
p39
ssg13
(lp40
(dp41
Vcreated_time
p42
V2016-10-01T18:02:20+0000
p43
sVmessage
p44
V
p45
sVfrom
p46
(dp47
g20
VTalal Khan
p48
sg18
V1158236947595877
p49
ssg18
V1385915864787227_1385981781447302
p50
sa(dp51
g42
V2016-10-01T17:50:39+0000
p52
sg44
g45
sg46
(dp53
g20
VAshfaq Ghafoor
p54
sg18
V10209267773424015
p55
ssg18
V1385915864787227_1385969154781898
p56
sa(dp57
g42
V2016-10-01T16:59:22+0000
p58
sg44
VBeen there, done that.!
p59
sg46
(dp60
g20
VMuhammad Ali
p61
sg18
V1528319223861260
p62
ssg18
V1385915864787227_1385922408119906
p63
sa(dp64
g42
V2016-10-01T17:27:08+0000
p65
sg44
VOur valley our palace...proud to be a GBian...\U0001f60a\U0001f60a
p66
sg46
(dp67
g20
VAbid Karimi
p68
sg18
V887179234751895
p69
ssg18
V1385915864787227_1385947504784063
p70
sa(dp71
g42
V2016-10-01T17:26:43+0000
p72
sg44
VBeautiful place
p73
sg46
(dp74
g20
VMahrukh Rehman Khan
p75
sg18
V1075258135921477
p76
ssg18
V1385915864787227_1385947331450747
p77
sa(dp78
g42
V2016-10-01T20:29:03+0000
p79
sg44
Vdiyar e dil.#waliandfara #diyaredilyaadain #tjebestplace\u000aFaiQa HashMi\u000a\U0001f60d
p80
sg46
(dp81
g20
VRaniya Hashmi
p82
sg18
V311871212529513
p83
ssg18
V1385915864787227_1386097768102370
p84
sa(dp85
g42
V2016-10-01T19:21:16+0000
p86
sg44
VWhat an amazing capture. Everytime I see this fort .. DIYAR E DIL came in my mind \U0001f49f
p87
sg46
(dp88
g20
VSarah Husain
p89
sg18
V10154316129813141
p90
ssg18
V1385915864787227_1386049284773885
p91
sa(dp92
g42
V2016-10-04T12:11:49+0000
p93
sg44
VWe need to go there Fahad Saleem dayar e dil was shot there Tuba Shah
p94
sg46
(dp95
g20
VMahwish Fahad
p96
sg18
V10157678021490174
p97
ssg18
V1385915864787227_1388613481184132
p98
sa(dp99
g42
V2016-10-01T17:47:49+0000
p100
sg44
VAgha jaan ki haveli...Dyar e Dil...beautiful \U0001f60a
p101
sg46
(dp102
g20
VRumiza Ch
p103
sg18
V1667914393521213
p104
ssg18
V1385915864787227_1385964904782323
p105
sa(dp106
g42
V2016-10-01T20:05:22+0000
p107
sg44
g45
sg46
(dp108
g20
VYousaf Jutt
p109
sg18
V1136869706389440
p110
ssg18
V1385915864787227_1386081601437320
p111
sa(dp112
g42
V2016-10-02T07:46:18+0000
p113
sg44
VEntrance of Khaplu palace
p114
sg46
(dp115
g20
VTalal Khan
p116
sg18
V1158236947595877
p117
ssg18
V1385915864787227_1386546701390810
p118
sa(dp119
g42
V2016-10-01T17:11:07+0000
p120
sg44
VI have been there in 2014 beautiful khaplu
p121
sg46
(dp122
g20
V\u0627\u0633\u0645\u0627 \u0646\u0627\u0630
p123
sg18
V1811276925820005
p124
ssg18
V1385915864787227_1385932478118899
p125
sa(dp126
g42
V2016-10-01T22:01:32+0000
p127
sg44
VFaizan Ahmad what a place to live yar \u2764
p128
sg46
(dp129
g20
VTaha Sheikh
p130
sg18
V1144092259012537
p131
ssg18
V1385915864787227_1386166308095516
p132
sa(dp133
g42
V2016-10-01T17:06:13+0000
p134
sg44
VDreaming\U0001f60d\U0001f61a\U0001f61a\U0001f61a\U0001f618
p135
sg46
(dp136
g20
VTehreem Khan
p137
sg18
V1696832037239607
p138
ssg18
V1385915864787227_1385926358119511
p139
sa(dp140
g42
V2016-10-01T17:06:40+0000
p141
sg44
g45
sg46
(dp142
g20
VZu BA Ir
p143
sg18
V1161614650587097
p144
ssg18
V1385915864787227_1385926841452796
p145
sa(dp146
g42
V2016-10-01T17:02:09+0000
p147
sg44
Vwooooow nice
p148
sg46
(dp149
g20
VSanam Zeb
p150
sg18
V328804570830393
p151
ssg18
V1385915864787227_1385924044786409
p152
sa(dp153
g42
V2016-10-02T18:48:00+0000
p154
sg44
VWonderfull!! MashaAllah! <3
p155
sg46
(dp156
g20
VAkm Venkman
p157
sg18
V323185444731685
p158
ssg18
V1385915864787227_1387054944673319
p159
sa(dp160
g42
V2016-10-01T19:51:34+0000
p161
sg44
g45
sg46
(dp162
g20
VAK Khan
p163
sg18
V1646137995635766
p164
ssg18
V1385915864787227_1386070504771763
p165
sa(dp166
g42
V2016-10-02T00:02:21+0000
p167
sg44
Vbeautiful place
p168
sg46
(dp169
g20
VEid Amon
p170
sg18
V1808944726044035
p171
ssg18
V1385915864787227_1386252578086889
p172
sa(dp173
g42
V2016-10-01T17:49:07+0000
p174
sg44
VAallaa
p175
sg46
(dp176
g20
VAmeer Akbar Seyal
p177
sg18
V1060168257434955
p178
ssg18
V1385915864787227_1385965818115565
p179
sassg42
V2016-10-01T16:55:43+0000
p180
sg44
V#Khaplu Palace, locally known as Yabgo Khar, is an old fort and palace located in Khaplu, in the #Baltistan region of #Gilgit-Baltistan Province in Northern #Pakistan.\u000a\u000aPhoto: Zia ul Haq
p181
sg16
Vphoto
p182
sg18
V118828831495943_1385915864787227
p183
s.