(dp0
Vreactions
p1
(dp2
Vpaging
p3
(dp4
Vcursors
p5
(dp6
Vafter
p7
VTVRBd01ERXdNRFUxTWpNMk9EWTJPakUwTnpjM01UTXhNekE2TWpVME1EazJNVFl4TXc9PQZDZD
p8
sVbefore
p9
VTVRBd01ERXdNRFUxTWpNMk9EWTJPakUwTnpjM01UTXhNekE2TWpVME1EazJNVFl4TXc9PQZDZD
p10
ssVnext
p11
Vhttps://graph.facebook.com/v2.6/118828831495943_1392462737465873/reactions?access_token=599965930180946%7C575aa5390a4589483de7f8cf99702788&summary=true&limit=1&after=TVRBd01ERXdNRFUxTWpNMk9EWTJPakUwTnpjM01UTXhNekE2TWpVME1EazJNVFl4TXc9PQZDZD
p12
ssVdata
p13
(lp14
(dp15
Vtype
p16
VLIKE
p17
sVid
p18
V364818280530010
p19
sVname
p20
VFida Hussain
p21
sasVsummary
p22
(dp23
Vtotal_count
p24
I2092
sVviewer_reaction
p25
VNONE
p26
sssg20
VTimeline Photos
p27
sVshares
p28
(dp29
Vcount
p30
I293
ssVlink
p31
Vhttps://www.facebook.com/ExplorePakistan/photos/a.118837968161696.8199.118828831495943/1392462737465873/?type=3
p32
sVcomments
p33
(dp34
g3
(dp35
g5
(dp36
g7
VMQZDZD
p37
sg9
VMTcZD
p38
sssg13
(lp39
(dp40
Vcreated_time
p41
V2016-10-08T16:04:28+0000
p42
sVmessage
p43
V
p44
sVfrom
p45
(dp46
g20
VNazia Yasir
p47
sg18
V1676760069320765
p48
ssg18
V1392462737465873_1392494410796039
p49
sa(dp50
g41
V2016-10-08T16:08:54+0000
p51
sg43
VAltit is love (y)
p52
sg45
(dp53
g20
VShahzad Hussain
p54
sg18
V675606822597619
p55
ssg18
V1392462737465873_1392497770795703
p56
sa(dp57
g41
V2016-10-08T15:41:40+0000
p58
sg43
VBeautiful
p59
sg45
(dp60
g20
VHasaan Anna
p61
sg18
V10154659022278559
p62
ssg18
V1392462737465873_1392473810798099
p63
sa(dp64
g41
V2016-10-08T15:32:12+0000
p65
sg43
VBreathtaking
p66
sg45
(dp67
g20
VNoreen Armaghan
p68
sg18
V10153872694456044
p69
ssg18
V1392462737465873_1392463720799108
p70
sa(dp71
g41
V2016-10-08T16:25:05+0000
p72
sg43
VZabadast
p73
sg45
(dp74
g20
VSardar Ahmad
p75
sg18
V195819530861390
p76
ssg18
V1392462737465873_1392511950794285
p77
sa(dp78
g41
V2016-10-08T17:37:13+0000
p79
sg43
VMind boggling
p80
sg45
(dp81
g20
VImran Khan
p82
sg18
V10154727485058793
p83
ssg18
V1392462737465873_1392575264121287
p84
sa(dp85
g41
V2016-10-08T15:53:19+0000
p86
sg43
VStunning   ...... miss  u soo soo soo soo much ...... day and night ...... may Allah keep u safe,blessed and always beautiful  .. ameen
p87
sg45
(dp88
g20
VMuhammad Ali
p89
sg18
V10155484189074478
p90
ssg18
V1392462737465873_1392484707463676
p91
sa(dp92
g41
V2016-10-09T23:12:20+0000
p93
sg43
VSubhannalah!  No words
p94
sg45
(dp95
g20
VHumza Irfan
p96
sg18
V1279441542108189
p97
ssg18
V1392462737465873_1393752614003552
p98
sa(dp99
g41
V2016-10-09T01:54:02+0000
p100
sg43
VAwesome beauty
p101
sg45
(dp102
g20
VMos Mohd
p103
sg18
V1441638009187552
p104
ssg18
V1392462737465873_1392920684086745
p105
sa(dp106
g41
V2016-10-11T07:02:24+0000
p107
sg43
VSubhan Allah
p108
sg45
(dp109
g20
VUsman Arshad
p110
sg18
V404532116602206
p111
ssg18
V1392462737465873_1394985583880255
p112
sa(dp113
g41
V2016-10-08T17:10:49+0000
p114
sg43
VKief Cheef check this out :)
p115
sg45
(dp116
g20
VAbdul Wasay Mahmood
p117
sg18
V10155397776182564
p118
ssg18
V1392462737465873_1392552077456939
p119
sa(dp120
g41
V2016-10-11T10:49:28+0000
p121
sg43
VHunza valley
p122
sg45
(dp123
g20
VAbdul Rehman
p124
sg18
V373324549725165
p125
ssg18
V1392462737465873_1395094880535992
p126
sa(dp127
g41
V2016-10-09T13:08:37+0000
p128
sg43
VNice
p129
sg45
(dp130
g20
VAayaan Khan
p131
sg18
V173906879734694
p132
ssg18
V1392462737465873_1393317750713705
p133
sa(dp134
g41
V2016-10-08T17:11:04+0000
p135
sg43
VAli Hussein Alhumaidi check this out :)
p136
sg45
(dp137
g20
VAbdul Wasay Mahmood
p138
sg18
V10155397776182564
p139
ssg18
V1392462737465873_1392552187456928
p140
sa(dp141
g41
V2016-10-09T04:55:33+0000
p142
sg43
VSnaa S. Sulaiman this is the place ?
p143
sg45
(dp144
g20
VOsama Zhr
p145
sg18
V10209447818206678
p146
ssg18
V1392462737465873_1393032120742268
p147
sa(dp148
g41
V2016-10-08T21:05:51+0000
p149
sg43
VSaqib Kadri Maliha Azeem
p150
sg45
(dp151
g20
VMuhammad Azeem Uddin
p152
sg18
V10155350463112786
p153
ssg18
V1392462737465873_1392719320773548
p154
sa(dp155
g41
V2016-10-08T17:04:59+0000
p156
sg43
VAteeq Ur RehmanAteeq :-)
p157
sg45
(dp158
g20
VFasih Ur Rehman
p159
sg18
V1791786324370988
p160
ssg18
V1392462737465873_1392543770791103
p161
sassg41
V2016-10-08T15:29:58+0000
p162
sg43
V#Hunza valley... #Gilgit\u000a#PAKISTAN\u000a\u000aPhoto:Mansoor Ali Zaidi
p163
sg16
Vphoto
p164
sg18
V118828831495943_1392462737465873
p165
s.