(dp0
Vreactions
p1
(dp2
Vpaging
p3
(dp4
Vcursors
p5
(dp6
Vafter
p7
VTVRBd01EQTVNREExT1RBNE5EVXhPakUwTnpjNE1qSTVOamc2TWpVME1EazJNVFl4TXc9PQZDZD
p8
sVbefore
p9
VTVRBd01EQTVNREExT1RBNE5EVXhPakUwTnpjNE1qSTVOamc2TWpVME1EazJNVFl4TXc9PQZDZD
p10
ssVnext
p11
Vhttps://graph.facebook.com/v2.6/118828831495943_1406553612723452/reactions?access_token=599965930180946%7C575aa5390a4589483de7f8cf99702788&limit=1&after=TVRBd01EQTVNREExT1RBNE5EVXhPakUwTnpjNE1qSTVOamc2TWpVME1EazJNVFl4TXc9PQZDZD
p12
ssVdata
p13
(lp14
(dp15
Vtype
p16
VLIKE
p17
sVid
p18
V1670278143282366
p19
sVname
p20
VShair Khan
p21
sassg20
VTimeline Photos
p22
sVshares
p23
(dp24
Vcount
p25
I285
ssVlink
p26
Vhttps://www.facebook.com/ExplorePakistan/photos/a.118837968161696.8199.118828831495943/1406553612723452/?type=3
p27
sVcomments
p28
(dp29
g3
(dp30
g5
(dp31
g7
VMjEZD
p32
sg9
VNDAZD
p33
ssg11
Vhttps://graph.facebook.com/v2.6/118828831495943_1406553612723452/comments?access_token=599965930180946%7C575aa5390a4589483de7f8cf99702788&limit=20&after=MjEZD
p34
ssg13
(lp35
(dp36
Vcreated_time
p37
V2016-10-21T18:26:22+0000
p38
sVmessage
p39
VMuja mar do ya le jao yaha full funded, please :)
p40
sVfrom
p41
(dp42
g20
VSara Bano
p43
sg18
V364483967221909
p44
ssg18
V1406553612723452_1406555379389942
p45
sa(dp46
g37
V2016-10-21T18:32:37+0000
p47
sg39
VLalazar in june \U0001f60d
p48
sg41
(dp49
g20
VHamna Bilal
p50
sg18
V1173768069371748
p51
ssg18
V1406553612723452_1406559382722875
p52
sa(dp53
g37
V2016-10-21T18:28:03+0000
p54
sg39
VLush green
p55
sg41
(dp56
g20
VHira Zaheer
p57
sg18
V333331287029058
p58
ssg18
V1406553612723452_1406556772723136
p59
sa(dp60
g37
V2016-10-21T18:29:54+0000
p61
sg39
VLalazar in august ..
p62
sg41
(dp63
g20
VMuhammad Ayub Noor MoHmand
p64
sg18
V1032221340203262
p65
ssg18
V1406553612723452_1406557749389705
p66
sa(dp67
g37
V2016-10-22T00:56:32+0000
p68
sg39
VUmme Hadi, unluckily we cudnt go there.
p69
sg41
(dp70
g20
V\u062b\u0646\u0627\u0621 \u0645\u0631\u06cc\u0645
p71
sg18
V10157915076160556
p72
ssg18
V1406553612723452_1406856889359791
p73
sa(dp74
g37
V2016-10-21T18:53:09+0000
p75
sg39
VShehzor Zafar Tayyaba Habib Khan Sheraz Badar Ud Din yahi hy wo jagaah \U0001f602 Shams Gill Haleem Philip Ashir Azeem
p76
sg41
(dp77
g20
VAmna Habib
p78
sg18
V1159345224142077
p79
ssg18
V1406553612723452_1406572769388203
p80
sa(dp81
g37
V2016-10-21T18:43:23+0000
p82
sg39
VSlay \U0001f60a
p83
sg41
(dp84
g20
VShady Umrani
p85
sg18
V188622634919371
p86
ssg18
V1406553612723452_1406566666055480
p87
sa(dp88
g37
V2016-10-21T19:29:15+0000
p89
sg39
VHaseen \u2661
p90
sg41
(dp91
g20
VTahmina Iqbal
p92
sg18
V10154744254366940
p93
ssg18
V1406553612723452_1406604199385060
p94
sa(dp95
g37
V2016-10-22T13:43:58+0000
p96
sg39
VLalazr from the very center\u000aBut paya is a better place
p97
sg41
(dp98
g20
VFarid Saleem
p99
sg18
V10207788548497034
p100
ssg18
V1406553612723452_1407414692637344
p101
sa(dp102
g37
V2016-10-22T15:59:59+0000
p103
sg39
VSOOOOOOOO AMMMAAAAZZZZIIIINNNNGGGGG, SUBHAAN ALLAH!!!
p104
sg41
(dp105
g20
VQuaideazam Iqbal
p106
sg18
V1779926222266063
p107
ssg18
V1406553612723452_1407567849288695
p108
sa(dp109
g37
V2016-10-23T00:12:37+0000
p110
sg39
Vmaravillozo verde
p111
sg41
(dp112
g20
VNorma Acosta
p113
sg18
V1787482831518994
p114
ssg18
V1406553612723452_1407970299248450
p115
sa(dp116
g37
V2016-10-23T00:11:37+0000
p117
sg39
Vbellisimo
p118
sg41
(dp119
g20
VNorma Acosta
p120
sg18
V1787482831518994
p121
ssg18
V1406553612723452_1407969779248502
p122
sa(dp123
g37
V2016-10-22T19:42:23+0000
p124
sg39
VI saw this place many rimea
p125
sg41
(dp126
g20
VAltaf Hussain
p127
sg18
V1295459843829224
p128
ssg18
V1406553612723452_1407758319269648
p129
sa(dp130
g37
V2016-10-22T10:15:09+0000
p131
sg39
VLalazar in August
p132
sg41
(dp133
g20
VUmar Farooq
p134
sg18
V1223377607728428
p135
ssg18
V1406553612723452_1407236835988463
p136
sa(dp137
g37
V2016-10-21T18:55:01+0000
p138
sg39
VWow awesome
p139
sg41
(dp140
g20
VNaveed Khan
p141
sg18
V1292541380787705
p142
ssg18
V1406553612723452_1406573949388085
p143
sa(dp144
g37
V2016-10-21T20:32:37+0000
p145
sg39
VAmazingly beautiful
p146
sg41
(dp147
g20
VMemee Janjua
p148
sg18
V1682698945313547
p149
ssg18
V1406553612723452_1406660399379440
p150
sa(dp151
g37
V2016-10-21T19:52:42+0000
p152
sg39
VBeautiful
p153
sg41
(dp154
g20
VTanzeela Hussain
p155
sg18
V326007641117043
p156
ssg18
V1406553612723452_1406624942716319
p157
sa(dp158
g37
V2016-10-22T09:09:37+0000
p159
sg39
VTalha Ahmed take me there please
p160
sg41
(dp161
g20
VFaryal Gondal
p162
sg18
V798099353626474
p163
ssg18
V1406553612723452_1407192309326249
p164
sa(dp165
g37
V2016-10-22T10:09:06+0000
p166
sg39
VI came back bt my soul z still there
p167
sg41
(dp168
g20
VOlive Butt
p169
sg18
V1227848727278128
p170
ssg18
V1406553612723452_1407229099322570
p171
sa(dp172
g37
V2016-10-22T02:38:26+0000
p173
sg39
VY Kis trf he naran main
p174
sg41
(dp175
g20
VHoney Khalid
p176
sg18
V1134665769960806
p177
ssg18
V1406553612723452_1406922389353241
p178
sassg37
V2016-10-21T18:23:58+0000
p179
sg39
V#LALAZAR\u2013 located in #Naran, Beautiful Kaghan Valley, #Pakistan. It is the second most wanted tourist destination when visiting Naran after lake Saiful Muluk.
p180
sg16
Vphoto
p181
sg18
V118828831495943_1406553612723452
p182
s.