(dp0
Vreactions
p1
(dp2
Vpaging
p3
(dp4
Vcursors
p5
(dp6
Vafter
p7
VTVRBd01ERXdNRFUxTWpNMk9EWTJPakUwTnpjM01UTXhOek02TWpVME1EazJNVFl4TXc9PQZDZD
p8
sVbefore
p9
VTVRBd01ERXdNRFUxTWpNMk9EWTJPakUwTnpjM01UTXhOek02TWpVME1EazJNVFl4TXc9PQZDZD
p10
ssVnext
p11
Vhttps://graph.facebook.com/v2.6/118828831495943_1390686370976843/reactions?access_token=599965930180946%7C575aa5390a4589483de7f8cf99702788&summary=true&limit=1&after=TVRBd01ERXdNRFUxTWpNMk9EWTJPakUwTnpjM01UTXhOek02TWpVME1EazJNVFl4TXc9PQZDZD
p12
ssVdata
p13
(lp14
(dp15
Vtype
p16
VLIKE
p17
sVid
p18
V364818280530010
p19
sVname
p20
VFida Hussain
p21
sasVsummary
p22
(dp23
Vtotal_count
p24
I1550
sVviewer_reaction
p25
VNONE
p26
sssg20
VTimeline Photos
p27
sVshares
p28
(dp29
Vcount
p30
I141
ssVlink
p31
Vhttps://www.facebook.com/ExplorePakistan/photos/a.118837968161696.8199.118828831495943/1390686370976843/?type=3
p32
sVcomments
p33
(dp34
g3
(dp35
g5
(dp36
g7
VMQZDZD
p37
sg9
VOQZDZD
p38
sssg13
(lp39
(dp40
Vcreated_time
p41
V2016-10-06T15:07:40+0000
p42
sVmessage
p43
VBeauty at its peak
p44
sVfrom
p45
(dp46
g20
VFaiq Ahmed Javaid
p47
sg18
V1106948536044687
p48
ssg18
V1390686370976843_1390717070973773
p49
sa(dp50
g41
V2016-10-06T15:56:14+0000
p51
sg43
V\U0001f60d\U0001f60d\U0001f60d\U0001f60d\U0001f496
p52
sg45
(dp53
g20
VPareeshay Noor
p54
sg18
V1687497931575809
p55
ssg18
V1390686370976843_1390758464302967
p56
sa(dp57
g41
V2016-10-06T16:01:44+0000
p58
sg43
VLove u Pakistan
p59
sg45
(dp60
g20
VSheri Gul
p61
sg18
V1829352193969158
p62
ssg18
V1390686370976843_1390761414302672
p63
sa(dp64
g41
V2016-10-06T17:53:00+0000
p65
sg43
VIt's look like that the road is newly constructed
p66
sg45
(dp67
g20
VZunaira Gilani
p68
sg18
V673501822824754
p69
ssg18
V1390686370976843_1390841714294642
p70
sa(dp71
g41
V2016-10-06T18:43:09+0000
p72
sg43
VSo beautiful
p73
sg45
(dp74
g20
VRukhsana Khan
p75
sg18
V1747273428855478
p76
ssg18
V1390686370976843_1390880044290809
p77
sa(dp78
g41
V2016-10-07T12:13:52+0000
p79
sg43
VBabusir pass 24th August 2016
p80
sg45
(dp81
g20
VMuhammad Ramzan
p82
sg18
V10153827526937714
p83
ssg18
V1390686370976843_1391421200903360
p84
sa(dp85
g41
V2016-10-06T18:28:58+0000
p86
sg43
V\U0001f60d\U0001f61a\U0001f61a
p87
sg45
(dp88
g20
VTehreem Khan
p89
sg18
V1696832037239607
p90
ssg18
V1390686370976843_1390867774292036
p91
sa(dp92
g41
V2016-10-07T15:21:35+0000
p93
sg43
VAala
p94
sg45
(dp95
g20
VIrfan Anwar
p96
sg18
V870528366416857
p97
ssg18
V1390686370976843_1391524377559709
p98
sa(dp99
g41
V2016-10-07T08:34:45+0000
p100
sg43
VLulusar toward Jaklhad
p101
sg45
(dp102
g20
VNawab Tanweer Ahmad
p103
sg18
V10154227884883740
p104
ssg18
V1390686370976843_1391321017580045
p105
sassg41
V2016-10-06T14:21:22+0000
p106
sg43
VFrom Lulusar lake towards Jalkhad... #NARAAN VALLEY... KPK #PAKISTAN\u000a18th of Sept 2016\u000a\u000aPhoto.. Khurram Shahzad
p107
sg16
Vphoto
p108
sg18
V118828831495943_1390686370976843
p109
s.