(dp0
Vreactions
p1
(dp2
Vpaging
p3
(dp4
Vcursors
p5
(dp6
Vafter
p7
VTVRBd01EQTFNakE0TURNMk9UazJPakUwTnpjNE5UTXpOekk2TWpVME1EazJNVFl4TXc9PQZDZD
p8
sVbefore
p9
VTVRBd01EQTFNakE0TURNMk9UazJPakUwTnpjNE5UTXpOekk2TWpVME1EazJNVFl4TXc9PQZDZD
p10
ssVnext
p11
Vhttps://graph.facebook.com/v2.6/118828831495943_1408367722542041/reactions?access_token=599965930180946%7C575aa5390a4589483de7f8cf99702788&limit=1&after=TVRBd01EQTFNakE0TURNMk9UazJPakUwTnpjNE5UTXpOekk2TWpVME1EazJNVFl4TXc9PQZDZD
p12
ssVdata
p13
(lp14
(dp15
Vtype
p16
VLIKE
p17
sVid
p18
V561562887360641
p19
sVname
p20
VSalman Mubeen
p21
sassg20
VTimeline Photos
p22
sVshares
p23
(dp24
Vcount
p25
I91
ssVlink
p26
Vhttps://www.facebook.com/ExplorePakistan/photos/a.118837968161696.8199.118828831495943/1408367722542041/?type=3
p27
sVcomments
p28
(dp29
g3
(dp30
g5
(dp31
g7
VMQZDZD
p32
sg9
VNAZDZD
p33
sssg13
(lp34
(dp35
Vcreated_time
p36
V2016-10-23T12:25:41+0000
p37
sVmessage
p38
VBeautiful city
p39
sVfrom
p40
(dp41
g20
VRukhsana Khan
p42
sg18
V1747273428855478
p43
ssg18
V1408367722542041_1408440202534793
p44
sa(dp45
g36
V2016-10-23T12:52:02+0000
p46
sg38
V\u06cc\u0627 \u0627\u0644\u0644\u06c1 \u062a\u06cc\u0631\u0627\u0634\u06a9\u0631
p47
sg40
(dp48
g20
VN Farrukh Sheikh
p49
sg18
V282262642174425
p50
ssg18
V1408367722542041_1408454439200036
p51
sa(dp52
g36
V2016-10-23T15:14:08+0000
p53
sg38
VIs it open to all or only army?
p54
sg40
(dp55
g20
VUmair Umair
p56
sg18
V1330594416957552
p57
ssg18
V1408367722542041_1408563712522442
p58
sa(dp59
g36
V2016-10-23T11:37:53+0000
p60
sg38
VAbdul Rehman beautiful shades
p61
sg40
(dp62
g20
VManal Rehman
p63
sg18
V1290405561023427
p64
ssg18
V1408367722542041_1408407269204753
p65
sassg36
V2016-10-23T10:41:27+0000
p66
sg38
VColours of #Autumn Nov 2015 in Lady Garden of #Abbottabad #KPK #Pakistan...\u000a\u000aPhoto: Khurram Shahzad
p67
sg16
Vphoto
p68
sg18
V118828831495943_1408367722542041
p69
s.