(dp0
Vreactions
p1
(dp2
Vpaging
p3
(dp4
Vcursors
p5
(dp6
Vafter
p7
VTVRBd01EQXhNRFE0TURNNE1EQXhPakUwTnpjNE1qZA3dPVE02TWpVME1EazJNVFl4TXc9PQZDZD
p8
sVbefore
p9
VTVRBd01EQXhNRFE0TURNNE1EQXhPakUwTnpjNE1qZA3dPVE02TWpVME1EazJNVFl4TXc9PQZDZD
p10
ssVnext
p11
Vhttps://graph.facebook.com/v2.6/118828831495943_1412673922111421/reactions?access_token=599965930180946%7C575aa5390a4589483de7f8cf99702788&limit=1&after=TVRBd01EQXhNRFE0TURNNE1EQXhPakUwTnpjNE1qZA3dPVE02TWpVME1EazJNVFl4TXc9PQZDZD
p12
ssVdata
p13
(lp14
(dp15
Vtype
p16
VLIKE
p17
sVid
p18
V1328332417211680
p19
sVname
p20
VHasan M. Fawad
p21
sassg20
VTimeline Photos
p22
sVshares
p23
(dp24
Vcount
p25
I198
ssVlink
p26
Vhttps://www.facebook.com/ExplorePakistan/photos/a.118837968161696.8199.118828831495943/1412673922111421/?type=3
p27
sVcomments
p28
(dp29
g3
(dp30
g5
(dp31
g7
VMQZDZD
p32
sg9
VMTgZD
p33
sssg13
(lp34
(dp35
Vcreated_time
p36
V2016-10-27T22:09:25+0000
p37
sVmessage
p38
VSOOOOO MAJESTIC N BEAUTIFUL, MA SHAA ALLAH!!!
p39
sVfrom
p40
(dp41
g20
VQuaideazam Iqbal
p42
sg18
V1779926222266063
p43
ssg18
V1412673922111421_1413021522076661
p44
sa(dp45
g36
V2016-10-27T16:06:34+0000
p46
sg38
V
p47
sg40
(dp48
g20
VSanam Zeb
p49
sg18
V328804570830393
p50
ssg18
V1412673922111421_1412716718773808
p51
sa(dp52
g36
V2016-10-27T16:44:56+0000
p53
sg38
VBeautiful clouds
p54
sg40
(dp55
g20
VLubna Tariq
p56
sg18
V10209102522894167
p57
ssg18
V1412673922111421_1412740735438073
p58
sa(dp59
g36
V2016-10-27T16:48:49+0000
p60
sg38
VMashaAllah
p61
sg40
(dp62
g20
VOsprey Shahbaz
p63
sg18
V1128184147275478
p64
ssg18
V1412673922111421_1412743022104511
p65
sa(dp66
g36
V2016-10-27T18:25:08+0000
p67
sg38
VSuch beauty
p68
sg40
(dp69
g20
VSummera Shaheen Malik
p70
sg18
V1273020992731651
p71
ssg18
V1412673922111421_1412860638759416
p72
sa(dp73
g36
V2016-10-28T18:15:39+0000
p74
sg38
VSubhan Allah!
p75
sg40
(dp76
g20
VZaina Sheikh
p77
sg18
V722873964534412
p78
ssg18
V1412673922111421_1414014361977377
p79
sa(dp80
g36
V2016-10-28T12:32:14+0000
p81
sg38
VBeauty of KPK.
p82
sg40
(dp83
g20
VNudrat Qaiser
p84
sg18
V10154706490823179
p85
ssg18
V1412673922111421_1413677785344368
p86
sa(dp87
g36
V2016-10-27T20:46:27+0000
p88
sg38
VMashAllah!
p89
sg40
(dp90
g20
VHasnain Nouman
p91
sg18
V320602308310339
p92
ssg18
V1412673922111421_1412961398749340
p93
sa(dp94
g36
V2016-10-29T19:44:42+0000
p95
sg38
VSubhan Allah
p96
sg40
(dp97
g20
VOwais Raja
p98
sg18
V309649679416997
p99
ssg18
V1412673922111421_1415301181848695
p100
sa(dp101
g36
V2016-10-28T06:48:49+0000
p102
sg38
V\U0001f495\u2764\ufe0f\ufe0f
p103
sg40
(dp104
g20
VN Farrukh Sheikh
p105
sg18
V282262642174425
p106
ssg18
V1412673922111421_1413381798707300
p107
sa(dp108
g36
V2016-10-28T11:37:00+0000
p109
sg38
Vthat s great
p110
sg40
(dp111
g20
VChaudhary Asim
p112
sg18
V211462222617097
p113
ssg18
V1412673922111421_1413647508680729
p114
sa(dp115
g36
V2016-10-28T11:17:14+0000
p116
sg38
V#WonderfulAmazingWorld
p117
sg40
(dp118
g20
VNakhshab Bin Azhar
p119
sg18
V1050884668361471
p120
ssg18
V1412673922111421_1413633492015464
p121
sa(dp122
g36
V2016-10-28T02:47:27+0000
p123
sg38
VSir Fahad Umer ...
p124
sg40
(dp125
g20
VKhalid Mehmood
p126
sg18
V1210544412340726
p127
ssg18
V1412673922111421_1413230945389052
p128
sa(dp129
g36
V2016-10-27T18:15:01+0000
p130
sg38
VHameed Punjwani upper dir
p131
sg40
(dp132
g20
VMohamed Amin Barai
p133
sg18
V10153878565486389
p134
ssg18
V1412673922111421_1412853128760167
p135
sa(dp136
g36
V2016-10-27T19:56:15+0000
p137
sg38
VAqsa Ahmed Ayesha Imran Ayesha Tariq \u2764
p138
sg40
(dp139
g20
VAffifa Marium
p140
sg18
V10202256984223621
p141
ssg18
V1412673922111421_1412917332087080
p142
sa(dp143
g36
V2016-10-28T04:26:46+0000
p144
sg38
VNafees Urrahman Wajid Ali
p145
sg40
(dp146
g20
VMuhammad Saad
p147
sg18
V1844434035792119
p148
ssg18
V1412673922111421_1413285372050276
p149
sa(dp150
g36
V2016-10-27T18:42:04+0000
p151
sg38
VAsim Munir
p152
sg40
(dp153
g20
VMalik Asif Shahzad
p154
sg18
V10205184650576099
p155
ssg18
V1412673922111421_1412872508758229
p156
sa(dp157
g36
V2016-10-28T12:30:23+0000
p158
sg38
VNudrat Qaiser
p159
sg40
(dp160
g20
VKhurram Qaiser
p161
sg18
V10153916710581727
p162
ssg18
V1412673922111421_1413677082011105
p163
sassg36
V2016-10-27T15:16:26+0000
p164
sg38
VTowards Katora Lake, Jahaz Banda, \u000aUpper Dir, #KPK #Pakistan
p165
sg16
Vphoto
p166
sg18
V118828831495943_1412673922111421
p167
s.