(dp0
Vreactions
p1
(dp2
Vpaging
p3
(dp4
Vcursors
p5
(dp6
Vafter
p7
VTVRBd01EQTJOVFUxT0RjMk5qRTNPakUwTnpjNE9UTTJNREk2TWpVME1EazJNVFl4TXc9PQZDZD
p8
sVbefore
p9
VTVRBd01EQTJOVFUxT0RjMk5qRTNPakUwTnpjNE9UTTJNREk2TWpVME1EazJNVFl4TXc9PQZDZD
p10
ssVnext
p11
Vhttps://graph.facebook.com/v2.6/118828831495943_1412731095439037/reactions?access_token=599965930180946%7C575aa5390a4589483de7f8cf99702788&limit=1&after=TVRBd01EQTJOVFUxT0RjMk5qRTNPakUwTnpjNE9UTTJNREk2TWpVME1EazJNVFl4TXc9PQZDZD
p12
ssVdata
p13
(lp14
(dp15
Vtype
p16
VLIKE
p17
sVid
p18
V1867038946857950
p19
sVname
p20
VAin Zahra
p21
sassg20
VTimeline Photos
p22
sVshares
p23
(dp24
Vcount
p25
I59
ssVlink
p26
Vhttps://www.facebook.com/ExplorePakistan/photos/a.118837968161696.8199.118828831495943/1412731095439037/?type=3
p27
sVcomments
p28
(dp29
g3
(dp30
g5
(dp31
g7
VMQZDZD
p32
sg9
VNwZDZD
p33
sssg13
(lp34
(dp35
Vcreated_time
p36
V2016-10-27T16:28:32+0000
p37
sVmessage
p38
V\U0001f44d\U0001f44d
p39
sVfrom
p40
(dp41
g20
VFaraz Qazi
p42
sg18
V1208528969167807
p43
ssg18
V1412731095439037_1412732252105588
p44
sa(dp45
g36
V2016-10-27T22:28:07+0000
p46
sg38
VSOOOOO EXUBERANT, MA SHAA ALLAH!!!!
p47
sg40
(dp48
g20
VQuaideazam Iqbal
p49
sg18
V1779926222266063
p50
ssg18
V1412731095439037_1413035788741901
p51
sa(dp52
g36
V2016-10-28T11:06:41+0000
p53
sg38
VAwesome view
p54
sg40
(dp55
g20
VBaqar Jutt
p56
sg18
V709102682573977
p57
ssg18
V1412731095439037_1413627982016015
p58
sa(dp59
g36
V2016-10-28T17:44:25+0000
p60
sg38
VAtta bad lake
p61
sg40
(dp62
g20
VMazhar Iqbal
p63
sg18
V1164643556941025
p64
ssg18
V1412731095439037_1413969505315196
p65
sa(dp66
g36
V2016-10-28T09:29:45+0000
p67
sg38
VSubhnalla
p68
sg40
(dp69
g20
VMuhammad Atif
p70
sg18
V1629924927302167
p71
ssg18
V1412731095439037_1413540872024726
p72
sa(dp73
g36
V2016-10-27T17:41:31+0000
p74
sg38
VGood
p75
sg40
(dp76
g20
VRehan Dost
p77
sg18
V1515159675179517
p78
ssg18
V1412731095439037_1412800045432142
p79
sassg36
V2016-10-27T16:27:04+0000
p80
sg38
VAtaAbad lake... Hunza Gilgit\u000a\u000aPhoto: Faraz Qazi
p81
sg16
Vphoto
p82
sg18
V118828831495943_1412731095439037
p83
s.