(dp0
Vreactions
p1
(dp2
Vpaging
p3
(dp4
Vcursors
p5
(dp6
Vafter
p7
VTVRBd01EQTJOVFUxT0RjMk5qRTNPakUwTnpjNE9UTTJNamM2TWpVME1EazJNVFl4TXc9PQZDZD
p8
sVbefore
p9
VTVRBd01EQTJOVFUxT0RjMk5qRTNPakUwTnpjNE9UTTJNamM2TWpVME1EazJNVFl4TXc9PQZDZD
p10
ssVnext
p11
Vhttps://graph.facebook.com/v2.6/118828831495943_1411574178888062/reactions?access_token=599965930180946%7C575aa5390a4589483de7f8cf99702788&limit=1&after=TVRBd01EQTJOVFUxT0RjMk5qRTNPakUwTnpjNE9UTTJNamM2TWpVME1EazJNVFl4TXc9PQZDZD
p12
ssVdata
p13
(lp14
(dp15
Vtype
p16
VLIKE
p17
sVid
p18
V1867038946857950
p19
sVname
p20
VAin Zahra
p21
sassg20
VTimeline Photos
p22
sVshares
p23
(dp24
Vcount
p25
I6
ssVlink
p26
Vhttps://www.facebook.com/ExplorePakistan/photos/a.118837968161696.8199.118828831495943/1411574178888062/?type=3
p27
sVcreated_time
p28
V2016-10-26T17:23:27+0000
p29
sVmessage
p30
VQuetta #Sibi road #Pakistan\u000a\u000aPicture : Aziz Ahmad Jamali
p31
sg16
Vphoto
p32
sg18
V118828831495943_1411574178888062
p33
s.