(dp0
Vreactions
p1
(dp2
Vpaging
p3
(dp4
Vcursors
p5
(dp6
Vafter
p7
VTVRBd01EQXhOak15TXpjeU5UTXlPakUwTnpjNE16a3lNVGc2TWpVME1EazJNVFl4TXc9PQZDZD
p8
sVbefore
p9
VTVRBd01EQXhOak15TXpjeU5UTXlPakUwTnpjNE16a3lNVGc2TWpVME1EazJNVFl4TXc9PQZDZD
p10
ssVnext
p11
Vhttps://graph.facebook.com/v2.6/118828831495943_1396524427059704/reactions?access_token=599965930180946%7C575aa5390a4589483de7f8cf99702788&summary=true&limit=1&after=TVRBd01EQXhOak15TXpjeU5UTXlPakUwTnpjNE16a3lNVGc2TWpVME1EazJNVFl4TXc9PQZDZD
p12
ssVdata
p13
(lp14
(dp15
Vtype
p16
VLIKE
p17
sVid
p18
V1101007459963656
p19
sVname
p20
VAtaullah Arain
p21
sasVsummary
p22
(dp23
Vtotal_count
p24
I1259
sVviewer_reaction
p25
VNONE
p26
sssg20
VTimeline Photos
p27
sVshares
p28
(dp29
Vcount
p30
I107
ssVlink
p31
Vhttps://www.facebook.com/ExplorePakistan/photos/a.118837968161696.8199.118828831495943/1396524427059704/?type=3
p32
sVcomments
p33
(dp34
g3
(dp35
g5
(dp36
g7
VMQZDZD
p37
sg9
VOQZDZD
p38
sssg13
(lp39
(dp40
Vcreated_time
p41
V2016-10-13T11:15:02+0000
p42
sVmessage
p43
VYahan akela ho banda duniya se cut off <3
p44
sVfrom
p45
(dp46
g20
V\u0627\u0633\u0627\u0645\u06c1 \u0645\u062d\u0645\u0648\u062f
p47
sg18
V575413889309994
p48
ssg18
V1396524427059704_1397180183660795
p49
sa(dp50
g41
V2016-10-13T03:44:38+0000
p51
sg43
V
p52
sg45
(dp53
g20
VMaha Noor
p54
sg18
V214177692337295
p55
ssg18
V1396524427059704_1396801103698703
p56
sa(dp57
g41
V2016-10-13T07:08:41+0000
p58
sg43
VBeautiful greenery
p59
sg45
(dp60
g20
VHasaan Anna
p61
sg18
V10154659022278559
p62
ssg18
V1396524427059704_1396930027019144
p63
sa(dp64
g41
V2016-10-13T10:24:21+0000
p65
sg43
VAwesome, super
p66
sg45
(dp67
g20
VAK Khan
p68
sg18
V1646137995635766
p69
ssg18
V1396524427059704_1397133750332105
p70
sa(dp71
g41
V2016-10-13T10:54:53+0000
p72
sg43
Vits open till Oct 20th
p73
sg45
(dp74
g20
VAtif Rasheed
p75
sg18
V10154293839481438
p76
ssg18
V1396524427059704_1397155146996632
p77
sa(dp78
g41
V2016-10-13T06:11:11+0000
p79
sg43
Vheavenly <3
p80
sg45
(dp81
g20
VKarolina G-ka
p82
sg18
V10154164158017523
p83
ssg18
V1396524427059704_1396890040356476
p84
sa(dp85
g41
V2016-10-13T10:16:38+0000
p86
sg43
VIs it still open and no snow?
p87
sg45
(dp88
g20
V\u0639\u062b\u0645\u0627\u0646 \u0686\u0648\u06c1\u062f\u0631\u06cc
p89
sg18
V10157424653910538
p90
ssg18
V1396524427059704_1397128730332607
p91
sa(dp92
g41
V2016-10-13T03:27:01+0000
p93
sg43
VSpectacular views
p94
sg45
(dp95
g20
VSadiq Shah
p96
sg18
V983805675038592
p97
ssg18
V1396524427059704_1396791100366370
p98
sa(dp99
g41
V2016-10-13T02:32:49+0000
p100
sg43
VAhsan Rafiq
p101
sg45
(dp102
g20
VMuhammad Ali
p103
sg18
V10155484189074478
p104
ssg18
V1396524427059704_1396753493703464
p105
sassg41
V2016-10-12T20:57:35+0000
p106
sg43
V#Deosai.... #Skardu\u000a#Gilgit #Baltistan...\u000a\u000aPhoto: Wardah Waris Hashmi
p107
sg16
Vphoto
p108
sg18
V118828831495943_1396524427059704
p109
s.