(dp0
Vreactions
p1
(dp2
Vpaging
p3
(dp4
Vcursors
p5
(dp6
Vafter
p7
VTVRBd01ERXdNRFUxTWpNMk9EWTJPakUwTnpjM01UTXhOalU2TWpVME1EazJNVFl4TXc9PQZDZD
p8
sVbefore
p9
VTVRBd01ERXdNRFUxTWpNMk9EWTJPakUwTnpjM01UTXhOalU2TWpVME1EazJNVFl4TXc9PQZDZD
p10
ssVnext
p11
Vhttps://graph.facebook.com/v2.6/118828831495943_1391555350889945/reactions?access_token=599965930180946%7C575aa5390a4589483de7f8cf99702788&summary=true&limit=1&after=TVRBd01ERXdNRFUxTWpNMk9EWTJPakUwTnpjM01UTXhOalU2TWpVME1EazJNVFl4TXc9PQZDZD
p12
ssVdata
p13
(lp14
(dp15
Vtype
p16
VLIKE
p17
sVid
p18
V364818280530010
p19
sVname
p20
VFida Hussain
p21
sasVsummary
p22
(dp23
Vtotal_count
p24
I1530
sVviewer_reaction
p25
VNONE
p26
sssg20
VTimeline Photos
p27
sVshares
p28
(dp29
Vcount
p30
I168
ssVlink
p31
Vhttps://www.facebook.com/ExplorePakistan/photos/a.118837968161696.8199.118828831495943/1391555350889945/?type=3
p32
sVcomments
p33
(dp34
g3
(dp35
g5
(dp36
g7
VMQZDZD
p37
sg9
VMTYZD
p38
sssg13
(lp39
(dp40
Vcreated_time
p41
V2016-10-09T03:49:17+0000
p42
sVmessage
p43
VGreat Job for sharing our sweet country beauty Admin live a long life..
p44
sVfrom
p45
(dp46
g20
VSadiq Shah
p47
sg18
V983805675038592
p48
ssg18
V1391555350889945_1392978557414291
p49
sa(dp50
g41
V2016-10-07T17:14:20+0000
p51
sg43
VWow
p52
sg45
(dp53
g20
VRaffay Yousuf
p54
sg18
V1708733629446687
p55
ssg18
V1391555350889945_1391596467552500
p56
sa(dp57
g41
V2016-10-08T13:06:13+0000
p58
sg43
VWhat a beautiful ones
p59
sg45
(dp60
g20
VRosario Compas
p61
sg18
V169229926871287
p62
ssg18
V1391555350889945_1392337984145015
p63
sa(dp64
g41
V2016-10-08T18:41:52+0000
p65
sg43
VSo pretty
p66
sg45
(dp67
g20
VRukhsana Khan
p68
sg18
V1747273428855478
p69
ssg18
V1391555350889945_1392616937450453
p70
sa(dp71
g41
V2016-10-08T00:04:42+0000
p72
sg43
Vwow so beautuful
p73
sg45
(dp74
g20
VEid Amon
p75
sg18
V1808944726044035
p76
ssg18
V1391555350889945_1391869167525230
p77
sa(dp78
g41
V2016-10-07T23:19:05+0000
p79
sg43
Vlovly
p80
sg45
(dp81
g20
VOmran Zaman
p82
sg18
V915463121931349
p83
ssg18
V1391555350889945_1391839927528154
p84
sa(dp85
g41
V2016-10-07T18:44:19+0000
p86
sg43
VBeautiful \U0001f44d\U0001f3fb
p87
sg45
(dp88
g20
VFaryal Yunus
p89
sg18
V1117645195018704
p90
ssg18
V1391555350889945_1391653060880174
p91
sa(dp92
g41
V2016-10-08T20:04:15+0000
p93
sg43
VBarlas Mughal also here...
p94
sg45
(dp95
g20
VJawad Mirza
p96
sg18
V10209629258026082
p97
ssg18
V1391555350889945_1392677727444374
p98
sa(dp99
g41
V2016-10-08T15:24:17+0000
p100
sg43
Vadorable
p101
sg45
(dp102
g20
V\u06c1\u0627\u0644\u06d2 \u0646\u0648\u0631
p103
sg18
V538781452997674
p104
ssg18
V1391555350889945_1392457137466433
p105
sa(dp106
g41
V2016-10-08T18:13:05+0000
p107
sg43
Vsuperb
p108
sg45
(dp109
g20
VZaryab Arshad
p110
sg18
V1391518137547479
p111
ssg18
V1391555350889945_1392597254119088
p112
sa(dp113
g41
V2016-10-07T23:18:16+0000
p114
sg43
VBeautiful
p115
sg45
(dp116
g20
VMansoor Moin
p117
sg18
V1292158390858128
p118
ssg18
V1391555350889945_1391839440861536
p119
sa(dp120
g41
V2016-10-07T17:32:34+0000
p121
sg43
Vameen
p122
sg45
(dp123
g20
VSanam Zeb
p124
sg18
V328804570830393
p125
ssg18
V1391555350889945_1391606137551533
p126
sa(dp127
g41
V2016-10-08T09:58:40+0000
p128
sg43
VNice
p129
sg45
(dp130
g20
VAayaan Khan
p131
sg18
V173906879734694
p132
ssg18
V1391555350889945_1392221990823281
p133
sa(dp134
g41
V2016-10-07T20:17:50+0000
p135
sg43
VZishan Sarfraz
p136
sg45
(dp137
g20
VAnila Zishan
p138
sg18
V1175730332518866
p139
ssg18
V1391555350889945_1391726067539540
p140
sa(dp141
g41
V2016-10-08T16:39:08+0000
p142
sg43
Vhttps://www.facebook.com/mughaliyafabrics/
p143
sg45
(dp144
g20
VMughalia Fabrics
p145
sg18
V149380225528165
p146
ssg18
V1391555350889945_1392523680793112
p147
sassg41
V2016-10-07T16:56:34+0000
p148
sg43
VFall colours of Ghizer #Pakistan\u000a\u000aPicture : Hum Barlas Mughal
p149
sg16
Vphoto
p150
sg18
V118828831495943_1391555350889945
p151
s.