(dp0
Vreactions
p1
(dp2
Vpaging
p3
(dp4
Vcursors
p5
(dp6
Vafter
p7
VTVRBd01EQTVNREExT1RBNE5EVXhPakUwTnpjNE1qSTVOVFE2TWpVME1EazJNVFl4TXc9PQZDZD
p8
sVbefore
p9
VTVRBd01EQTVNREExT1RBNE5EVXhPakUwTnpjNE1qSTVOVFE2TWpVME1EazJNVFl4TXc9PQZDZD
p10
ssVnext
p11
Vhttps://graph.facebook.com/v2.6/118828831495943_1407532782625535/reactions?access_token=599965930180946%7C575aa5390a4589483de7f8cf99702788&limit=1&after=TVRBd01EQTVNREExT1RBNE5EVXhPakUwTnpjNE1qSTVOVFE2TWpVME1EazJNVFl4TXc9PQZDZD
p12
ssVdata
p13
(lp14
(dp15
Vtype
p16
VLIKE
p17
sVid
p18
V1670278143282366
p19
sVname
p20
VShair Khan
p21
sassg20
VTimeline Photos
p22
sVshares
p23
(dp24
Vcount
p25
I199
ssVlink
p26
Vhttps://www.facebook.com/ExplorePakistan/photos/a.118837968161696.8199.118828831495943/1407532782625535/?type=3
p27
sVcomments
p28
(dp29
g3
(dp30
g5
(dp31
g7
VMQZDZD
p32
sg9
VMTgZD
p33
sssg13
(lp34
(dp35
Vcreated_time
p36
V2016-10-22T15:31:27+0000
p37
sVmessage
p38
VThanks for sharing :)
p39
sVfrom
p40
(dp41
g20
VSyed Bilal Javaid
p42
sg18
V10155966727703504
p43
ssg18
V1407532782625535_1407538865958260
p44
sa(dp45
g36
V2016-10-22T19:15:36+0000
p46
sg38
VIts beautiful..i still can not forget it,its a comfort to the eyes,mind and soul
p47
sg40
(dp48
g20
VMashal Riaz Khan
p49
sg18
V10209331199769590
p50
ssg18
V1407532782625535_1407735175938629
p51
sa(dp52
g36
V2016-10-22T18:59:57+0000
p53
sg38
VZaibi Butt 1996 m m na visit kiya tha n next year inshAllah phr
p54
sg40
(dp55
g20
VKashif Butt
p56
sg18
V1165437230202162
p57
ssg18
V1407532782625535_1407719335940213
p58
sa(dp59
g36
V2016-10-22T16:38:03+0000
p60
sg38
VOoooo Allah. \u2661
p61
sg40
(dp62
g20
VTahmina Iqbal
p63
sg18
V10154744254366940
p64
ssg18
V1407532782625535_1407605585951588
p65
sa(dp66
g36
V2016-10-22T15:43:18+0000
p67
sg38
VBEAUTY AT ITS PEAK, SUBHAAN ALLAH!!!
p68
sg40
(dp69
g20
VQuaideazam Iqbal
p70
sg18
V1779926222266063
p71
ssg18
V1407532782625535_1407549892623824
p72
sa(dp73
g36
V2016-10-22T16:24:12+0000
p74
sg38
VWow thats coool. What time of yr was the photo taken (Autumn?)
p75
sg40
(dp76
g20
VNajam Khan
p77
sg18
V1010317129078244
p78
ssg18
V1407532782625535_1407582375953909
p79
sa(dp80
g36
V2016-10-22T16:47:04+0000
p81
sg38
VSpeech less beauti
p82
sg40
(dp83
g20
VRabia Qadir
p84
sg18
V405873483134509
p85
ssg18
V1407532782625535_1407610372617776
p86
sa(dp87
g36
V2016-10-22T16:09:09+0000
p88
sg38
VPhir bhi sub log bolte hai k humara mulk acha nehi hai
p89
sg40
(dp90
g20
VSanah Butt
p91
sg18
V357436161271020
p92
ssg18
V1407532782625535_1407574025954744
p93
sa(dp94
g36
V2016-10-23T13:48:09+0000
p95
sg38
VUpper kachura
p96
sg40
(dp97
g20
VTalal Khan
p98
sg18
V1158236947595877
p99
ssg18
V1407532782625535_1408500272528786
p100
sa(dp101
g36
V2016-10-22T16:57:28+0000
p102
sg38
VAgreed
p103
sg40
(dp104
g20
VFarah Wahab
p105
sg18
V1301255473238286
p106
ssg18
V1407532782625535_1407617405950406
p107
sa(dp108
g36
V2016-10-22T15:32:41+0000
p109
sg38
VMuhammad Saqib kis kis cheez ka hisssab do ga zalim Naveed Soomro
p110
sg40
(dp111
g20
VMuhammad Umair Altaf
p112
sg18
V10208892601725691
p113
ssg18
V1407532782625535_1407540089291471
p114
sa(dp115
g36
V2016-10-22T18:42:57+0000
p116
sg38
V\ufea7\ufeee\ufeb7\ufea8\ufe92\ufeae\ufbfc \u2611\u2611 \ufea7\ufeee\ufeb7\ufea8\ufe92\ufeae\ufbfc \u2611\u2611 \ufea7\ufeee\ufeb7\ufea8\ufe92\ufeae\ufbfc \ufe8d\ufe8f \ufe81\ufb56 \ufb58\ufe8e\ufb90\ufeb4\ufe98\ufe8e\ufee5 \ufee3\ufbff\ufb9f \ufb90\ufeb4\ufbfd \ufe91\ufbad\ufbfd \ufee7\ufbff\ufb67 \ufeed\ufead\ufb8e \ufb58\ufeae \ufed3\ufeae\ufbfc \ufee3\ufeee\ufe91\ufe8e\ufe8b\ufede \ufe91\ufbff\ufee0\ufee8\ufeb2 \u200f( \ufe8d\ufbfe\ufeb0\ufbfc \ufedf\ufeee\ufb88 \u200f) \ufea3\ufe8e\ufebb\ufede \ufb90\ufeae \ufeb3\ufb91\ufe98\ufbaf \ufeeb\ufbff\ufb9f \ufe8d\ufeed\ufead \ufeed\ufee9 \ufe91\ufbad\ufbfd \ufe9f\ufe98\ufee8\ufe8e \ufee3\ufeae\ufebf\ufbfd . \ufb90\ufbff\ufeee\ufee7\ufb91\ufba7 \ufb58\ufe8e\ufb90\ufeb4\ufe98\ufe8e\ufee5 \ufb90\ufbfd \ufb58\ufba9\ufee0\ufbfd \ufeb3\ufe8e\ufed3\ufb67 \ufeed\ufe8b\ufbff\ufeae \ufb90\ufee4\ufb59\ufee8\ufbfd \ufed3\ufeee\ufead\ufb68\ufbfd \ufb68\ufeee \ufee7\ufbaf \ufe8d\ufbfe\ufb8f \ufe8d\ufbfe\ufeb4\ufbfd \ufe8d\ufbfe\ufb57 \ufee3\ufe98\ufecc\ufe8e\ufead\ufed1 \ufb90\ufeae\ufe8d\ufe8b\ufbfd \ufe9f\ufeb2 \ufee7\ufbaf \ufe97\ufba9\ufee0\ufb91\ufba7 \ufee3\ufb7d\ufe8e \ufea9\ufbfe\ufe8e \ufba8\ufbaf . \ufe81\ufb56 \ufb90\ufeee \ufe91\ufeb2 \ufbfe\ufeea \ufee3\ufeee\ufe91\ufe8e\ufe8b\ufede \ufe8d\ufbfe\ufb59\ufee0\ufbff\ufb91\ufbff\ufeb8\ufee6 \ufb88\ufe8d\ufe85\ufee7\ufee0\ufeee\ufb88 \ufb90\ufeae\ufee7\ufbfd \ufbac\ufbaf \ufe8d\ufeed\ufead \ufe8d\ufeb1 \ufee3\ufbff\ufb9f \ufe8d\ufb58\ufee8\ufe8e \ufe8d\ufb90\ufe8e\ufe85\ufee7\ufb67 \ufe91\ufee8\ufe8e\ufee7\ufe8e \ufbac\ufbaf \ufe8d\ufeb1 \ufb90\ufbaf \ufe91\ufecc\ufeaa \ufe81\ufb56 \ufe9f\ufe98\ufee8\ufe8e \ufee3\ufeae\ufebf\ufbfd \ufe91\ufbff\ufee0\ufee8\ufeb2 \ufea3\ufe8e\ufebb\ufede \ufb90\ufeae \ufeb3\ufb91\ufe98\ufbaf \ufbac\ufbff\ufb9f ... \ufb58\ufba9\ufee0\ufbaf \ufee3\ufbff\ufb9f \ufe91\ufbad\ufbfd \ufe8d\ufeb3\ufb91\ufeee \ufe9f\ufbad\ufeee\ufb66 \ufeb3\ufee4\ufea0\ufbad\ufe98\ufe8e \ufe97\ufbad\ufe8e \ufedf\ufbff\ufb91\ufee6 \ufe8d\ufbfe\ufb8f \ufea9\ufeed\ufeb3\ufe96 \ufee7\ufbaf \ufb90\ufba9\ufe8e \ufb90\ufbaf \ufe8d\ufbfe\ufb8f \ufe91\ufe8e\ufead \ufb90\ufeae \ufb90\ufbaf \ufe97\ufeee \ufea9\ufbfe\ufb91\ufbad\ufeee \ufe8d\ufeed\ufead \ufe9f\ufe90 \ufeb3\ufbaf \ufee3\ufbff\ufb9f \ufee7\ufbaf \ufbfe\ufba7 \ufb88\ufe8d\ufe85\ufee7\ufee0\ufeee\ufb88 \ufb90\ufbff\ufe8e \ufe97\ufe90 \ufeb3\ufbaf \ufee3\ufea0\ufbad\ufbaf \ufe91\ufbff\ufee0\ufee8\ufeb2 \ufb90\ufbfd \ufb90\ufeee\ufe8b\ufbfd \ufb58\ufeae\ufe8d\ufb58\ufee0\ufee2 \ufee7\ufba9\ufbff\ufb9f \ufe8d\ufe8f \ufee3\ufbff\ufb9f \ufe8d\ufeb1 \ufb58\ufeae \ufba8\ufeae \ufead\ufeed\ufeaf 200 \ufb90\ufe8e \ufe91\ufbff\ufee0\ufee8\ufeb2 \ufedf\ufeee\ufb88 \ufb90\ufeae\ufeed\ufe8d \ufedf\ufbff\ufe98\ufe8e \ufba8\ufeee\ufb9e ..  \ufe97\ufeee \ufee7\ufbff\ufb7d\ufbaf \ufea9\ufbfe\ufbaf \ufb94\ufe8c\ufbaf \ufedf\ufee8\ufb8f \ufb90\ufeee \ufe8d\ufeed\ufb58\ufee6 \ufb90\ufeae\ufbfe\ufb9f \ufe8d\ufeed\ufead \ufe8d\ufbfe\ufb59\ufee0\ufbff\ufb91\ufbff\ufeb8\ufee6 \ufea9\ufe8d\ufe85\ufee7\ufee0\ufeee\ufb88 \ufb90\ufeae \ufb90\ufbaf \ufe8d\ufb58\ufee8\ufe8e \ufe8d\ufb90\ufe8e\ufe85\ufee7\ufb67 \ufe91\ufee8\ufe8e\ufe8b\ufbff\ufb9f \ufe8d\ufeed\ufead \ufed3\ufeae\ufbfc \ufe91\ufbff\ufee0\ufee8\ufeb2 \ufea3\ufe8e\ufebb\ufede \ufb90\ufeae\ufbfe\ufb9f .. \ufe9f\ufbab \ufee7\ufba9\ufbff\ufb9f \ufe81 \ufead\ufba8\ufbfd \ufe97\ufeee \ufe81\ufb56 \ufee3\ufea0\ufbad\ufbaf \ufee3\ufbff\ufeb4\ufe9e \ufb90\ufeae \ufeb3\ufb91\ufe98\ufbaf \ufbac\ufbff\ufb9f ... \ufeb7\ufb91\ufeae\ufbfe\ufeea \ufe9f\ufeee \ufeb3\ufee4\ufea0\ufbab \ufead\ufba8\ufbaf \ufba8\ufbff\ufb9f \ufbfe\ufba7 \ufe9f\ufbad\ufeee\ufb66 \ufba8\ufbaf .. \ufe97\ufeee \ufe9f\ufbad\ufeee\ufb66 \ufe91\ufeee\ufedf\ufee8\ufbaf \ufeed\ufe8d\ufedf\ufbaf \ufb58\ufeae \ufe8d\ufedf\ufee0\ufba7 \ufb90\ufbfd \ufedf\ufecc\ufee8\ufe96 \ufba8\ufeee\ufe97\ufbfd \u06be\u06d2 \u000ahttps://42.slde.io/527657ce
p117
sg40
(dp118
g20
VUsman Ghani
p119
sg18
V688654934631707
p120
ssg18
V1407532782625535_1407694465942700
p121
sa(dp122
g36
V2016-10-22T15:32:37+0000
p123
sg38
VArsalan Azmat Shoaib Iqbal Safi Sahibzada Haseeb Sohail Akhtar
p124
sg40
(dp125
g20
VHaris Ali Khan
p126
sg18
V676864349130384
p127
ssg18
V1407532782625535_1407539982624815
p128
sa(dp129
g36
V2016-10-23T13:50:11+0000
p130
sg38
VSafina Ashraf
p131
sg40
(dp132
g20
VNauman Qureshi
p133
sg18
V335265500168526
p134
ssg18
V1407532782625535_1408501832528630
p135
sa(dp136
g36
V2016-10-22T16:49:45+0000
p137
sg38
VZaibi Butt
p138
sg40
(dp139
g20
VNaveed Butt
p140
sg18
V1817986538458028
p141
ssg18
V1407532782625535_1407612315950915
p142
sa(dp143
g36
V2016-10-22T17:22:07+0000
p144
sg38
VWowwww  incredible..so beautiful
p145
sg40
(dp146
g20
VEdna Tamargo Piano
p147
sg18
V1698865810368035
p148
ssg18
V1407532782625535_1407633929282087
p149
sa(dp150
g36
V2016-10-22T15:31:49+0000
p151
sg38
VIrfan Javed Zia Ul Haq Atif Malik Muhammad Hashim
p152
sg40
(dp153
g20
VSyed Bilal Javaid
p154
sg18
V10155966727703504
p155
ssg18
V1407532782625535_1407539169291563
p156
sa(dp157
g36
V2016-10-22T15:56:12+0000
p158
sg38
VUmair Ikram
p159
sg40
(dp160
g20
V\u062a\u0627\u0628\u0646\u062f\u06c1 \u0639\u0645\u06cc\u0631
p161
sg18
V10210794880891886
p162
ssg18
V1407532782625535_1407565025955644
p163
sassg36
V2016-10-22T15:25:36+0000
p164
sg38
VUPPER KACHURA LAKE SKARDU...\u000aUpper Kachura lake is a miracle of nature, peace and tranquility keeps one spell bound. Heaven on Earth you can say.\u000a\u000aPhoto:Syed Bilal Javaid
p165
sg16
Vphoto
p166
sg18
V118828831495943_1407532782625535
p167
s.