(dp0
Vreactions
p1
(dp2
Vpaging
p3
(dp4
Vcursors
p5
(dp6
Vafter
p7
VTVRBd01ERXdNRFUxTWpNMk9EWTJPakUwTnpjM01UTXhNRFE2TWpVME1EazJNVFl4TXc9PQZDZD
p8
sVbefore
p9
VTVRBd01ERXdNRFUxTWpNMk9EWTJPakUwTnpjM01UTXhNRFE2TWpVME1EazJNVFl4TXc9PQZDZD
p10
ssVnext
p11
Vhttps://graph.facebook.com/v2.6/118828831495943_1395375750507905/reactions?access_token=599965930180946%7C575aa5390a4589483de7f8cf99702788&summary=true&limit=1&after=TVRBd01ERXdNRFUxTWpNMk9EWTJPakUwTnpjM01UTXhNRFE2TWpVME1EazJNVFl4TXc9PQZDZD
p12
ssVdata
p13
(lp14
(dp15
Vtype
p16
VLIKE
p17
sVid
p18
V364818280530010
p19
sVname
p20
VFida Hussain
p21
sasVsummary
p22
(dp23
Vtotal_count
p24
I1371
sVviewer_reaction
p25
VNONE
p26
sssg20
VTimeline Photos
p27
sVshares
p28
(dp29
Vcount
p30
I111
ssVlink
p31
Vhttps://www.facebook.com/ExplorePakistan/photos/a.118837968161696.8199.118828831495943/1395375750507905/?type=3
p32
sVcomments
p33
(dp34
g3
(dp35
g5
(dp36
g7
VMQZDZD
p37
sg9
VMTEZD
p38
sssg13
(lp39
(dp40
Vcreated_time
p41
V2016-10-11T19:31:37+0000
p42
sVmessage
p43
VWow\U0001f60d
p44
sVfrom
p45
(dp46
g20
VSundas Maqsood
p47
sg18
V1181722308578600
p48
ssg18
V1395375750507905_1395472783831535
p49
sa(dp50
g41
V2016-10-12T05:38:27+0000
p51
sg43
VScary
p52
sg45
(dp53
g20
VSarah Qureshi
p54
sg18
V612676465591215
p55
ssg18
V1395375750507905_1395846330460847
p56
sa(dp57
g41
V2016-10-12T10:56:53+0000
p58
sg43
VKhalti lake\u2764\ufe0f
p59
sg45
(dp60
g20
VFarah Mannan
p61
sg18
V10209216466866330
p62
ssg18
V1395375750507905_1396030877109059
p63
sa(dp64
g41
V2016-10-13T06:13:27+0000
p65
sg43
Vperfectly peaceful
p66
sg45
(dp67
g20
VKarolina G-ka
p68
sg18
V10154164158017523
p69
ssg18
V1395375750507905_1396891263689687
p70
sa(dp71
g41
V2016-10-12T17:29:40+0000
p72
sg43
VDone
p73
sg45
(dp74
g20
VHasham Qureshi
p75
sg18
V972896639488212
p76
ssg18
V1395375750507905_1396350003743813
p77
sa(dp78
g41
V2016-10-12T17:03:06+0000
p79
sg43
VSo beautiful.
p80
sg45
(dp81
g20
VAsfy Qureshi
p82
sg18
V557448194446183
p83
ssg18
V1395375750507905_1396330420412438
p84
sa(dp85
g41
V2016-10-12T15:55:45+0000
p86
sg43
VVery nice
p87
sg45
(dp88
g20
VQaiser Ali
p89
sg18
V343694482689323
p90
ssg18
V1395375750507905_1396283113750502
p91
sa(dp92
g41
V2016-10-11T19:59:16+0000
p93
sg43
VSubhanallah
p94
sg45
(dp95
g20
VTahmeed Falak
p96
sg18
V148119518987879
p97
ssg18
V1395375750507905_1395490373829776
p98
sa(dp99
g41
V2016-10-11T17:51:18+0000
p100
sg43
VHamza Aslam Muneeb Nagori Shoaib Khan Waseem Tariq....ghizer
p101
sg45
(dp102
g20
VAbid Karimi
p103
sg18
V887179234751895
p104
ssg18
V1395375750507905_1395405633838250
p105
sa(dp106
g41
V2016-10-12T11:56:04+0000
p107
sg43
VAshish Bhardwaj
p108
sg45
(dp109
g20
VJaswant Singh
p110
sg18
V10207465425410105
p111
ssg18
V1395375750507905_1396060927106054
p112
sa(dp113
g41
V2016-10-12T01:01:00+0000
p114
sg43
VMehwar Ayaz Rao
p115
sg45
(dp116
g20
VAyaz Ahmad
p117
sg18
V1298536430198823
p118
ssg18
V1395375750507905_1395667497145397
p119
sassg41
V2016-10-11T17:26:18+0000
p120
sg43
VGhizer is beautiful #Pakistan
p121
sg16
Vphoto
p122
sg18
V118828831495943_1395375750507905
p123
s.