(dp0
Vreactions
p1
(dp2
Vpaging
p3
(dp4
Vcursors
p5
(dp6
Vafter
p7
VTVRBd01ERXdNRFUxTWpNMk9EWTJPakUwTnpjM01UTXhPREk2TWpVME1EazJNVFl4TXc9PQZDZD
p8
sVbefore
p9
VTVRBd01ERXdNRFUxTWpNMk9EWTJPakUwTnpjM01UTXhPREk2TWpVME1EazJNVFl4TXc9PQZDZD
p10
ssVnext
p11
Vhttps://graph.facebook.com/v2.6/118828831495943_1388375287874618/reactions?access_token=599965930180946%7C575aa5390a4589483de7f8cf99702788&summary=true&limit=1&after=TVRBd01ERXdNRFUxTWpNMk9EWTJPakUwTnpjM01UTXhPREk2TWpVME1EazJNVFl4TXc9PQZDZD
p12
ssVdata
p13
(lp14
(dp15
Vtype
p16
VLIKE
p17
sVid
p18
V364818280530010
p19
sVname
p20
VFida Hussain
p21
sasVsummary
p22
(dp23
Vtotal_count
p24
I1806
sVviewer_reaction
p25
VNONE
p26
sssg20
VTimeline Photos
p27
sVshares
p28
(dp29
Vcount
p30
I169
ssVlink
p31
Vhttps://www.facebook.com/ExplorePakistan/photos/a.118837968161696.8199.118828831495943/1388375287874618/?type=3
p32
sVcomments
p33
(dp34
g3
(dp35
g5
(dp36
g7
VMQZDZD
p37
sg9
VMTUZD
p38
sssg13
(lp39
(dp40
Vcreated_time
p41
V2016-10-04T07:07:21+0000
p42
sVmessage
p43
VMy fav place
p44
sVfrom
p45
(dp46
g20
VHaider Rizwan
p47
sg18
V1393343947360238
p48
ssg18
V1388375287874618_1388460171199463
p49
sa(dp50
g41
V2016-10-04T05:08:04+0000
p51
sg43
VLovely view.
p52
sg45
(dp53
g20
VShahid Hussain
p54
sg18
V1778922825696740
p55
ssg18
V1388375287874618_1388403074538506
p56
sa(dp57
g41
V2016-10-04T05:29:27+0000
p58
sg43
VBeautiful Pakistan <3
p59
sg45
(dp60
g20
VKarolina G-ka
p61
sg18
V10154164158017523
p62
ssg18
V1388375287874618_1388411507870996
p63
sa(dp64
g41
V2016-10-05T13:53:08+0000
p65
sg43
Vsooo beautiful
p66
sg45
(dp67
g20
VSalman Khan
p68
sg18
V1258769970840569
p69
ssg18
V1388375287874618_1389722247739922
p70
sa(dp71
g41
V2016-10-04T10:59:41+0000
p72
sg43
VAwesome
p73
sg45
(dp74
g20
VEdna Tamargo Piano
p75
sg18
V1698865810368035
p76
ssg18
V1388375287874618_1388575667854580
p77
sa(dp78
g41
V2016-10-04T07:48:02+0000
p79
sg43
VWonderful
p80
sg45
(dp81
g20
VAK Khan
p82
sg18
V1646137995635766
p83
ssg18
V1388375287874618_1388482221197258
p84
sa(dp85
g41
V2016-10-04T19:38:46+0000
p86
sg43
VWow amazing
p87
sg45
(dp88
g20
VSadia Yousuf
p89
sg18
V197324854042302
p90
ssg18
V1388375287874618_1388940831151397
p91
sa(dp92
g41
V2016-10-04T06:42:33+0000
p93
sg43
VAhmad Zamir dalta am boza kana
p94
sg45
(dp95
g20
VSabaoon Patwal
p96
sg18
V10154220147826725
p97
ssg18
V1388375287874618_1388443247867822
p98
sa(dp99
g41
V2016-10-04T04:58:04+0000
p100
sg43
VVello
p101
sg45
(dp102
g20
VVictoria Servellon
p103
sg18
V212996332455292
p104
ssg18
V1388375287874618_1388399257872221
p105
sa(dp106
g41
V2016-10-04T08:08:13+0000
p107
sg43
V\U0001f60d
p108
sg45
(dp109
g20
VArfeen Erum
p110
sg18
V1091369070980671
p111
ssg18
V1388375287874618_1388496734529140
p112
sa(dp113
g41
V2016-10-04T07:55:09+0000
p114
sg43
Vthis one Arooj Ammar ??
p115
sg45
(dp116
g20
VAmmar Hassan
p117
sg18
V10154022788458059
p118
ssg18
V1388375287874618_1388484667863680
p119
sa(dp120
g41
V2016-10-04T06:22:53+0000
p121
sg43
VMubashir Majeed bhai, beautiful place
p122
sg45
(dp123
g20
VAqeel Asghar
p124
sg18
V10154826367430312
p125
ssg18
V1388375287874618_1388434184535395
p126
sa(dp127
g41
V2016-10-04T11:42:53+0000
p128
sg43
VAqif ghuusa rho hostel ma tm :p
p129
sg45
(dp130
g20
VSyed Tanzil Haider Zaidi
p131
sg18
V1203834449691629
p132
ssg18
V1388375287874618_1388598064519007
p133
sa(dp134
g41
V2016-10-04T14:54:32+0000
p135
sg43
VMian Usman Sajid Chaudhry Usman Tariq
p136
sg45
(dp137
g20
VFaheem Akhtar
p138
sg18
V10153976500799599
p139
ssg18
V1388375287874618_1388729021172578
p140
sa(dp141
g41
V2016-10-04T05:14:31+0000
p142
sg43
VJames Reading
p143
sg45
(dp144
g20
VDaiyan Nasir
p145
sg18
V1814622102160470
p146
ssg18
V1388375287874618_1388405427871604
p147
sassg41
V2016-10-04T04:04:08+0000
p148
sg43
VPiffer Golf Club is located at Murree road #Abbottabad, Khyber Pakhtoonkhwa, #Pakistan...
p149
sg16
Vphoto
p150
sg18
V118828831495943_1388375287874618
p151
s.