(dp0
Vreactions
p1
(dp2
Vpaging
p3
(dp4
Vcursors
p5
(dp6
Vafter
p7
VTVRBd01EQTJOVFUxT0RjMk5qRTNPakUwTnpjNE9UTTJNekE2TWpVME1EazJNVFl4TXc9PQZDZD
p8
sVbefore
p9
VTVRBd01EQTJOVFUxT0RjMk5qRTNPakUwTnpjNE9UTTJNekE2TWpVME1EazJNVFl4TXc9PQZDZD
p10
ssVnext
p11
Vhttps://graph.facebook.com/v2.6/118828831495943_1411522152226598/reactions?access_token=599965930180946%7C575aa5390a4589483de7f8cf99702788&limit=1&after=TVRBd01EQTJOVFUxT0RjMk5qRTNPakUwTnpjNE9UTTJNekE2TWpVME1EazJNVFl4TXc9PQZDZD
p12
ssVdata
p13
(lp14
(dp15
Vtype
p16
VLIKE
p17
sVid
p18
V1867038946857950
p19
sVname
p20
VAin Zahra
p21
sassg20
VTimeline Photos
p22
sVshares
p23
(dp24
Vcount
p25
I320
ssVlink
p26
Vhttps://www.facebook.com/ExplorePakistan/photos/a.118837968161696.8199.118828831495943/1411522152226598/?type=3
p27
sVcomments
p28
(dp29
g3
(dp30
g5
(dp31
g7
VNQZDZD
p32
sg9
VMjQZD
p33
ssg11
Vhttps://graph.facebook.com/v2.6/118828831495943_1411522152226598/comments?access_token=599965930180946%7C575aa5390a4589483de7f8cf99702788&limit=20&after=NQZDZD
p34
ssg13
(lp35
(dp36
Vcreated_time
p37
V2016-10-26T16:49:26+0000
p38
sVmessage
p39
VJunaid Khan mate we should go there on our next trip\U0001f44c\U0001f3fe
p40
sVfrom
p41
(dp42
g20
VAli Khokhar
p43
sg18
V10154189588444296
p44
ssg18
V1411522152226598_1411544605557686
p45
sa(dp46
g37
V2016-10-26T17:03:04+0000
p47
sg39
VZahra beautiful \u2764\ufe0f
p48
sg41
(dp49
g20
VSana Syed
p50
sg18
V263550140713659
p51
ssg18
V1411522152226598_1411551782223635
p52
sa(dp53
g37
V2016-10-26T16:56:24+0000
p54
sg39
VNatural beauty
p55
sg41
(dp56
g20
VKhan Jee
p57
sg18
V218871401875864
p58
ssg18
V1411522152226598_1411548232223990
p59
sa(dp60
g37
V2016-10-27T09:45:28+0000
p61
sg39
VSo much beautiful mountains
p62
sg41
(dp63
g20
VRukhsana Khan
p64
sg18
V1747273428855478
p65
ssg18
V1411522152226598_1412396285472518
p66
sa(dp67
g37
V2016-10-26T16:37:16+0000
p68
sg39
VYahan to jana hi jana hai basss
p69
sg41
(dp70
g20
VMalik Muhammad Salman Haidery
p71
sg18
V1164580540299027
p72
ssg18
V1411522152226598_1411527602226053
p73
sa(dp74
g37
V2016-10-27T00:58:59+0000
p75
sg39
VMashaALLAH
p76
sg41
(dp77
g20
VAhmad Khokhar
p78
sg18
V1169951859765300
p79
ssg18
V1411522152226598_1411993492179464
p80
sa(dp81
g37
V2016-10-26T16:57:25+0000
p82
sg39
VMa shaAllah
p83
sg41
(dp84
g20
VJaved Pai
p85
sg18
V10154330757824093
p86
ssg18
V1411522152226598_1411548728890607
p87
sa(dp88
g37
V2016-10-27T12:58:15+0000
p89
sg39
VAllah o Akbar
p90
sg41
(dp91
g20
VIqbal Arshad
p92
sg18
V1775337942720652
p93
ssg18
V1411522152226598_1412549558790524
p94
sa(dp95
g37
V2016-10-26T16:45:53+0000
p96
sg39
VBehtreen
p97
sg41
(dp98
g20
VFasiha Batool
p99
sg18
V10209664482421867
p100
ssg18
V1411522152226598_1411536508891829
p101
sa(dp102
g37
V2016-10-27T10:59:36+0000
p103
sg39
VFarid Munir remember the lines on the mountains?
p104
sg41
(dp105
g20
VSanz'l Aldornia D'Elormie
p106
sg18
V10154094894190897
p107
ssg18
V1411522152226598_1412445015467645
p108
sa(dp109
g37
V2016-10-27T15:52:10+0000
p110
sg39
Vlove it
p111
sg41
(dp112
g20
VIram Laique
p113
sg18
V1151739951587509
p114
ssg18
V1411522152226598_1412702062108607
p115
sa(dp116
g37
V2016-10-26T18:50:56+0000
p117
sg39
VLove it...so lovely
p118
sg41
(dp119
g20
VEdna Tamargo Piano
p120
sg18
V1698865810368035
p121
ssg18
V1411522152226598_1411687055543441
p122
sa(dp123
g37
V2016-10-27T18:34:38+0000
p124
sg39
VSubhanAllah
p125
sg41
(dp126
g20
VYasmin Malik
p127
sg18
V356764251325627
p128
ssg18
V1411522152226598_1412867898758690
p129
sa(dp130
g37
V2016-10-27T09:22:41+0000
p131
sg39
VVery beautiful
p132
sg41
(dp133
g20
VJunaid Iqbal
p134
sg18
V1899938803560901
p135
ssg18
V1411522152226598_1412378768807603
p136
sa(dp137
g37
V2016-10-27T14:13:04+0000
p138
sg39
VThrow back few months Owais Ali
p139
sg41
(dp140
g20
VAmna Ishtiaq
p141
sg18
V1355201147824901
p142
ssg18
V1411522152226598_1412616998783780
p143
sa(dp144
g37
V2016-10-27T01:19:17+0000
p145
sg39
VWow
p146
sg41
(dp147
g20
VRabia Qadir
p148
sg18
V405873483134509
p149
ssg18
V1411522152226598_1412017028843777
p150
sa(dp151
g37
V2016-10-27T07:26:37+0000
p152
sg39
V\u2764\ufe0f\U0001f495
p153
sg41
(dp154
g20
VN Farrukh Sheikh
p155
sg18
V282262642174425
p156
ssg18
V1411522152226598_1412287235483423
p157
sa(dp158
g37
V2016-10-26T18:18:46+0000
p159
sg39
Vlove
p160
sg41
(dp161
g20
VSanam Zeb
p162
sg18
V328804570830393
p163
ssg18
V1411522152226598_1411635412215272
p164
sa(dp165
g37
V2016-10-27T06:06:49+0000
p166
sg39
VBeautifull
p167
sg41
(dp168
g20
VKaleem Nasir
p169
sg18
V202887343483018
p170
ssg18
V1411522152226598_1412218735490273
p171
sa(dp172
g37
V2016-10-27T10:35:34+0000
p173
sg39
VAwesome!
p174
sg41
(dp175
g20
VNajma Khan
p176
sg18
V1603251286637298
p177
ssg18
V1411522152226598_1412432378802242
p178
sassg37
V2016-10-26T16:27:17+0000
p179
sg39
V#AtaAbad lake #Hunza \u000a#Gilgit #Pakistan\u000a\u000aPhoto: LUQMAN KHAN
p180
sg16
Vphoto
p181
sg18
V118828831495943_1411522152226598
p182
s.