(dp0
Vreactions
p1
(dp2
Vpaging
p3
(dp4
Vcursors
p5
(dp6
Vafter
p7
VTVRBd01ERXdNRFUxTWpNMk9EWTJPakUwTnpjM01UTXhOVGc2TWpVME1EazJNVFl4TXc9PQZDZD
p8
sVbefore
p9
VTVRBd01ERXdNRFUxTWpNMk9EWTJPakUwTnpjM01UTXhOVGc2TWpVME1EazJNVFl4TXc9PQZDZD
p10
ssVnext
p11
Vhttps://graph.facebook.com/v2.6/118828831495943_1391560460889434/reactions?access_token=599965930180946%7C575aa5390a4589483de7f8cf99702788&summary=true&limit=1&after=TVRBd01ERXdNRFUxTWpNMk9EWTJPakUwTnpjM01UTXhOVGc2TWpVME1EazJNVFl4TXc9PQZDZD
p12
ssVdata
p13
(lp14
(dp15
Vtype
p16
VLIKE
p17
sVid
p18
V364818280530010
p19
sVname
p20
VFida Hussain
p21
sasVsummary
p22
(dp23
Vtotal_count
p24
I628
sVviewer_reaction
p25
VNONE
p26
sssg20
VTimeline Photos
p27
sVshares
p28
(dp29
Vcount
p30
I44
ssVlink
p31
Vhttps://www.facebook.com/ExplorePakistan/photos/a.118837968161696.8199.118828831495943/1391560460889434/?type=3
p32
sVcomments
p33
(dp34
g3
(dp35
g5
(dp36
g7
VMQZDZD
p37
sg9
VMwZDZD
p38
sssg13
(lp39
(dp40
Vcreated_time
p41
V2016-10-08T14:11:37+0000
p42
sVmessage
p43
VBeautiful
p44
sVfrom
p45
(dp46
g20
VHasaan Anna
p47
sg18
V10154659022278559
p48
ssg18
V1391560460889434_1392395150805965
p49
sa(dp50
g41
V2016-10-08T08:49:03+0000
p51
sg43
VBeautiful picture
p52
sg45
(dp53
g20
VAdnan Tanveer
p54
sg18
V1019768021425667
p55
ssg18
V1391560460889434_1392178177494329
p56
sa(dp57
g41
V2016-10-07T19:01:42+0000
p58
sg43
Vnice
p59
sg45
(dp60
g20
VSanam Zeb
p61
sg18
V328804570830393
p62
ssg18
V1391560460889434_1391671660878314
p63
sassg41
V2016-10-07T17:55:32+0000
p64
sg43
VFarmer #Punjab #Pakistan\u000a\u000aPicture Credits : Razaq Vance
p65
sg16
Vphoto
p66
sg18
V118828831495943_1391560460889434
p67
s.