(dp0
Vreactions
p1
(dp2
Vpaging
p3
(dp4
Vcursors
p5
(dp6
Vafter
p7
VTVRBd01ERXdNRFUxTWpNMk9EWTJPakUwTnpjM01USTVNakk2TWpVME1EazJNVFl4TXc9PQZDZD
p8
sVbefore
p9
VTVRBd01ERXdNRFUxTWpNMk9EWTJPakUwTnpjM01USTVNakk2TWpVME1EazJNVFl4TXc9PQZDZD
p10
ssVnext
p11
Vhttps://graph.facebook.com/v2.6/118828831495943_1404691419576338/reactions?access_token=599965930180946%7C575aa5390a4589483de7f8cf99702788&limit=1&after=TVRBd01ERXdNRFUxTWpNMk9EWTJPakUwTnpjM01USTVNakk2TWpVME1EazJNVFl4TXc9PQZDZD
p12
ssVdata
p13
(lp14
(dp15
Vtype
p16
VLIKE
p17
sVid
p18
V364818280530010
p19
sVname
p20
VFida Hussain
p21
sassg20
VTimeline Photos
p22
sVshares
p23
(dp24
Vcount
p25
I154
ssVlink
p26
Vhttps://www.facebook.com/ExplorePakistan/photos/a.118837968161696.8199.118828831495943/1404691419576338/?type=3
p27
sVcomments
p28
(dp29
g3
(dp30
g5
(dp31
g7
VMTIZD
p32
sg9
VMzEZD
p33
ssg11
Vhttps://graph.facebook.com/v2.6/118828831495943_1404691419576338/comments?access_token=599965930180946%7C575aa5390a4589483de7f8cf99702788&limit=20&after=MTIZD
p34
ssg13
(lp35
(dp36
Vcreated_time
p37
V2016-10-20T17:08:47+0000
p38
sVmessage
p39
VI will never die in peace if don't get a chance to see those lined up trees in mahodand lake.
p40
sVfrom
p41
(dp42
g20
VSummera Shaheen Malik
p43
sg18
V1273020992731651
p44
ssg18
V1404691419576338_1405464259499054
p45
sa(dp46
g37
V2016-10-19T20:48:14+0000
p47
sg39
V
p48
sg41
(dp49
g20
VUmi Rock Mian Umer
p50
sg18
V1256154931086058
p51
ssg18
V1404691419576338_1404696799575800
p52
sa(dp53
g37
V2016-10-24T14:13:51+0000
p54
sg39
g48
sg41
(dp55
g20
VArbab Shah
p56
sg18
V1822507894653747
p57
ssg18
V1404691419576338_1409430789102401
p58
sa(dp59
g37
V2016-10-20T11:05:17+0000
p60
sg39
g48
sg41
(dp61
g20
VAbid Rose
p62
sg18
V695392077284730
p63
ssg18
V1404691419576338_1405228309522649
p64
sa(dp65
g37
V2016-10-20T17:52:48+0000
p66
sg39
g48
sg41
(dp67
g20
VMalik Bilal
p68
sg18
V828166247326952
p69
ssg18
V1404691419576338_1405492786162868
p70
sa(dp71
g37
V2016-10-20T19:06:46+0000
p72
sg39
g48
sg41
(dp73
g20
VFazal Javed
p74
sg18
V1803623099850448
p75
ssg18
V1404691419576338_1405545369490943
p76
sa(dp77
g37
V2016-10-20T08:37:32+0000
p78
sg39
VYup visted
p79
sg41
(dp80
g20
VXajjad Bukhari
p81
sg18
V1232343786824601
p82
ssg18
V1404691419576338_1405140962864717
p83
sa(dp84
g37
V2016-10-20T19:33:11+0000
p85
sg39
VSubhanAllah
p86
sg41
(dp87
g20
VMemee Janjua
p88
sg18
V1682698945313547
p89
ssg18
V1404691419576338_1405560486156098
p90
sa(dp91
g37
V2016-10-20T16:19:23+0000
p92
sg39
VIs that awesome Man we will go there \U0001f60d\U0001f60d
p93
sg41
(dp94
g20
VArslan Nadeem
p95
sg18
V1084861851597006
p96
ssg18
V1404691419576338_1405428902835923
p97
sa(dp98
g37
V2016-10-20T16:50:19+0000
p99
sg39
VPakistan's got some beautiful places.
p100
sg41
(dp101
g20
VPritee Kathpal
p102
sg18
V1755107278074087
p103
ssg18
V1404691419576338_1405452036166943
p104
sa(dp105
g37
V2016-10-20T18:49:22+0000
p106
sg39
VI also visited there. It is really vry nyc..
p107
sg41
(dp108
g20
VMina Sana
p109
sg18
V1309509552414440
p110
ssg18
V1404691419576338_1405533352825478
p111
sa(dp112
g37
V2016-10-20T07:19:39+0000
p113
sg39
VWorth going Place \u2764\u2764
p114
sg41
(dp115
g20
VAbdul Basit Sheikh
p116
sg18
V1159166254175945
p117
ssg18
V1404691419576338_1405101322868681
p118
sa(dp119
g37
V2016-10-20T07:01:56+0000
p120
sg39
VI have visited this. Its beautiful ...
p121
sg41
(dp122
g20
VMaryyam Gul
p123
sg18
V1181181928609948
p124
ssg18
V1404691419576338_1405091052869708
p125
sa(dp126
g37
V2016-10-20T06:23:04+0000
p127
sg39
VBeautiful
p128
sg41
(dp129
g20
VN Farrukh Sheikh
p130
sg18
V282262642174425
p131
ssg18
V1404691419576338_1405068119538668
p132
sa(dp133
g37
V2016-10-19T23:21:02+0000
p134
sg39
VZaigham Imtiaz your next travel destination
p135
sg41
(dp136
g20
VRabia Zeeshan
p137
sg18
V1091558427609192
p138
ssg18
V1404691419576338_1404817396230407
p139
sa(dp140
g37
V2016-10-19T22:29:47+0000
p141
sg39
VNice
p142
sg41
(dp143
g20
VMalik Asad
p144
sg18
V1111876405565241
p145
ssg18
V1404691419576338_1404793336232813
p146
sa(dp147
g37
V2016-10-19T20:51:05+0000
p148
sg39
V\U0001f44d
p149
sg41
(dp150
g20
VHira Zaheer
p151
sg18
V333331287029058
p152
ssg18
V1404691419576338_1404698319575648
p153
sa(dp154
g37
V2016-10-20T22:00:35+0000
p155
sg39
V\u263a
p156
sg41
(dp157
g20
VAyisha Qaisar
p158
sg18
V306366569746882
p159
ssg18
V1404691419576338_1405701312808682
p160
sa(dp161
g37
V2016-10-20T00:35:44+0000
p162
sg39
VSufiyan Ul Haq Mubarra Chaudhry Sana Gul yahan ma ja chuka \U0001f60d
p163
sg41
(dp164
g20
VAbdul Wahab
p165
sg18
V1155515354485682
p166
ssg18
V1404691419576338_1404862712892542
p167
sa(dp168
g37
V2016-10-20T18:59:48+0000
p169
sg39
VZamil Rana
p170
sg41
(dp171
g20
VMuhammad Imran
p172
sg18
V1196539197050950
p173
ssg18
V1404691419576338_1405540629491417
p174
sassg37
V2016-10-19T20:40:35+0000
p175
sg39
V#Mahodand #Lake is a lake located in the upper #Usho Valley at a distance of about 40 km from #Kalam, #Swat District, Khyber Pakhtunkhwa province of #Pakistan\u000a\u000aPhoto: Tauseef Shah
p176
sg16
Vphoto
p177
sg18
V118828831495943_1404691419576338
p178
s.