(dp0
Vreactions
p1
(dp2
Vpaging
p3
(dp4
Vcursors
p5
(dp6
Vafter
p7
VTVRBd01EQXhOak15TXpjeU5UTXlPakUwTnpjNE16a3dNRGM2TWpVME1EazJNVFl4TXc9PQZDZD
p8
sVbefore
p9
VTVRBd01EQXhOak15TXpjeU5UTXlPakUwTnpjNE16a3dNRGM2TWpVME1EazJNVFl4TXc9PQZDZD
p10
ssVnext
p11
Vhttps://graph.facebook.com/v2.6/118828831495943_1398282066883940/reactions?access_token=599965930180946%7C575aa5390a4589483de7f8cf99702788&summary=true&limit=1&after=TVRBd01EQXhOak15TXpjeU5UTXlPakUwTnpjNE16a3dNRGM2TWpVME1EazJNVFl4TXc9PQZDZD
p12
ssVdata
p13
(lp14
(dp15
Vtype
p16
VLIKE
p17
sVid
p18
V1101007459963656
p19
sVname
p20
VAtaullah Arain
p21
sasVsummary
p22
(dp23
Vtotal_count
p24
I2193
sVviewer_reaction
p25
VNONE
p26
sssg20
VTimeline Photos
p27
sVshares
p28
(dp29
Vcount
p30
I266
ssVlink
p31
Vhttps://www.facebook.com/ExplorePakistan/photos/a.118837968161696.8199.118828831495943/1398282066883940/?type=3
p32
sVcomments
p33
(dp34
g3
(dp35
g5
(dp36
g7
VMQZDZD
p37
sg9
VMjAZD
p38
sssg13
(lp39
(dp40
Vcreated_time
p41
V2016-10-14T07:15:46+0000
p42
sVmessage
p43
VThe best highway in Pakistan bu far, real driving pleasure.
p44
sVfrom
p45
(dp46
g20
VAbbas H. Zaidi
p47
sg18
V10209994078301473
p48
ssg18
V1398282066883940_1398317890213691
p49
sa(dp50
g41
V2016-10-14T10:59:02+0000
p51
sg43
VBaluchistan. Train ka Sufer bouhat koubsorat hy or \u062d\u06cc\u0631\u062a \u0627\u0646\u06af\u06cc\u0632hy jub 2 Engine Lugte hy or bouhat sary Tunnels Aty hy or or or bouhat kuch \U0001f44d
p52
sg45
(dp53
g20
VNighat Amin Qureshi
p54
sg18
V1786019324994196
p55
ssg18
V1398282066883940_1398496970195783
p56
sa(dp57
g41
V2016-10-14T07:11:09+0000
p58
sg43
VBeen there loots of time its too hot \U0001f613\U0001f613
p59
sg45
(dp60
g20
VUmar Hayyat
p61
sg18
V10153922637581669
p62
ssg18
V1398282066883940_1398314346880712
p63
sa(dp64
g41
V2016-10-14T18:21:38+0000
p65
sg43
VSuper
p66
sg45
(dp67
g20
VMuhammad Irfan
p68
sg18
V1791974237744324
p69
ssg18
V1398282066883940_1398895730155907
p70
sa(dp71
g41
V2016-10-15T05:15:32+0000
p72
sg43
VMaa Shaa Allah...
p73
sg45
(dp74
g20
VEdna Tamargo Piano
p75
sg18
V1698865810368035
p76
ssg18
V1398282066883940_1399335216778625
p77
sa(dp78
g41
V2016-10-14T11:11:52+0000
p79
sg43
VBeautiful
p80
sg45
(dp81
g20
VMemee Janjua
p82
sg18
V1682698945313547
p83
ssg18
V1398282066883940_1398510240194456
p84
sa(dp85
g41
V2016-10-15T06:11:28+0000
p86
sg43
Vvery nice....
p87
sg45
(dp88
g20
VAmna Zia
p89
sg18
V653987761450355
p90
ssg18
V1398282066883940_1399362150109265
p91
sa(dp92
g41
V2016-10-15T18:09:58+0000
p93
sg43
VMasha Allah
p94
sg45
(dp95
g20
VErum Shehzadi
p96
sg18
V1421561497869071
p97
ssg18
V1398282066883940_1399958376716309
p98
sa(dp99
g41
V2016-10-14T10:47:16+0000
p100
sg43
VMasha Allah.
p101
sg45
(dp102
g20
VHassan Abbas Malik
p103
sg18
V10154484545960470
p104
ssg18
V1398282066883940_1398484873530326
p105
sa(dp106
g41
V2016-10-15T12:18:17+0000
p107
sg43
V\u0628\u06c1\u062a \u062e\u0648\u0628\u0635\u0648\u0631\u062a \u000a\u0644\u06cc\u06a9\u0646 \u0641\u0648\u0679\u0648\u06af\u0631\u0627\u0641\u0631 \u06a9\u0627 \u0645\u0642\u0627\u0645 \u061f
p108
sg45
(dp109
g20
V\u0646\u0633\u0631\u06cc\u0646 \u063a\u0648\u0631\u06cc \u0645\u0634\u0627\u0628\u0631\u0645\u06cc
p110
sg18
V721784697985502
p111
ssg18
V1398282066883940_1399633253415488
p112
sa(dp113
g41
V2016-10-15T04:42:08+0000
p114
sg43
VWaqas Awan.. Malik ji.. Chhik so?
p115
sg45
(dp116
g20
VUmer Khayyam
p117
sg18
V10153721575471618
p118
ssg18
V1398282066883940_1399311136781033
p119
sa(dp120
g41
V2016-10-14T15:10:10+0000
p121
sg43
VAmazing
p122
sg45
(dp123
g20
VSaddam Afridi
p124
sg18
V1309748052370281
p125
ssg18
V1398282066883940_1398710153507798
p126
sa(dp127
g41
V2016-10-14T13:04:40+0000
p128
sg43
VMakran costal highway
p129
sg45
(dp130
g20
VWajid Ali
p131
sg18
V677641765726174
p132
ssg18
V1398282066883940_1398606510184829
p133
sa(dp134
g41
V2016-10-14T13:50:10+0000
p135
sg43
VSammar Aleem plateau
p136
sg45
(dp137
g20
VMian Aizaz Aleem
p138
sg18
V1792187547697080
p139
ssg18
V1398282066883940_1398642116847935
p140
sa(dp141
g41
V2016-10-14T07:28:31+0000
p142
sg43
VAmmad Hassan Mir
p143
sg45
(dp144
g20
VFaqir Muhammad Umer
p145
sg18
V10154684129394539
p146
ssg18
V1398282066883940_1398328880212592
p147
sa(dp148
g41
V2016-10-14T16:25:51+0000
p149
sg43
V\U0001f4c0\U0001f4c0\U0001f4c0 \u03c1\u03c3\u03c9\u0454\u044f\u0454d \u0299\u028f Khurram \u0160hah\u017ea\u0111 \u010chuhan \U0001f4c0\U0001f4c0\U0001f4c0\u000a\u000a\U0001f3a4\U0001f3a4\U0001f3a4 Nyce ! \U0001f3a6photo\U0001f3a4\U0001f3a4\U0001f3a4\u000a\u000a\U0001f3e8  Explore the Beauty of Pakistan\u000a\U0001f3e2 Date : 14 - Oktober - 2016\u000a\U0001f3eb Like Comment Back Kardo G Explore the Beauty of Pakistan\u000a\U0001f3e5 Comment Late Time 6 Minute \U0001f5fc 14 Second \U0001f5fc \u000a\U0001f3ea Auto Comment By Khurram \u0160hah\u017ea\u0111 \u010chuhan\u000a\U0001f3e1 \U0001f50esimran01,Tk\U0001f4a1\u000a\U0001f50e Script Here -Chahal,Heck,in \U0001f50e
p150
sg45
(dp151
g20
VKhurram \u0160hah\u017ea\u0111 \u010chuhan
p152
sg18
V1753743954877790
p153
ssg18
V1398282066883940_1398788510166629
p154
sa(dp155
g41
V2016-10-14T14:03:32+0000
p156
sg43
V\u0639\u0631\u0648\u062c \u0634\u0641\u0642\u062a
p157
sg45
(dp158
g20
V\u0627\u0633\u0627\u0645\u06c1 \u0645\u062d\u0645\u0648\u062f
p159
sg18
V575413889309994
p160
ssg18
V1398282066883940_1398653073513506
p161
sa(dp162
g41
V2016-10-14T06:39:18+0000
p163
sg43
VMehwar Ayaz Rao
p164
sg45
(dp165
g20
VAyaz Ahmad
p166
sg18
V1298536430198823
p167
ssg18
V1398282066883940_1398292343549579
p168
sa(dp169
g41
V2016-10-14T06:35:17+0000
p170
sg43
VAli Hussein Alhumaidi
p171
sg45
(dp172
g20
VAbdul Wasay Mahmood
p173
sg18
V10155397776182564
p174
ssg18
V1398282066883940_1398291060216374
p175
sa(dp176
g41
V2016-10-14T09:19:01+0000
p177
sg43
Vhttps://www.facebook.com/1498229173803619/videos/1626758417617360/
p178
sg45
(dp179
g20
VAzeem BAtalvi
p180
sg18
V1463523383662869
p181
ssg18
V1398282066883940_1398405363538277
p182
sassg41
V2016-10-14T06:19:43+0000
p183
sg43
VNatural Painting #Balochistan #Pakistan
p184
sg16
Vphoto
p185
sg18
V118828831495943_1398282066883940
p186
s.