(dp0
Vreactions
p1
(dp2
Vpaging
p3
(dp4
Vcursors
p5
(dp6
Vafter
p7
VTVRBd01ERXdNRFUxTWpNMk9EWTJPakUwTnpjM01UTXlNREk2TWpVME1EazJNVFl4TXc9PQZDZD
p8
sVbefore
p9
VTVRBd01ERXdNRFUxTWpNMk9EWTJPakUwTnpjM01UTXlNREk2TWpVME1EazJNVFl4TXc9PQZDZD
p10
ssVnext
p11
Vhttps://graph.facebook.com/v2.6/118828831495943_1386976554681158/reactions?access_token=599965930180946%7C575aa5390a4589483de7f8cf99702788&summary=true&limit=1&after=TVRBd01ERXdNRFUxTWpNMk9EWTJPakUwTnpjM01UTXlNREk2TWpVME1EazJNVFl4TXc9PQZDZD
p12
ssVdata
p13
(lp14
(dp15
Vtype
p16
VLIKE
p17
sVid
p18
V364818280530010
p19
sVname
p20
VFida Hussain
p21
sasVsummary
p22
(dp23
Vtotal_count
p24
I1540
sVviewer_reaction
p25
VNONE
p26
sssg20
VTimeline Photos
p27
sVshares
p28
(dp29
Vcount
p30
I122
ssVlink
p31
Vhttps://www.facebook.com/ExplorePakistan/photos/a.118837968161696.8199.118828831495943/1386976554681158/?type=3
p32
sVcomments
p33
(dp34
g3
(dp35
g5
(dp36
g7
VMQZDZD
p37
sg9
VMjAZD
p38
sssg13
(lp39
(dp40
Vcreated_time
p41
V2016-10-02T17:21:34+0000
p42
sVmessage
p43
VBeautiful this is a place where you can find peace and tranquility!
p44
sVfrom
p45
(dp46
g20
VFarah Saleem
p47
sg18
V596469220525341
p48
ssg18
V1386976554681158_1386984361347044
p49
sa(dp50
g41
V2016-10-02T17:21:35+0000
p51
sg43
VThandiani z a heaven on earth.
p52
sg45
(dp53
g20
VDaniya Fatima
p54
sg18
V1392660514096228
p55
ssg18
V1386976554681158_1386984364680377
p56
sa(dp57
g41
V2016-10-02T17:28:07+0000
p58
sg43
VFantastic view.
p59
sg45
(dp60
g20
VShahid Hussain
p61
sg18
V1778922825696740
p62
ssg18
V1386976554681158_1386988238013323
p63
sa(dp64
g41
V2016-10-02T17:56:10+0000
p65
sg43
Vwoww so lovelyyy
p66
sg45
(dp67
g20
VEdna Tamargo Piano
p68
sg18
V1698865810368035
p69
ssg18
V1386976554681158_1387009094677904
p70
sa(dp71
g41
V2016-10-02T18:06:42+0000
p72
sg43
VAwesome
p73
sg45
(dp74
g20
VHasaan Anna
p75
sg18
V10154659022278559
p76
ssg18
V1386976554681158_1387015721343908
p77
sa(dp78
g41
V2016-10-02T17:13:19+0000
p79
sg43
VPeace ful place for peacful  people
p80
sg45
(dp81
g20
VSaba Fayyaz
p82
sg18
V1258157027561319
p83
ssg18
V1386976554681158_1386978671347613
p84
sa(dp85
g41
V2016-10-03T20:47:25+0000
p86
sg43
VThandiani... ahh, remember the time we'n went for the 1st time in 1992a punishment
p87
sg45
(dp88
g20
VAamir Ali
p89
sg18
V354168508257732
p90
ssg18
V1386976554681158_1388120171233463
p91
sa(dp92
g41
V2016-10-03T09:14:27+0000
p93
sg43
VAdmin u never share ziarat and other beautiful destination of sindh and baluchistan..
p94
sg45
(dp95
g20
VRiz Khan
p96
sg18
V1351656664846330
p97
ssg18
V1386976554681158_1387599821285498
p98
sa(dp99
g41
V2016-10-02T19:22:29+0000
p100
sg43
VHaider Khalid Muhammad Awais Hassan yahan chalte hain yr i think its better than nathia gali
p101
sg45
(dp102
g20
VFarhan Ali
p103
sg18
V1410100885684269
p104
ssg18
V1386976554681158_1387084824670331
p105
sa(dp106
g41
V2016-10-03T05:12:25+0000
p107
sg43
VWaoooo Allah tairee gudrat
p108
sg45
(dp109
g20
VHalsamta Khan
p110
sg18
V185253635262776
p111
ssg18
V1386976554681158_1387479014630912
p112
sa(dp113
g41
V2016-10-02T20:28:34+0000
p114
sg43
VAmazing
p115
sg45
(dp116
g20
VAmjad Irfan
p117
sg18
V10210796248879571
p118
ssg18
V1386976554681158_1387132994665514
p119
sa(dp120
g41
V2016-10-03T20:48:47+0000
p121
sg43
V1st time in Aug 1992, albeit hiking trip as a punishment!!
p122
sg45
(dp123
g20
VAamir Ali
p124
sg18
V354168508257732
p125
ssg18
V1386976554681158_1388121387900008
p126
sa(dp127
g41
V2016-10-02T19:23:52+0000
p128
sg43
VHan Yeh place bhi achi hai jyain gye insha allah
p129
sg45
(dp130
g20
VHaider Khalid
p131
sg18
V1325103697561509
p132
ssg18
V1386976554681158_1387085848003562
p133
sa(dp134
g41
V2016-10-04T17:03:26+0000
p135
sg43
VPrncx Tubby suggest your sis
p136
sg45
(dp137
g20
VFaiza Afzal
p138
sg18
V909442032523315
p139
ssg18
V1386976554681158_1388828147829332
p140
sa(dp141
g41
V2016-10-04T07:06:50+0000
p142
sg43
VMoodi Mano thandyani
p143
sg45
(dp144
g20
VArslan Khalid
p145
sg18
V1237521109620508
p146
ssg18
V1386976554681158_1388459831199497
p147
sa(dp148
g41
V2016-10-02T21:41:48+0000
p149
sg43
VNoreen Amor Miel Zafar Iqbal Yousaf Sheema Yousaf coming weekend
p150
sg45
(dp151
g20
VAroma Yousaf
p152
sg18
V818362598305721
p153
ssg18
V1386976554681158_1387181077994039
p154
sa(dp155
g41
V2016-10-03T06:07:40+0000
p156
sg43
VSyed Mehdi memories.
p157
sg45
(dp158
g20
VSahir Fatima
p159
sg18
V10153874890405718
p160
ssg18
V1386976554681158_1387500251295455
p161
sa(dp162
g41
V2016-10-02T17:34:26+0000
p163
sg43
VAhmad Zamir
p164
sg45
(dp165
g20
VSabaoon Patwal
p166
sg18
V10154220147826725
p167
ssg18
V1386976554681158_1386991938012953
p168
sa(dp169
g41
V2016-10-02T17:24:24+0000
p170
sg43
VMehwar Ayaz Rao
p171
sg45
(dp172
g20
VAyaz Ahmad
p173
sg18
V1298536430198823
p174
ssg18
V1386976554681158_1386986188013528
p175
sa(dp176
g41
V2016-10-03T00:47:46+0000
p177
sg43
VZuky
p178
sg45
(dp179
g20
VAsiah Riaz
p180
sg18
V1771764303087834
p181
ssg18
V1386976554681158_1387318874646926
p182
sassg41
V2016-10-02T17:10:17+0000
p183
sg43
VAn evening above the clouds at #Thandiani #Abbottabad... #Pakistan
p184
sg16
Vphoto
p185
sg18
V118828831495943_1386976554681158
p186
s.