(dp0
Vreactions
p1
(dp2
Vpaging
p3
(dp4
Vcursors
p5
(dp6
Vafter
p7
VTVRBd01EQTROekF5T1RRME5EazFPakUwTnpjNE5ERTBORGc2TWpVME1EazJNVFl4TXc9PQZDZD
p8
sVbefore
p9
VTVRBd01EQTROekF5T1RRME5EazFPakUwTnpjNE5ERTBORGc2TWpVME1EazJNVFl4TXc9PQZDZD
p10
ssVnext
p11
Vhttps://graph.facebook.com/v2.6/118828831495943_1402085109836969/reactions?access_token=599965930180946%7C575aa5390a4589483de7f8cf99702788&limit=1&after=TVRBd01EQTROekF5T1RRME5EazFPakUwTnpjNE5ERTBORGc2TWpVME1EazJNVFl4TXc9PQZDZD
p12
ssVdata
p13
(lp14
(dp15
Vtype
p16
VLIKE
p17
sVid
p18
V1624136941219722
p19
sVname
p20
VSyed Turab Haider Shah
p21
sassg20
VTimeline Photos
p22
sVshares
p23
(dp24
Vcount
p25
I136
ssVlink
p26
Vhttps://www.facebook.com/ExplorePakistan/photos/a.118837968161696.8199.118828831495943/1402085109836969/?type=3
p27
sVcomments
p28
(dp29
g3
(dp30
g5
(dp31
g7
VMQZDZD
p32
sg9
VMTUZD
p33
sssg13
(lp34
(dp35
Vcreated_time
p36
V2016-10-17T18:13:27+0000
p37
sVmessage
p38
VWaaao khurram bhai great pic
p39
sVfrom
p40
(dp41
g20
VNazeer Ehson Skardu
p42
sg18
V1161928040568530
p43
ssg18
V1402085109836969_1402087943170019
p44
sa(dp45
g36
V2016-10-18T01:32:31+0000
p46
sg38
VKamaal
p47
sg40
(dp48
g20
VTaiMoor Haider
p49
sg18
V1100479940039482
p50
ssg18
V1402085109836969_1402415086470638
p51
sa(dp52
g36
V2016-10-18T07:16:13+0000
p53
sg38
VGreat
p54
sg40
(dp55
g20
VRukhsana Khan
p56
sg18
V1747273428855478
p57
ssg18
V1402085109836969_1402802736431873
p58
sa(dp59
g36
V2016-10-18T18:14:32+0000
p60
sg38
VSubhan tery qudret
p61
sg40
(dp62
g20
VSamina Hamid
p63
sg18
V192766304502482
p64
ssg18
V1402085109836969_1403543803024433
p65
sa(dp66
g36
V2016-10-18T09:47:15+0000
p67
sg38
VSubhanAllah
p68
sg40
(dp69
g20
VKhalid Farooq
p70
sg18
V1837025939862305
p71
ssg18
V1402085109836969_1402941179751362
p72
sa(dp73
g36
V2016-10-18T04:57:39+0000
p74
sg38
VWhat a place
p75
sg40
(dp76
g20
VAftab Ahmad
p77
sg18
V1146029212132172
p78
ssg18
V1402085109836969_1402672129778267
p79
sa(dp80
g36
V2016-10-17T18:39:48+0000
p81
sg38
VAmazing
p82
sg40
(dp83
g20
VIsra Waseem
p84
sg18
V1235117563229311
p85
ssg18
V1402085109836969_1402106183168195
p86
sa(dp87
g36
V2016-10-17T22:37:00+0000
p88
sg38
VMuhammad Saqib Allah poooocha ga zalim Naveed Soomro
p89
sg40
(dp90
g20
VMuhammad Umair Altaf
p91
sg18
V10208892601725691
p92
ssg18
V1402085109836969_1402318996480247
p93
sa(dp94
g36
V2016-10-17T19:48:32+0000
p95
sg38
VFahad Tariq snowing soon \U0001f60d
p96
sg40
(dp97
g20
VZahraa Aburowais
p98
sg18
V1216519971704129
p99
ssg18
V1402085109836969_1402153579830122
p100
sa(dp101
g36
V2016-10-17T21:12:34+0000
p102
sg38
VTahir Mughal
p103
sg40
(dp104
g20
VAmna Habib
p105
sg18
V1159345224142077
p106
ssg18
V1402085109836969_1402206823158131
p107
sa(dp108
g36
V2016-10-18T08:36:33+0000
p109
sg38
VHamza Aslam Shoaib Khan kesa h...\U0001f602\U0001f602\U0001f602
p110
sg40
(dp111
g20
VAbid Karimi
p112
sg18
V887179234751895
p113
ssg18
V1402085109836969_1402866509758829
p114
sa(dp115
g36
V2016-10-17T18:38:58+0000
p116
sg38
Vl love beauty of pakistan
p117
sg40
(dp118
g20
VN Farrukh Sheikh
p119
sg18
V282262642174425
p120
ssg18
V1402085109836969_1402105706501576
p121
sa(dp122
g36
V2016-10-17T21:30:22+0000
p123
sg38
Vanyone  love this  as much as me
p124
sg40
(dp125
g20
VHealth and Beauty Tips
p126
sg18
V164703537225995
p127
ssg18
V1402085109836969_1402271116485035
p128
sa(dp129
g36
V2016-10-17T19:56:25+0000
p130
sg38
VCetty Cucuzza
p131
sg40
(dp132
g20
VShahbaz Ali
p133
sg18
V229001144183848
p134
ssg18
V1402085109836969_1402158156496331
p135
sa(dp136
g36
V2016-10-17T22:02:17+0000
p137
sg38
VWhere is it?  Pakistan?
p138
sg40
(dp139
g20
VCetty Cucuzza
p140
sg18
V188505584889698
p141
ssg18
V1402085109836969_1402296413149172
p142
sassg36
V2016-10-17T18:08:26+0000
p143
sg38
VAll in One...The mountains,the clouds, snow,river, trees and a blue sky...Karakoram Highway along River Pasu..\u000aPasu Gilgit.... 31st of May this year\u000a\u000aPhoto: Khurram Shahzad
p144
sg16
Vphoto
p145
sg18
V118828831495943_1402085109836969
p146
s.