(dp0
Vreactions
p1
(dp2
Vpaging
p3
(dp4
Vcursors
p5
(dp6
Vafter
p7
VTVRBd01ERXdNRFUxTWpNMk9EWTJPakUwTnpjM01UTXhNVFU2TWpVME1EazJNVFl4TXc9PQZDZD
p8
sVbefore
p9
VTVRBd01ERXdNRFUxTWpNMk9EWTJPakUwTnpjM01UTXhNVFU2TWpVME1EazJNVFl4TXc9PQZDZD
p10
ssVnext
p11
Vhttps://graph.facebook.com/v2.6/118828831495943_1395039920541488/reactions?access_token=599965930180946%7C575aa5390a4589483de7f8cf99702788&summary=true&limit=1&after=TVRBd01ERXdNRFUxTWpNMk9EWTJPakUwTnpjM01UTXhNVFU2TWpVME1EazJNVFl4TXc9PQZDZD
p12
ssVdata
p13
(lp14
(dp15
Vtype
p16
VLIKE
p17
sVid
p18
V364818280530010
p19
sVname
p20
VFida Hussain
p21
sasVsummary
p22
(dp23
Vtotal_count
p24
I1083
sVviewer_reaction
p25
VNONE
p26
sssg20
VTimeline Photos
p27
sVshares
p28
(dp29
Vcount
p30
I76
ssVlink
p31
Vhttps://www.facebook.com/ExplorePakistan/photos/a.118837968161696.8199.118828831495943/1395039920541488/?type=3
p32
sVcomments
p33
(dp34
g3
(dp35
g5
(dp36
g7
VMQZDZD
p37
sg9
VNAZDZD
p38
sssg13
(lp39
(dp40
Vcreated_time
p41
V2016-10-22T18:01:39+0000
p42
sVmessage
p43
VThanks for Sharing it... :)
p44
sVfrom
p45
(dp46
g20
VZia Ul Haq
p47
sg18
V10154627792134795
p48
ssg18
V1395039920541488_1407664639279016
p49
sa(dp50
g41
V2016-10-22T18:09:04+0000
p51
sg43
VStunning pic..
p52
sg45
(dp53
g20
VAtif Malik
p54
sg18
V10205754164333828
p55
ssg18
V1395039920541488_1407670982611715
p56
sa(dp57
g41
V2016-10-12T13:50:15+0000
p58
sg43
VImad Khalid Beautiful \U0001f618
p59
sg45
(dp60
g20
VAmna Jawed
p61
sg18
V10157798521865089
p62
ssg18
V1395039920541488_1396172160428264
p63
sa(dp64
g41
V2016-10-22T18:01:58+0000
p65
sg43
VSyed Bilal Javaid Atif Malik Irfan Javed
p66
sg45
(dp67
g20
VZia Ul Haq
p68
sg18
V10154627792134795
p69
ssg18
V1395039920541488_1407665192612294
p70
sassg41
V2016-10-11T09:22:11+0000
p71
sg43
VThe beauty of Rakaposhi... also known as Mother of Mist... \u000a\u000aOct 15th\u000a\u000aPhoto: Zia Ul Haq
p72
sg16
Vphoto
p73
sg18
V118828831495943_1395039920541488
p74
s.