(dp0
Vreactions
p1
(dp2
Vpaging
p3
(dp4
Vcursors
p5
(dp6
Vafter
p7
VTVRBd01ERXdNRFUxTWpNMk9EWTJPakUwTnpjM01UTXhNekk2TWpVME1EazJNVFl4TXc9PQZDZD
p8
sVbefore
p9
VTVRBd01ERXdNRFUxTWpNMk9EWTJPakUwTnpjM01UTXhNekk2TWpVME1EazJNVFl4TXc9PQZDZD
p10
ssVnext
p11
Vhttps://graph.facebook.com/v2.6/118828831495943_1392173150828165/reactions?access_token=599965930180946%7C575aa5390a4589483de7f8cf99702788&summary=true&limit=1&after=TVRBd01ERXdNRFUxTWpNMk9EWTJPakUwTnpjM01UTXhNekk2TWpVME1EazJNVFl4TXc9PQZDZD
p12
ssVdata
p13
(lp14
(dp15
Vtype
p16
VLIKE
p17
sVid
p18
V364818280530010
p19
sVname
p20
VFida Hussain
p21
sasVsummary
p22
(dp23
Vtotal_count
p24
I578
sVviewer_reaction
p25
VNONE
p26
sssg20
VTimeline Photos
p27
sVshares
p28
(dp29
Vcount
p30
I42
ssVlink
p31
Vhttps://www.facebook.com/ExplorePakistan/photos/a.118837968161696.8199.118828831495943/1392173150828165/?type=3
p32
sVcomments
p33
(dp34
g3
(dp35
g5
(dp36
g7
VMgZDZD
p37
sg9
VNAZDZD
p38
sssg13
(lp39
(dp40
Vcreated_time
p41
V2016-10-08T13:42:59+0000
p42
sVmessage
p43
VBhai ye tw fairy meadows lg RHA h Kami Khan Mohammad Saim Sarosh
p44
sVfrom
p45
(dp46
g20
VRaza Shakeel
p47
sg18
V1298119660230195
p48
ssg18
V1392173150828165_1392367857475361
p49
sa(dp50
g41
V2016-10-09T10:54:02+0000
p51
sg43
VAmna Baig Naeem Baig Sadia Hashim Baig Muhammad Asim Baig
p52
sg45
(dp53
g20
VSana Baig
p54
sg18
V10210667681551098
p55
ssg18
V1392173150828165_1393224664056347
p56
sa(dp57
g41
V2016-10-09T14:02:44+0000
p58
sg43
VAsad Ullah\U0001f607
p59
sg45
(dp60
g20
VSamiya Mubeen
p61
sg18
V1264411440275681
p62
ssg18
V1392173150828165_1393360320709448
p63
sassg41
V2016-10-08T08:37:49+0000
p64
sg43
VOne of the most peaceful places in Northern areas... FAR PAVILLIONs\u000a#THANDIANI... #ABBOTTABAD KPK\u000aJune 2015\u000a\u000aPIC:KHURRAM SHAHZAD
p65
sg16
Vphoto
p66
sg18
V118828831495943_1392173150828165
p67
s.