(dp0
Vreactions
p1
(dp2
Vpaging
p3
(dp4
Vcursors
p5
(dp6
Vafter
p7
VTVRBd01ERXdNRFUxTWpNMk9EWTJPakUwTnpjM01USTVNemM2TWpVME1EazJNVFl4TXc9PQZDZD
p8
sVbefore
p9
VTVRBd01ERXdNRFUxTWpNMk9EWTJPakUwTnpjM01USTVNemM2TWpVME1EazJNVFl4TXc9PQZDZD
p10
ssVnext
p11
Vhttps://graph.facebook.com/v2.6/118828831495943_1401085526603594/reactions?access_token=599965930180946%7C575aa5390a4589483de7f8cf99702788&limit=1&after=TVRBd01ERXdNRFUxTWpNMk9EWTJPakUwTnpjM01USTVNemM2TWpVME1EazJNVFl4TXc9PQZDZD
p12
ssVdata
p13
(lp14
(dp15
Vtype
p16
VLIKE
p17
sVid
p18
V364818280530010
p19
sVname
p20
VFida Hussain
p21
sassg20
VTimeline Photos
p22
sVshares
p23
(dp24
Vcount
p25
I377
ssVlink
p26
Vhttps://www.facebook.com/ExplorePakistan/photos/a.118837968161696.8199.118828831495943/1401085526603594/?type=3
p27
sVcomments
p28
(dp29
g3
(dp30
g5
(dp31
g7
VMTAZD
p32
sg9
VMjkZD
p33
ssg11
Vhttps://graph.facebook.com/v2.6/118828831495943_1401085526603594/comments?access_token=599965930180946%7C575aa5390a4589483de7f8cf99702788&limit=20&after=MTAZD
p34
ssg13
(lp35
(dp36
Vcreated_time
p37
V2016-10-17T01:48:09+0000
p38
sVmessage
p39
VWoww...really so beautiful place to visit...its always my wish..In Shaa Allah
p40
sVfrom
p41
(dp42
g20
VEdna Tamargo Piano
p43
sg18
V1698865810368035
p44
ssg18
V1401085526603594_1401364263242387
p45
sa(dp46
g37
V2016-10-17T03:52:11+0000
p47
sg39
VMuhammad Saqib Allah poocha ga...Roz e Qayamat giraaban pakrain ga Naveed Soomro
p48
sg41
(dp49
g20
VMuhammad Umair Altaf
p50
sg18
V10208892601725691
p51
ssg18
V1401085526603594_1401427309902749
p52
sa(dp53
g37
V2016-10-17T04:22:53+0000
p54
sg39
V
p55
sg41
(dp56
g20
VMuhammad Saleh
p57
sg18
V10209284831591592
p58
ssg18
V1401085526603594_1401446116567535
p59
sa(dp60
g37
V2016-10-16T19:41:50+0000
p61
sg39
V30th may? It means 3 days after i visited that beautiful border!
p62
sg41
(dp63
g20
VSaud Qayum
p64
sg18
V10154635095384715
p65
ssg18
V1401085526603594_1401096656602481
p66
sa(dp67
g37
V2016-10-17T04:27:02+0000
p68
sg39
VHassan abdal iS my city.
p69
sg41
(dp70
g20
VUmair Hassan
p71
sg18
V1408737239153871
p72
ssg18
V1401085526603594_1401449403233873
p73
sa(dp74
g37
V2016-10-16T21:44:20+0000
p75
sg39
VBeauty \U0001f62d
p76
sg41
(dp77
g20
VWaleed Bin Khalid
p78
sg18
V1406953779329694
p79
ssg18
V1401085526603594_1401193653259448
p80
sa(dp81
g37
V2016-10-17T17:26:51+0000
p82
sg39
VMashallah
p83
sg41
(dp84
g20
VRamiz Raja
p85
sg18
V1814047652209764
p86
ssg18
V1401085526603594_1402053073173506
p87
sa(dp88
g37
V2016-10-17T10:36:03+0000
p89
sg39
V14 august 2016 visat
p90
sg41
(dp91
g20
VMazhar Iqbal
p92
sg18
V1164643556941025
p93
ssg18
V1401085526603594_1401700439875436
p94
sa(dp95
g37
V2016-10-16T19:30:43+0000
p96
sg39
V\u0627\u0644\u0633\u0644\u0627\u0645 \u0639\u0644\u06cc\u06a9\u0645  !\u000a\u0645\u06cc\u06ba \u067e\u0686\u06be\u0644\u06d2 7 \u0633\u0627\u0644 \u0633\u06d2 \u0641\u06cc\u0633 \u0628\u06a9 \u0627\u0633\u062a\u0639\u0645\u0627\u0644 \u06a9\u0631\u06c1\u0627\u06c1\u0648\u06ba \u0645\u062c\u06be\u06d2 \u0644\u06af\u062a\u0627 \u06c1\u06d2 \u0645\u06cc\u06ba \u0646\u06d2 7 \u0633\u0627\u0644 \u0641\u0636\u0648\u0644 \u06af\u0632\u0627\u0631\u06d2\u060c \u06a9\u06cc\u0648\u0646\u06a9\u06c1 \u0645\u06cc\u06ba \u0646\u06d2 \u0644\u0648\u06af\u0648\u06ba \u06a9\u0648 \u0627\u0644\u0644\u0647 \u0627\u0648\u0631 \u0627\u0633 \u06a9\u06d2 \u0631\u0633\u0648\u0644\u0610  \u06a9\u06d2 \u0627\u062d\u06a9\u0627\u0645\u0627\u062a \u0646\u06c1\u06cc\u06ba \u0628\u062a\u0627\u0626\u06d2 \u0645\u062c\u06be\u06d2 \u06af\u0632\u0631\u06d2 \u06c1\u0648\u0626\u06d2 \u0648\u0642\u062a \u06a9\u0627\u0627\u0641\u0633\u0648\u0633 \u06c1\u06d2  \u060c \u0627\u0628 \u0645\u06cc\u06ba \u0646\u06d2 \u0627\u067e\u0631\u06cc\u0644 2016\u0633\u06d2 \u0628\u0627\u0642\u0627\u0639\u062f\u06c1 \u062a\u062d\u0631\u06cc\u0631\u06cc\u06ba \u0644\u06a9\u06be\u0646\u06d2 \u06a9\u0627 \u06a9\u0627\u0645 \u0634\u0631\u0648\u0639 \u06a9\u06cc\u0627 \u06c1\u06d2  \u0622\u067e \u0633\u06d2 \u06af\u0632\u0627\u0631\u0634 \u06c1\u06d2 \u06a9\u06c1 \u0622\u067e \u0645\u06cc\u0631\u06d2 \u0622\u0626\u06cc \u0688\u06cc \u06a9\u0627 \u0648\u0632\u0679 \u06a9\u0631\u06cc\u06ba  \u060c \u0645\u06cc\u0631\u06d2 \u062a\u062d\u0631\u06cc\u0631\u06cc\u06ba \u067e\u0691\u06be\u06cc\u06ba  \u0627\u0648\u0631 \u0622\u06af\u06d2 \u0634\u06cc\u0626\u0631 \u0628\u06be\u06cc \u06a9\u0631\u06cc\u06ba \u062a\u0627\u06a9\u06c1 \u0627\u0648\u0631\u0648\u06ba \u06a9\u0627 \u0628\u06be\u06cc \u0627\u0635\u0644\u0627\u062d \u06c1\u0648 \u062c\u0627\u0626\u06d2  \u0645\u06cc\u0631\u06d2 \u062a\u062d\u0631\u06cc\u0631\u0648\u06ba \u06a9\u06cc \u0628\u062f\u0648\u0644\u062a \u0627\u0646\u0634\u0627\u0621\u0627\u0644\u0644\u06c1 \u0622\u067e \u0645\u06cc\u06ba \u062a\u0628\u062f\u06cc\u0644\u06cc \u0622\u0626\u06d2 \u06af\u06cc \u06af\u0632\u0627\u0631\u0634 \u06c1\u06d2 \u0627\u0633 \u0646\u06cc\u06a9 \u06a9\u0627\u0645 \u0645\u06cc\u06ba \u0622\u067e \u0645\u06cc\u0631\u0627 \u0633\u0627\u062a\u06be \u062f\u06cc\u06ba \u060c \u0645\u06c1\u0631\u0628\u0627\u0646\u06cc \u06a9\u0631 \u06a9\u06d2 \u0622\u067e \u0627\u06cc\u06a9 \u062f\u0641\u0639\u06c1  \u062f\u06cc\u06a9\u06be \u0644\u06cc\u06ba \u060c \u0627\u0644\u0644\u0647 \u06be\u0645 \u0633\u0628 \u06a9\u0648 \u062f\u06cc\u0646 \u0627\u0633\u0644\u0627\u0645 \u06a9\u06d2 \u0644\u0626\u06d2 \u06a9\u0627\u0645 \u06a9\u0631\u0646\u06d2 \u06a9\u06cc \u062a\u0648\u0641\u06cc\u0642 \u0639\u0637\u0627 \u0641\u0631\u0645\u0627\u0626\u06d2 \u0622\u0645\u06cc\u0646\u000a\u000a\u0645\u0632\u06cc\u062f \u0627\u0686\u06be\u06cc \u0627\u0686\u06be\u06cc \u062a\u062d\u0627\u0631\u06cc\u0631\u0645\u06cc\u0631\u06cc \u067e\u0631\u0648\u0641\u0627\u0626\u0644 \u067e\u0631 \u062f\u06cc\u06a9\u06be\u06cc\u06ba\u000a\u0627\u06af\u0631 \u0622\u067e \u06a9\u0648 \u0622\u0626\u06cc \u0688\u06cc \u067e\u0633\u0646\u062f \u0622\u0626\u06d2 \u062a\u0648 \u0641\u0627\u0644\u0648 (follow) \u06a9\u0631\u0646\u06d2 \u06a9\u06d2 \u0628\u0639\u062f \u0633\u06cc \u0641\u0631\u0633\u0679 (see first) \u0628\u06be\u06cc \u06a9\u0631\u06cc\u06ba \u0622\u067e \u06a9\u0648 \u067e\u0648\u0633\u0679 \u0645\u0644\u062a\u06cc \u0631\u06c1\u06cc\u06ba \u06af\u06cc\u000a\u0634\u06a9\u0631\u06cc\u06c1
p97
sg41
(dp98
g20
VHazrat Ameen Khan
p99
sg18
V1083114215141504
p100
ssg18
V1401085526603594_1401089883269825
p101
sa(dp102
g37
V2016-10-16T19:57:17+0000
p103
sg39
VMuhammad Haseeb Khan yr idr jna h jald INSHA ALLAH
p104
sg41
(dp105
g20
VAsad Ur Rehman
p106
sg18
V1102067379843097
p107
ssg18
V1401085526603594_1401108649934615
p108
sa(dp109
g37
V2016-10-17T19:16:16+0000
p110
sg39
V\u0627\u0644\u0644\u06c1  \u062a\u0639\u0627\u0644\u06cc \u0646\u06d2 \u06a9\u062a\u0646\u06cc \u067e\u06cc\u0627\u0631\u06cc  \u062f\u0646\u06cc\u0627 \u0628\u0646\u0627\u06c1\u0626
p111
sg41
(dp112
g20
VN Farrukh Sheikh
p113
sg18
V282262642174425
p114
ssg18
V1401085526603594_1402132346498912
p115
sa(dp116
g37
V2016-10-17T18:13:17+0000
p117
sg39
VBeauty ful
p118
sg41
(dp119
g20
VSaeeda Haider
p120
sg18
V1245308995542234
p121
ssg18
V1401085526603594_1402087886503358
p122
sa(dp123
g37
V2016-10-17T02:09:52+0000
p124
sg39
Vnice
p125
sg41
(dp126
g20
VSanam Zeb
p127
sg18
V328804570830393
p128
ssg18
V1401085526603594_1401376129907867
p129
sa(dp130
g37
V2016-10-17T06:08:44+0000
p131
sg39
g55
sg41
(dp132
g20
VFadee Malik
p133
sg18
V10154001839206765
p134
ssg18
V1401085526603594_1401501623228651
p135
sa(dp136
g37
V2016-10-17T10:39:38+0000
p137
sg39
VWent close to it but not on it, now i'm regretting it soo bad\U0001f622\U0001f622
p138
sg41
(dp139
g20
VAli Asif
p140
sg18
V1418198661538597
p141
ssg18
V1401085526603594_1401703173208496
p142
sa(dp143
g37
V2016-10-16T20:57:31+0000
p144
sg39
VWhy hassan abdal indicating...strange?????
p145
sg41
(dp146
g20
VIrfan Yaseen
p147
sg18
V10211114862252674
p148
ssg18
V1401085526603594_1401165209928959
p149
sa(dp150
g37
V2016-10-17T03:18:33+0000
p151
sg39
VAli Tariq Junaid Akram Hamza Tariq bhaio ye jagah bhi dekhni hai next time.
p152
sg41
(dp153
g20
VTaha Saleem
p154
sg18
V10208851103609313
p155
ssg18
V1401085526603594_1401409673237846
p156
sa(dp157
g37
V2016-10-17T06:03:18+0000
p158
sg39
VNice
p159
sg41
(dp160
g20
VAayaan Khan
p161
sg18
V173906879734694
p162
ssg18
V1401085526603594_1401497786562368
p163
sa(dp164
g37
V2016-10-17T05:35:21+0000
p165
sg39
VAbdullah Memon De Cent Bilal Arslan Arz China Boarder
p166
sg41
(dp167
g20
VFahad Memon
p168
sg18
V10202336046358615
p169
ssg18
V1401085526603594_1401485899896890
p170
sa(dp171
g37
V2016-10-16T20:00:24+0000
p172
sg39
VAhmed Arslan Asfand Yar Hassaan Sajid
p173
sg41
(dp174
g20
VMehran Khan
p175
sg18
V651365548365289
p176
ssg18
V1401085526603594_1401111946600952
p177
sassg37
V2016-10-16T19:27:03+0000
p178
sg39
V#Khunjrab top.... The #Pakistan #China border on the 30th of May 2016...\u000a\u000aPhoto: Khurram Shahzad
p179
sg16
Vphoto
p180
sg18
V118828831495943_1401085526603594
p181
s.