(dp0
Vreactions
p1
(dp2
Vpaging
p3
(dp4
Vcursors
p5
(dp6
Vafter
p7
VTVRBd01EQTFNakE0TURNMk9UazJPakUwTnpjNE5UTXpPVEE2TWpVME1EazJNVFl4TXc9PQZDZD
p8
sVbefore
p9
VTVRBd01EQTFNakE0TURNMk9UazJPakUwTnpjNE5UTXpPVEE2TWpVME1EazJNVFl4TXc9PQZDZD
p10
ssVnext
p11
Vhttps://graph.facebook.com/v2.6/118828831495943_1407766309268849/reactions?access_token=599965930180946%7C575aa5390a4589483de7f8cf99702788&limit=1&after=TVRBd01EQTFNakE0TURNMk9UazJPakUwTnpjNE5UTXpPVEE2TWpVME1EazJNVFl4TXc9PQZDZD
p12
ssVdata
p13
(lp14
(dp15
Vtype
p16
VLIKE
p17
sVid
p18
V561562887360641
p19
sVname
p20
VSalman Mubeen
p21
sassg20
VTimeline Photos
p22
sVshares
p23
(dp24
Vcount
p25
I130
ssVlink
p26
Vhttps://www.facebook.com/ExplorePakistan/photos/a.118837968161696.8199.118828831495943/1407766309268849/?type=3
p27
sVcomments
p28
(dp29
g3
(dp30
g5
(dp31
g7
VMQZDZD
p32
sg9
VMTIZD
p33
sssg13
(lp34
(dp35
Vcreated_time
p36
V2016-10-22T20:10:05+0000
p37
sVmessage
p38
VFANTASTIC VIEW, MA SHAA ALLAH!!!
p39
sVfrom
p40
(dp41
g20
VQuaideazam Iqbal
p42
sg18
V1779926222266063
p43
ssg18
V1407766309268849_1407778539267626
p44
sa(dp45
g36
V2016-10-22T20:28:47+0000
p46
sg38
VWhich place of Neelum Valley is it?
p47
sg40
(dp48
g20
VZeeshan Khan
p49
sg18
V10207882955934014
p50
ssg18
V1407766309268849_1407794355932711
p51
sa(dp52
g36
V2016-10-22T20:32:32+0000
p53
sg38
V\u06a9\u06cc\u0627 \u062c\u06af\u06c1 \u06c1\u06d2 \u06a9\u06cc\u0627 \u0628\u0627\u062a \u06c1\u06d2 \u0645\u06cc\u0631\u06d2 \u0631\u0628 \u06a9\u06cc
p54
sg40
(dp55
g20
VN Farrukh Sheikh
p56
sg18
V282262642174425
p57
ssg18
V1407766309268849_1407796735932473
p58
sa(dp59
g36
V2016-10-25T10:50:30+0000
p60
sg38
VBeautiful
p61
sg40
(dp62
g20
VAnila Azhar
p63
sg18
V406700083052744
p64
ssg18
V1407766309268849_1410282759017204
p65
sa(dp66
g36
V2016-10-23T14:18:15+0000
p67
sg38
V<3 upper neelum valley
p68
sg40
(dp69
g20
VSajjad Rehman
p70
sg18
V1183906191676016
p71
ssg18
V1407766309268849_1408523052526508
p72
sa(dp73
g36
V2016-10-23T03:39:10+0000
p74
sg38
VWow
p75
sg40
(dp76
g20
VRabia Qadir
p77
sg18
V405873483134509
p78
ssg18
V1407766309268849_1408091525902994
p79
sa(dp80
g36
V2016-10-22T20:02:29+0000
p81
sg38
VSo beAutiful
p82
sg40
(dp83
g20
VSaima Noman
p84
sg18
V334455036913689
p85
ssg18
V1407766309268849_1407772455934901
p86
sa(dp87
g36
V2016-10-23T14:16:26+0000
p88
sg38
VAmir Alam hum yahin thehry thy <3
p89
sg40
(dp90
g20
VSajjad Rehman
p91
sg18
V1183906191676016
p92
ssg18
V1407766309268849_1408521529193327
p93
sa(dp94
g36
V2016-10-22T20:36:40+0000
p95
sg38
Vlike with love ,,,,,,,,,,,,,,,,,,,,,,,
p96
sg40
(dp97
g20
VSyed Jamal Shah
p98
sg18
V1174176239291474
p99
ssg18
V1407766309268849_1407799479265532
p100
sa(dp101
g36
V2016-10-22T23:36:25+0000
p102
sg38
VMohammed Yasir Naim Shaher Yar Khan Sheikh Fahad
p103
sg40
(dp104
g20
VNauman Munir
p105
sg18
V10210846289612583
p106
ssg18
V1407766309268849_1407936965918450
p107
sa(dp108
g36
V2016-10-22T20:15:47+0000
p109
sg38
VSoHaib AhMed
p110
sg40
(dp111
g20
VFaraz Hussain
p112
sg18
V773992412739625
p113
ssg18
V1407766309268849_1407782185933928
p114
sa(dp115
g36
V2016-10-23T07:42:15+0000
p116
sg38
VSpeechless  to see this beautiful view
p117
sg40
(dp118
g20
VMuhammad Tanveer
p119
sg18
V1829078607306348
p120
ssg18
V1407766309268849_1408253535886793
p121
sassg36
V2016-10-22T19:54:12+0000
p122
sg38
VMesmerizing Neelam #Valley #Kashmir #Pakistan
p123
sg16
Vphoto
p124
sg18
V118828831495943_1407766309268849
p125
s.