(dp0
Vreactions
p1
(dp2
Vpaging
p3
(dp4
Vcursors
p5
(dp6
Vafter
p7
VTVRBd01EQTJOVFUxT0RjMk5qRTNPakUwTnpjNE9UTTJNakU2TWpVME1EazJNVFl4TXc9PQZDZD
p8
sVbefore
p9
VTVRBd01EQTJOVFUxT0RjMk5qRTNPakUwTnpjNE9UTTJNakU2TWpVME1EazJNVFl4TXc9PQZDZD
p10
ssVnext
p11
Vhttps://graph.facebook.com/v2.6/118828831495943_1412097362169077/reactions?access_token=599965930180946%7C575aa5390a4589483de7f8cf99702788&limit=1&after=TVRBd01EQTJOVFUxT0RjMk5qRTNPakUwTnpjNE9UTTJNakU2TWpVME1EazJNVFl4TXc9PQZDZD
p12
ssVdata
p13
(lp14
(dp15
Vtype
p16
VLIKE
p17
sVid
p18
V1867038946857950
p19
sVname
p20
VAin Zahra
p21
sassg20
VTimeline Photos
p22
sVshares
p23
(dp24
Vcount
p25
I111
ssVlink
p26
Vhttps://www.facebook.com/ExplorePakistan/photos/a.118837968161696.8199.118828831495943/1412097362169077/?type=3
p27
sVcomments
p28
(dp29
g3
(dp30
g5
(dp31
g7
VMQZDZD
p32
sg9
VMQZDZD
p33
sssg13
(lp34
(dp35
Vcreated_time
p36
V2016-10-27T12:31:24+0000
p37
sVmessage
p38
VSubhan-ALLAH
p39
sVfrom
p40
(dp41
g20
VSadaf Pearl
p42
sg18
V1150647418359926
p43
ssg18
V1412097362169077_1412523848793095
p44
sassg36
V2016-10-27T03:27:39+0000
p45
sg38
Vspell bounding beauty of #Kashmir #Kutton Valley #Pakistan\u000a\u000a\u0627\u0644\u0644\u0647\u0645 \u0625\u0646\u064a \u0623\u0635\u0628\u062d\u062a\u064f \u0623\u064f\u0634\u0647\u062f\u0643\u064e \u0648\u0623\u064f\u0634\u0647\u062f\u064f \u062d\u0645\u0644\u0629\u064e \u0639\u0631\u0634\u0643 \u0648\u0645\u0644\u0627\u0626\u0643\u062a\u0643\u064e \u0648\u062c\u0645\u064a\u0639 \u062e\u0644\u0642\u0643 \u0623\u0646\u0643 \u0623\u0646\u062a \u0627\u0644\u0644\u0647 \u0644\u0627 \u0625\u0644\u0647 \u0625\u0644\u0627 \u0623\u0646\u062a \u0648\u062d\u062f\u0643 \u0644\u0627 \u0634\u0631\u064a\u0643 \u0644\u0643 \u0648\u0623\u0646 \u0645\u062d\u0645\u062f\u064b\u0627 \u0639\u064e\u0628\u062f\u064c\u0643\u064e \u0648\u0631\u0633\u0648\u0644\u0643.
p46
sg16
Vphoto
p47
sg18
V118828831495943_1412097362169077
p48
s.