(dp0
Vreactions
p1
(dp2
Vpaging
p3
(dp4
Vcursors
p5
(dp6
Vafter
p7
VTVRBd01ERXdNRFUxTWpNMk9EWTJPakUwTnpjM01UTXhNamc2TWpVME1EazJNVFl4TXc9PQZDZD
p8
sVbefore
p9
VTVRBd01ERXdNRFUxTWpNMk9EWTJPakUwTnpjM01UTXhNamc2TWpVME1EazJNVFl4TXc9PQZDZD
p10
ssVnext
p11
Vhttps://graph.facebook.com/v2.6/118828831495943_1393189237393223/reactions?access_token=599965930180946%7C575aa5390a4589483de7f8cf99702788&summary=true&limit=1&after=TVRBd01ERXdNRFUxTWpNMk9EWTJPakUwTnpjM01UTXhNamc2TWpVME1EazJNVFl4TXc9PQZDZD
p12
ssVdata
p13
(lp14
(dp15
Vtype
p16
VLIKE
p17
sVid
p18
V364818280530010
p19
sVname
p20
VFida Hussain
p21
sasVsummary
p22
(dp23
Vtotal_count
p24
I514
sVviewer_reaction
p25
VNONE
p26
sssg20
VTimeline Photos
p27
sVshares
p28
(dp29
Vcount
p30
I33
ssVlink
p31
Vhttps://www.facebook.com/ExplorePakistan/photos/a.118837968161696.8199.118828831495943/1393189237393223/?type=3
p32
sVcomments
p33
(dp34
g3
(dp35
g5
(dp36
g7
VMQZDZD
p37
sg9
VMwZDZD
p38
sssg13
(lp39
(dp40
Vcreated_time
p41
V2016-10-09T10:12:59+0000
p42
sVmessage
p43
VHighest point in kaghan valley is the summit of malka parbat.
p44
sVfrom
p45
(dp46
g20
VTehsin Razi
p47
sg18
V1142696532483576
p48
ssg18
V1393189237393223_1393191730726307
p49
sa(dp50
g41
V2016-10-10T12:04:50+0000
p51
sg43
VBhut bada hai beita g
p52
sg45
(dp53
g20
VAmjad Shah
p54
sg18
V642122805960732
p55
ssg18
V1393189237393223_1394240927288054
p56
sa(dp57
g41
V2016-10-09T11:00:30+0000
p58
sg43
VBabusar top
p59
sg45
(dp60
g20
VHamza Shabbir
p61
sg18
V1138970636157950
p62
ssg18
V1393189237393223_1393233050722175
p63
sassg41
V2016-10-09T10:09:53+0000
p64
sg43
VBabusar Pass or Babusar Top(el. 4173 m./13,691 ft.) is a mountain pass at the north of the 150 km long Kaghan Valley connecting it via the Thak Nala with Chilas on the Karakoram Highway (KKH).\u000a\u000aPic: Khurram Shahzad on 18/9/2016
p65
sg16
Vphoto
p66
sg18
V118828831495943_1393189237393223
p67
s.