(dp0
Vreactions
p1
(dp2
Vpaging
p3
(dp4
Vcursors
p5
(dp6
Vafter
p7
VTVRBd01EQXlORE01TkRJNU9EYzFPakUwTnpjNE56Y3dNakU2TWpVME1EazJNVFl4TXc9PQZDZD
p8
sVbefore
p9
VTVRBd01EQXlORE01TkRJNU9EYzFPakUwTnpjNE56Y3dNakU2TWpVME1EazJNVFl4TXc9PQZDZD
p10
ssVnext
p11
Vhttps://graph.facebook.com/v2.6/134699573259938_1245399822189902/reactions?access_token=599965930180946%7C575aa5390a4589483de7f8cf99702788&limit=1&after=TVRBd01EQXlORE01TkRJNU9EYzFPakUwTnpjNE56Y3dNakU2TWpVME1EazJNVFl4TXc9PQZDZD
p12
ssVdata
p13
(lp14
(dp15
Vtype
p16
VLIKE
p17
sVid
p18
V1124279770996660
p19
sVname
p20
VN Otorious Baig
p21
sassg20
VTimeline Photos
p22
sVshares
p23
(dp24
Vcount
p25
I6
ssVlink
p26
Vhttps://www.facebook.com/BeautifulPakistan/photos/a.135084629888099.26734.134699573259938/1245399822189902/?type=3
p27
sVcreated_time
p28
V2016-10-30T05:37:34+0000
p29
sVmessage
p30
VKKH #Pakistan
p31
sg16
Vphoto
p32
sg18
V134699573259938_1245399822189902
p33
s.