(dp0
Vreactions
p1
(dp2
Vpaging
p3
(dp4
Vcursors
p5
(dp6
Vafter
p7
VTVRBd01EQXhNRGd5T1RneE1qYzBPakUwTnpjM05UTXpNakE2TWpVME1EazJNVFl4TXc9PQZDZD
p8
sVbefore
p9
VTVRBd01EQXhNRGd5T1RneE1qYzBPakUwTnpjM05UTXpNakE2TWpVME1EazJNVFl4TXc9PQZDZD
p10
ssVnext
p11
Vhttps://graph.facebook.com/v2.6/134699573259938_1238511036212114/reactions?access_token=599965930180946%7C575aa5390a4589483de7f8cf99702788&limit=1&after=TVRBd01EQXhNRGd5T1RneE1qYzBPakUwTnpjM05UTXpNakE2TWpVME1EazJNVFl4TXc9PQZDZD
p12
ssVdata
p13
(lp14
(dp15
Vtype
p16
VLIKE
p17
sVid
p18
V1217474514965303
p19
sVname
p20
VMaryam Gh
p21
sassg20
VTimeline Photos
p22
sVshares
p23
(dp24
Vcount
p25
I11
ssVlink
p26
Vhttps://www.facebook.com/BeautifulPakistan/photos/a.135084629888099.26734.134699573259938/1238511036212114/?type=3
p27
sVcomments
p28
(dp29
g3
(dp30
g5
(dp31
g7
VMQZDZD
p32
sg9
VMQZDZD
p33
sssg13
(lp34
(dp35
Vcreated_time
p36
V2016-10-24T17:11:03+0000
p37
sVmessage
p38
VStunninggggg
p39
sVfrom
p40
(dp41
g20
VShah Hassan
p42
sg18
V1465292700165857
p43
ssg18
V1238511036212114_1238641492865735
p44
sassg36
V2016-10-24T14:04:28+0000
p45
sg38
V#Langar in #Ghizer valley in north #Pakistan. It is very much near to the #Shandur pass and has a wonderful landscape...
p46
sg16
Vphoto
p47
sg18
V134699573259938_1238511036212114
p48
s.