(dp0
Vreactions
p1
(dp2
Vpaging
p3
(dp4
Vcursors
p5
(dp6
Vafter
p7
VTVRBd01EQTJNREl6TkRFM09EazJPakUwTnpZAMk16TXlNVE02TWpVME1EazJNVFl4TXc9PQZDZD
p8
sVbefore
p9
VTVRBd01EQTJNREl6TkRFM09EazJPakUwTnpZAMk16TXlNVE02TWpVME1EazJNVFl4TXc9PQZDZD
p10
ssVnext
p11
Vhttps://graph.facebook.com/v2.6/134699573259938_1640761539549501/reactions?access_token=599965930180946%7C575aa5390a4589483de7f8cf99702788&limit=1&after=TVRBd01EQTJNREl6TkRFM09EazJPakUwTnpZAMk16TXlNVE02TWpVME1EazJNVFl4TXc9PQZDZD
p12
ssVdata
p13
(lp14
(dp15
Vtype
p16
VLIKE
p17
sVid
p18
V580420362168739
p19
sVname
p20
V\u0646\u0638\u06c1\u0631 \u062d\u0633\u06cc\u0646
p21
sassVlink
p22
Vhttps://www.facebook.com/photo.php?fbid=1640761539549501&set=o.134699573259938&type=3
p23
sVcreated_time
p24
V2016-10-15T15:04:45+0000
p25
sVmessage
p26
VAssalamoakikum
p27
sg16
Vphoto
p28
sg18
V134699573259938_1640761539549501
p29
s.