(dp0
Vreactions
p1
(dp2
Vpaging
p3
(dp4
Vcursors
p5
(dp6
Vafter
p7
VTVRBd01EQTBOVEE0TnpBeU5EWTJPakUwTnpZAek9UUXdPRGM2TWpVME1EazJNVFl4TXc9PQZDZD
p8
sVbefore
p9
VTVRBd01EQTBOVEE0TnpBeU5EWTJPakUwTnpZAek9UUXdPRGM2TWpVME1EazJNVFl4TXc9PQZDZD
p10
ssVnext
p11
Vhttps://graph.facebook.com/v2.6/134699573259938_1223873391009212/reactions?access_token=599965930180946%7C575aa5390a4589483de7f8cf99702788&limit=1&after=TVRBd01EQTBOVEE0TnpBeU5EWTJPakUwTnpZAek9UUXdPRGM2TWpVME1EazJNVFl4TXc9PQZDZD
p12
ssVdata
p13
(lp14
(dp15
Vtype
p16
VLIKE
p17
sVid
p18
V654103004749984
p19
sVname
p20
VMarium Asghar
p21
sassg20
VTimeline Photos
p22
sVshares
p23
(dp24
Vcount
p25
I13
ssVlink
p26
Vhttps://www.facebook.com/BeautifulPakistan/photos/a.135084629888099.26734.134699573259938/1223873391009212/?type=3
p27
sVcomments
p28
(dp29
g3
(dp30
g5
(dp31
g7
VMQZDZD
p32
sg9
VMwZDZD
p33
sssg13
(lp34
(dp35
Vcreated_time
p36
V2016-10-12T03:52:46+0000
p37
sVmessage
p38
VMasha Allah
p39
sVfrom
p40
(dp41
g20
VRed King
p42
sg18
V539581912913307
p43
ssg18
V1223873391009212_1225308474199037
p44
sa(dp45
g36
V2016-10-11T10:05:15+0000
p46
sg38
VWhere it.is in naran?
p47
sg40
(dp48
g20
VMoon Ch
p49
sg18
V973931752720513
p50
ssg18
V1223873391009212_1224492650947286
p51
sa(dp52
g36
V2016-10-10T17:51:20+0000
p53
sg38
VAccommodation kitne ki ho gi takreban
p54
sg40
(dp55
g20
VUsman Mirza
p56
sg18
V1086594911423846
p57
ssg18
V1223873391009212_1223878481008703
p58
sassg36
V2016-10-10T17:40:56+0000
p59
sg38
VDamadam Village, #Naran
p60
sg16
Vphoto
p61
sg18
V134699573259938_1223873391009212
p62
s.