(dp0
Vreactions
p1
(dp2
Vpaging
p3
(dp4
Vcursors
p5
(dp6
Vafter
p7
VTVRBd01EQTJORE0zTURFek5ESXdPakUwTnpjM09UVTJPRFE2TWpVME1EazJNVFl4TXc9PQZDZD
p8
sVbefore
p9
VTVRBd01EQTJORE0zTURFek5ESXdPakUwTnpjM09UVTJPRFE2TWpVME1EazJNVFl4TXc9PQZDZD
p10
ssVnext
p11
Vhttps://graph.facebook.com/v2.6/134699573259938_1244567715606446/reactions?access_token=599965930180946%7C575aa5390a4589483de7f8cf99702788&limit=1&after=TVRBd01EQTJORE0zTURFek5ESXdPakUwTnpjM09UVTJPRFE2TWpVME1EazJNVFl4TXc9PQZDZD
p12
ssVdata
p13
(lp14
(dp15
Vtype
p16
VLIKE
p17
sVid
p18
V2045932245631323
p19
sVname
p20
VSaima Sualeh
p21
sassg20
VPhotos from Pakistan The Beautiful Country's post
p22
sVshares
p23
(dp24
Vcount
p25
I1
ssVlink
p26
Vhttps://www.facebook.com/BeautifulPakistan/photos/a.493061140757111.1073741825.134699573259938/1244567672273117/?type=3
p27
sVcreated_time
p28
V2016-10-29T13:50:42+0000
p29
sVmessage
p30
VLet's enjoy the Deosai plains with Snow and Brown Bear.
p31
sg16
Vphoto
p32
sg18
V134699573259938_1244567715606446
p33
s.