(dp0
Vreactions
p1
(dp2
Vpaging
p3
(dp4
Vcursors
p5
(dp6
Vafter
p7
VTVRBd01EQTBOVEE0TnpBeU5EWTJPakUwTnpZAek9UUXhOVEU2TWpVME1EazJNVFl4TXc9PQZDZD
p8
sVbefore
p9
VTVRBd01EQTBOVEE0TnpBeU5EWTJPakUwTnpZAek9UUXhOVEU2TWpVME1EazJNVFl4TXc9PQZDZD
p10
ssVnext
p11
Vhttps://graph.facebook.com/v2.6/134699573259938_1218033434926541/reactions?access_token=599965930180946%7C575aa5390a4589483de7f8cf99702788&limit=1&after=TVRBd01EQTBOVEE0TnpBeU5EWTJPakUwTnpZAek9UUXhOVEU2TWpVME1EazJNVFl4TXc9PQZDZD
p12
ssVdata
p13
(lp14
(dp15
Vtype
p16
VLIKE
p17
sVid
p18
V654103004749984
p19
sVname
p20
VMarium Asghar
p21
sassg20
VTimeline Photos
p22
sVshares
p23
(dp24
Vcount
p25
I12
ssVlink
p26
Vhttps://www.facebook.com/BeautifulPakistan/photos/a.135084629888099.26734.134699573259938/1218033434926541/?type=3
p27
sVcomments
p28
(dp29
g3
(dp30
g5
(dp31
g7
VMQZDZD
p32
sg9
VMgZDZD
p33
sssg13
(lp34
(dp35
Vcreated_time
p36
V2016-10-04T09:45:38+0000
p37
sVmessage
p38
VWonderful
p39
sVfrom
p40
(dp41
g20
VPiroska Maksai
p42
sg18
V264955457181936
p43
ssg18
V1218033434926541_1218038534926031
p44
sa(dp45
g36
V2016-10-04T10:19:41+0000
p46
sg38
VAlizay Khan
p47
sg40
(dp48
g20
VAqib Waseem
p49
sg18
V1637888276508812
p50
ssg18
V1218033434926541_1218062561590295
p51
sassg36
V2016-10-04T09:37:40+0000
p52
sg38
VAtabad Lake #Gojal #Pakistan\u000a\u000aPicture : Tanveer Salman
p53
sg16
Vphoto
p54
sg18
V134699573259938_1218033434926541
p55
s.