(dp0
Vreactions
p1
(dp2
Vpaging
p3
(dp4
Vcursors
p5
(dp6
Vafter
p7
VTVRBd01EQXdORE00TWpBME5qSXlPakUwTnpjMk9EZA3dOems2TWpVME1EazJNVFl4TXc9PQZDZD
p8
sVbefore
p9
VTVRBd01EQXdORE00TWpBME5qSXlPakUwTnpjMk9EZA3dOems2TWpVME1EazJNVFl4TXc9PQZDZD
p10
ssVnext
p11
Vhttps://graph.facebook.com/v2.6/134699573259938_1237525669643984/reactions?access_token=599965930180946%7C575aa5390a4589483de7f8cf99702788&limit=1&after=TVRBd01EQXdORE00TWpBME5qSXlPakUwTnpjMk9EZA3dOems2TWpVME1EazJNVFl4TXc9PQZDZD
p12
ssVdata
p13
(lp14
(dp15
Vtype
p16
VLIKE
p17
sVid
p18
V1185175151507080
p19
sVname
p20
VAhmed Hassan
p21
sassg20
VTimeline Photos
p22
sVshares
p23
(dp24
Vcount
p25
I27
ssVlink
p26
Vhttps://www.facebook.com/BeautifulPakistan/photos/a.135084629888099.26734.134699573259938/1237525669643984/?type=3
p27
sVcomments
p28
(dp29
g3
(dp30
g5
(dp31
g7
VMQZDZD
p32
sg9
VMgZDZD
p33
sssg13
(lp34
(dp35
Vcreated_time
p36
V2016-10-23T14:05:45+0000
p37
sVmessage
p38
VWao so beautiful
p39
sVfrom
p40
(dp41
g20
VDuaa Shahzad Sana Shahzad
p42
sg18
V146925115775095
p43
ssg18
V1237525669643984_1237552439641307
p44
sa(dp45
g36
V2016-10-24T06:15:25+0000
p46
sg38
VSami Baloch
p47
sg40
(dp48
g20
V'Auzi' Syed
p49
sg18
V10209590502512459
p50
ssg18
V1237525669643984_1238213806241837
p51
sassg36
V2016-10-23T13:26:07+0000
p52
sg38
VA recent picture of Khunjeerb pass! \u000a#Snowland
p53
sg16
Vphoto
p54
sg18
V134699573259938_1237525669643984
p55
s.