(dp0
Vreactions
p1
(dp2
Vpaging
p3
(dp4
Vcursors
p5
(dp6
Vafter
p7
VTVRBd01EQXhNRGd5T1RneE1qYzBPakUwTnpjM05UTXpNak02TWpVME1EazJNVFl4TXc9PQZDZD
p8
sVbefore
p9
VTVRBd01EQXhNRGd5T1RneE1qYzBPakUwTnpjM05UTXpNak02TWpVME1EazJNVFl4TXc9PQZDZD
p10
ssVnext
p11
Vhttps://graph.facebook.com/v2.6/134699573259938_1237585979637953/reactions?access_token=599965930180946%7C575aa5390a4589483de7f8cf99702788&limit=1&after=TVRBd01EQXhNRGd5T1RneE1qYzBPakUwTnpjM05UTXpNak02TWpVME1EazJNVFl4TXc9PQZDZD
p12
ssVdata
p13
(lp14
(dp15
Vtype
p16
VLIKE
p17
sVid
p18
V1217474514965303
p19
sVname
p20
VMaryam Gh
p21
sassg20
VTimeline Photos
p22
sVshares
p23
(dp24
Vcount
p25
I19
ssVlink
p26
Vhttps://www.facebook.com/BeautifulPakistan/photos/a.135084629888099.26734.134699573259938/1237585979637953/?type=3
p27
sVcomments
p28
(dp29
g3
(dp30
g5
(dp31
g7
VMQZDZD
p32
sg9
VMwZDZD
p33
sssg13
(lp34
(dp35
Vcreated_time
p36
V2016-10-24T04:39:58+0000
p37
sVmessage
p38
Vhome sweet home. if any one  wana visit or see this view I will show him
p39
sVfrom
p40
(dp41
g20
VGhulam Hussain
p42
sg18
V1019453158146551
p43
ssg18
V1237585979637953_1238148636248354
p44
sa(dp45
g36
V2016-10-23T16:04:23+0000
p46
sg38
VNusrat Zeeshan
p47
sg40
(dp48
g20
VZeeshan Khan
p49
sg18
V1250179141667037
p50
ssg18
V1237585979637953_1237623586300859
p51
sa(dp52
g36
V2016-10-23T17:23:14+0000
p53
sg38
VFake
p54
sg40
(dp55
g20
VYaseen Bakht Yar
p56
sg18
V1355296651156020
p57
ssg18
V1237585979637953_1237694856293732
p58
sassg36
V2016-10-23T15:05:36+0000
p59
sg38
VMariabad, #Quetta at night\u000aPhoto by Sadat Saboori
p60
sg16
Vphoto
p61
sg18
V134699573259938_1237585979637953
p62
s.