(dp0
Vreactions
p1
(dp2
Vpaging
p3
(dp4
Vcursors
p5
(dp6
Vafter
p7
VTVRBd01EQTNOemMzTVRVek56Y3hPakUwTnpjMk1UVTNNalk2TWpVME1EazJNVFl4TXc9PQZDZD
p8
sVbefore
p9
VTVRBd01EQTNOemMzTVRVek56Y3hPakUwTnpjMk1UVTNNalk2TWpVME1EazJNVFl4TXc9PQZDZD
p10
ssVnext
p11
Vhttps://graph.facebook.com/v2.6/134699573259938_1230172767045941/reactions?access_token=599965930180946%7C575aa5390a4589483de7f8cf99702788&limit=1&after=TVRBd01EQTNOemMzTVRVek56Y3hPakUwTnpjMk1UVTNNalk2TWpVME1EazJNVFl4TXc9PQZDZD
p12
ssVdata
p13
(lp14
(dp15
Vtype
p16
VLIKE
p17
sVid
p18
V1744112292524659
p19
sVname
p20
VPrincess Tamina
p21
sassg20
VTimeline Photos
p22
sVshares
p23
(dp24
Vcount
p25
I10
ssVlink
p26
Vhttps://www.facebook.com/BeautifulPakistan/photos/a.135084629888099.26734.134699573259938/1230172767045941/?type=3
p27
sVcomments
p28
(dp29
g3
(dp30
g5
(dp31
g7
VMQZDZD
p32
sg9
VMwZDZD
p33
sssg13
(lp34
(dp35
Vcreated_time
p36
V2016-10-16T15:56:25+0000
p37
sVmessage
p38
VWhere is this
p39
sVfrom
p40
(dp41
g20
VYasir Saleem Rana
p42
sg18
V785053258302177
p43
ssg18
V1230172767045941_1230356130360938
p44
sa(dp45
g36
V2016-10-16T14:08:04+0000
p46
sg38
VFaaiz Memon
p47
sg40
(dp48
g20
VSohail Raza Langah
p49
sg18
V1335847856445807
p50
ssg18
V1230172767045941_1230272403702644
p51
sa(dp52
g36
V2016-10-18T06:54:29+0000
p53
sg38
VTell me admin
p54
sg40
(dp55
g20
VYasir Saleem Rana
p56
sg18
V785053258302177
p57
ssg18
V1230172767045941_1232146143515270
p58
sassg36
V2016-10-16T11:49:47+0000
p59
sg38
VThe #Katpana Desert at #Skardu, #Gilgit-#Baltistan in #Pakistan, this desert is also known as the "Cold Desert"
p60
sg16
Vphoto
p61
sg18
V134699573259938_1230172767045941
p62
s.