(dp0
Vreactions
p1
(dp2
Vpaging
p3
(dp4
Vcursors
p5
(dp6
Vafter
p7
VTVRBd01EQXhOamN4TlRFd01EQTFPakUwTnpjek1UazFNakk2TWpVME1EazJNVFl4TXc9PQZDZD
p8
sVbefore
p9
VTVRBd01EQXhOamN4TlRFd01EQTFPakUwTnpjek1UazFNakk2TWpVME1EazJNVFl4TXc9PQZDZD
p10
ssVnext
p11
Vhttps://graph.facebook.com/v2.6/134699573259938_1220148531381698/reactions?access_token=599965930180946%7C575aa5390a4589483de7f8cf99702788&limit=1&after=TVRBd01EQXhOamN4TlRFd01EQTFPakUwTnpjek1UazFNakk2TWpVME1EazJNVFl4TXc9PQZDZD
p12
ssVdata
p13
(lp14
(dp15
Vtype
p16
VLIKE
p17
sVid
p18
V1166270610105312
p19
sVname
p20
VSuhaib Zafar
p21
sassg20
VTimeline Photos
p22
sVshares
p23
(dp24
Vcount
p25
I17
ssVlink
p26
Vhttps://www.facebook.com/BeautifulPakistan/photos/a.135084629888099.26734.134699573259938/1220148531381698/?type=3
p27
sVcomments
p28
(dp29
g3
(dp30
g5
(dp31
g7
VMQZDZD
p32
sg9
VMQZDZD
p33
sssg13
(lp34
(dp35
Vcreated_time
p36
V2016-10-07T13:47:00+0000
p37
sVmessage
p38
VThis lake is love <3
p39
sVfrom
p40
(dp41
g20
VNimra Mansoor
p42
sg18
V1247541875312086
p43
ssg18
V1220148531381698_1221077681288783
p44
sassg36
V2016-10-06T11:47:49+0000
p45
sg38
VAttabad lake , Hunza Pakistan
p46
sg16
Vphoto
p47
sg18
V134699573259938_1220148531381698
p48
s.