(dp0
Vreactions
p1
(dp2
Vpaging
p3
(dp4
Vcursors
p5
(dp6
Vafter
p7
VTVRBd01EQTNOemMzTVRVek56Y3hPakUwTnpjMk1UVTNNekk2TWpVME1EazJNVFl4TXc9PQZDZD
p8
sVbefore
p9
VTVRBd01EQTNOemMzTVRVek56Y3hPakUwTnpjMk1UVTNNekk2TWpVME1EazJNVFl4TXc9PQZDZD
p10
ssVnext
p11
Vhttps://graph.facebook.com/v2.6/134699573259938_1231388900257661/reactions?access_token=599965930180946%7C575aa5390a4589483de7f8cf99702788&limit=1&after=TVRBd01EQTNOemMzTVRVek56Y3hPakUwTnpjMk1UVTNNekk2TWpVME1EazJNVFl4TXc9PQZDZD
p12
ssVdata
p13
(lp14
(dp15
Vtype
p16
VLIKE
p17
sVid
p18
V1744112292524659
p19
sVname
p20
VPrincess Tamina
p21
sassg20
VTimeline Photos
p22
sVshares
p23
(dp24
Vcount
p25
I16
ssVlink
p26
Vhttps://www.facebook.com/BeautifulPakistan/photos/a.135084629888099.26734.134699573259938/1231388900257661/?type=3
p27
sVcomments
p28
(dp29
g3
(dp30
g5
(dp31
g7
VMQZDZD
p32
sg9
VNQZDZD
p33
sssg13
(lp34
(dp35
Vcreated_time
p36
V2016-10-17T17:03:17+0000
p37
sVmessage
p38
VWonderful
p39
sVfrom
p40
(dp41
g20
VPiroska Maksai
p42
sg18
V264955457181936
p43
ssg18
V1231388900257661_1231457530250798
p44
sa(dp45
g36
V2016-10-18T17:56:32+0000
p46
sg38
VPakistan is a great country in the whole world...
p47
sg40
(dp48
g20
VHusnain Asif
p49
sg18
V1583820198589652
p50
ssg18
V1231388900257661_1232784733451411
p51
sa(dp52
g36
V2016-10-17T16:59:58+0000
p53
sg38
VBeautiful
p54
sg40
(dp55
g20
VShafiq Khand
p56
sg18
V566592106858439
p57
ssg18
V1231388900257661_1231453996917818
p58
sa(dp59
g36
V2016-10-18T02:49:59+0000
p60
sg38
VYe to Apna hi h
p61
sg40
(dp62
g20
VAkhil Jain
p63
sg18
V1108682122514163
p64
ssg18
V1231388900257661_1231909113538973
p65
sa(dp66
g36
V2016-10-17T17:10:34+0000
p67
sg38
VWao
p68
sg40
(dp69
g20
VDuaa Shahzad Sana Shahzad
p70
sg18
V146925115775095
p71
ssg18
V1231388900257661_1231463643583520
p72
sassg36
V2016-10-17T15:55:43+0000
p73
sg38
V#Khokush Lake \u000a#Langar, #Ghizer Valley, #Gilgit-#Baltistan, #Pakistan\u000a\u000aPhoto: USMAN ZUBAIR
p74
sg16
Vphoto
p75
sg18
V134699573259938_1231388900257661
p76
s.