(dp0
Vreactions
p1
(dp2
Vpaging
p3
(dp4
Vcursors
p5
(dp6
Vafter
p7
VTVRBd01EQTNOemMzTVRVek56Y3hPakUwTnpjMk1UVTNOVE02TWpVME1EazJNVFl4TXc9PQZDZD
p8
sVbefore
p9
VTVRBd01EQTNOemMzTVRVek56Y3hPakUwTnpjMk1UVTNOVE02TWpVME1EazJNVFl4TXc9PQZDZD
p10
ssVnext
p11
Vhttps://graph.facebook.com/v2.6/134699573259938_1232065693523315/reactions?access_token=599965930180946%7C575aa5390a4589483de7f8cf99702788&limit=1&after=TVRBd01EQTNOemMzTVRVek56Y3hPakUwTnpjMk1UVTNOVE02TWpVME1EazJNVFl4TXc9PQZDZD
p12
ssVdata
p13
(lp14
(dp15
Vtype
p16
VLIKE
p17
sVid
p18
V1744112292524659
p19
sVname
p20
VPrincess Tamina
p21
sassg20
VTimeline Photos
p22
sVshares
p23
(dp24
Vcount
p25
I10
ssVlink
p26
Vhttps://www.facebook.com/BeautifulPakistan/photos/a.135084629888099.26734.134699573259938/1232065693523315/?type=3
p27
sVcreated_time
p28
V2016-10-18T05:16:02+0000
p29
sVmessage
p30
V#SummertoAutumn #AutumnSeason \u000a\u000aShayar Village - Nagar Valley, Pakistan \u000a\u000aby Mobeen Mazhar's Photography \u000a\u000a#SeeMyPakistan #TheKarakoramClub #PakSarZameen
p31
sg16
Vphoto
p32
sg18
V134699573259938_1232065693523315
p33
s.