(dp0
Vreactions
p1
(dp2
Vpaging
p3
(dp4
Vcursors
p5
(dp6
Vafter
p7
VTVRBd01EQTBPVEE1TWpRMU1EWXlPakUwTnpjeU5EYzNNakk2TWpVME1EazJNVFl4TXc9PQZDZD
p8
sVbefore
p9
VTVRBd01EQTBPVEE1TWpRMU1EWXlPakUwTnpjeU5EYzNNakk2TWpVME1EazJNVFl4TXc9PQZDZD
p10
ssVnext
p11
Vhttps://graph.facebook.com/v2.6/134699573259938_1218030714926813/reactions?access_token=599965930180946%7C575aa5390a4589483de7f8cf99702788&limit=1&after=TVRBd01EQTBPVEE1TWpRMU1EWXlPakUwTnpjeU5EYzNNakk2TWpVME1EazJNVFl4TXc9PQZDZD
p12
ssVdata
p13
(lp14
(dp15
Vtype
p16
VLIKE
p17
sVid
p18
V658166341023668
p19
sVname
p20
VManzoor Ali Gulzari
p21
sassg20
VTimeline Photos
p22
sVshares
p23
(dp24
Vcount
p25
I12
ssVlink
p26
Vhttps://www.facebook.com/BeautifulPakistan/photos/a.135084629888099.26734.134699573259938/1218030714926813/?type=3
p27
sVcomments
p28
(dp29
g3
(dp30
g5
(dp31
g7
VMQZDZD
p32
sg9
VMQZDZD
p33
sssg13
(lp34
(dp35
Vcreated_time
p36
V2016-10-05T08:14:47+0000
p37
sVmessage
p38
VKKH Gilgit
p39
sVfrom
p40
(dp41
g20
VZain Raja
p42
sg18
V1152508334834321
p43
ssg18
V1218030714926813_1218966781499873
p44
sassg36
V2016-10-04T09:30:04+0000
p45
sg38
VMIGHTY KARAKURAM HIGHWAY AND PASU CONES
p46
sg16
Vphoto
p47
sg18
V134699573259938_1218030714926813
p48
s.