(dp0
Vname
p1
VTunnel Farming in Pakistan, The Green Circle
p2
sVcomments
p3
(dp4
Vpaging
p5
(dp6
Vcursors
p7
(dp8
Vafter
p9
VMQZDZD
p10
sVbefore
p11
VMQZDZD
p12
sssVdata
p13
(lp14
(dp15
Vcreated_time
p16
V2016-10-17T15:27:08+0000
p17
sVmessage
p18
VSajid Iqbal Sandhu
p19
sVfrom
p20
(dp21
g1
VJadeed Zaraat MY
p22
sVid
p23
V1219268214811991
p24
ssg23
V1205401186198694_1205401692865310
p25
sassVlink
p26
Vhttps://www.facebook.com/TunnelFarmingPK/photos/a.687879514574917.1073741857.264730686889804/1255145794514950/?type=3
p27
sg16
V2016-10-17T15:26:15+0000
p28
sg18
Vhttps://www.facebook.com/TunnelFarmingPK/posts/1255146511181545
p29
sVtype
p30
Vphoto
p31
sg23
V134699573259938_1205401186198694
p32
s.