(dp0
Vreactions
p1
(dp2
Vpaging
p3
(dp4
Vcursors
p5
(dp6
Vafter
p7
VTVRBd01EQTBNall5T1RRMU9EZAzBPakUwTnpjeE9UTTJPRFE2TWpVME1EazJNVFl4TXc9PQZDZD
p8
sVbefore
p9
VTVRBd01EQTBNall5T1RRMU9EZAzBPakUwTnpjeE9UTTJPRFE2TWpVME1EazJNVFl4TXc9PQZDZD
p10
ssVnext
p11
Vhttps://graph.facebook.com/v2.6/134699573259938_1216319641764587/reactions?access_token=599965930180946%7C575aa5390a4589483de7f8cf99702788&limit=1&after=TVRBd01EQTBNall5T1RRMU9EZAzBPakUwTnpjeE9UTTJPRFE2TWpVME1EazJNVFl4TXc9PQZDZD
p12
ssVdata
p13
(lp14
(dp15
Vtype
p16
VLIKE
p17
sVid
p18
V728641503954608
p19
sVname
p20
VMuhammad Waseem Tanoli
p21
sassg20
VTimeline Photos
p22
sVshares
p23
(dp24
Vcount
p25
I16
ssVlink
p26
Vhttps://www.facebook.com/BeautifulPakistan/photos/a.135084629888099.26734.134699573259938/1216319641764587/?type=3
p27
sVcomments
p28
(dp29
g3
(dp30
g5
(dp31
g7
VMQZDZD
p32
sg9
VMgZDZD
p33
sssg13
(lp34
(dp35
Vcreated_time
p36
V2016-10-02T15:14:08+0000
p37
sVmessage
p38
VIdhr diyar dil drama cast kia gya tha... i thnk..\U0001f60a
p39
sVfrom
p40
(dp41
g20
VDua A\u0142\u0131
p42
sg18
V1723032831353478
p43
ssg18
V1216319641764587_1216465425083342
p44
sa(dp45
g36
V2016-10-02T11:43:54+0000
p46
sg38
VUswah Wajahat
p47
sg40
(dp48
g20
VImaan Ali
p49
sg18
V1229359397086255
p50
ssg18
V1216319641764587_1216325585097326
p51
sassg36
V2016-10-02T11:34:18+0000
p52
sg38
V#Khaplu Palace, locally known as Yabgo Khar, is an old fort and palace located in Khaplu, in the #Baltistan region of #Gilgit-Baltistan Province in Northern #Pakistan.\u000a\u000aPhoto: Zia ul Haq
p53
sg16
Vphoto
p54
sg18
V134699573259938_1216319641764587
p55
s.