(dp0
Vreactions
p1
(dp2
Vpaging
p3
(dp4
Vcursors
p5
(dp6
Vafter
p7
VTVRBd01ERXpOell4T1RNeU5qRXlPakUwTnpZAME5qazBNREk2TWpVME1EazJNVFl4TXc9PQZDZD
p8
sVbefore
p9
VTVRBd01ERXpOell4T1RNeU5qRXlPakUwTnpZAME5qazBNREk2TWpVME1EazJNVFl4TXc9PQZDZD
p10
ssVnext
p11
Vhttps://graph.facebook.com/v2.6/134699573259938_1221076617955556/reactions?access_token=599965930180946%7C575aa5390a4589483de7f8cf99702788&limit=1&after=TVRBd01ERXpOell4T1RNeU5qRXlPakUwTnpZAME5qazBNREk2TWpVME1EazJNVFl4TXc9PQZDZD
p12
ssVdata
p13
(lp14
(dp15
Vtype
p16
VLIKE
p17
sVid
p18
V143169042818493
p19
sVname
p20
VKamar Khan
p21
sassg20
VTimeline Photos
p22
sVshares
p23
(dp24
Vcount
p25
I21
ssVlink
p26
Vhttps://www.facebook.com/BeautifulPakistan/photos/a.135084629888099.26734.134699573259938/1221076617955556/?type=3
p27
sVcomments
p28
(dp29
g3
(dp30
g5
(dp31
g7
VMQZDZD
p32
sg9
VMwZDZD
p33
sssg13
(lp34
(dp35
Vcreated_time
p36
V2016-10-07T15:45:20+0000
p37
sVmessage
p38
VBeautiful track...
p39
sVfrom
p40
(dp41
g20
VMian Ahmad Saeed
p42
sg18
V1216059948452474
p43
ssg18
V1221076617955556_1221145164615368
p44
sa(dp45
g36
V2016-10-08T04:19:36+0000
p46
sg38
VMushkpuri konse city main hai ?????????
p47
sg40
(dp48
g20
VAyaz Hussain
p49
sg18
V1768969473354233
p50
ssg18
V1221076617955556_1221620367901181
p51
sa(dp52
g36
V2016-10-07T15:52:31+0000
p53
sg38
VWao
p54
sg40
(dp55
g20
VDuaa Shahzad Sana Shahzad
p56
sg18
V146925115775095
p57
ssg18
V1221076617955556_1221149157948302
p58
sassg36
V2016-10-07T13:45:15+0000
p59
sg38
VSomewhere on the way to Mushkpuri...
p60
sg16
Vphoto
p61
sg18
V134699573259938_1221076617955556
p62
s.