(dp0
Vreactions
p1
(dp2
Vpaging
p3
(dp4
Vcursors
p5
(dp6
Vafter
p7
VTVRBd01EQTNOemMzTVRVek56Y3hPakUwTnpjMk1UVTNORGM2TWpVME1EazJNVFl4TXc9PQZDZD
p8
sVbefore
p9
VTVRBd01EQTNOemMzTVRVek56Y3hPakUwTnpjMk1UVTNORGM2TWpVME1EazJNVFl4TXc9PQZDZD
p10
ssVnext
p11
Vhttps://graph.facebook.com/v2.6/134699573259938_1231390653590819/reactions?access_token=599965930180946%7C575aa5390a4589483de7f8cf99702788&limit=1&after=TVRBd01EQTNOemMzTVRVek56Y3hPakUwTnpjMk1UVTNORGM2TWpVME1EazJNVFl4TXc9PQZDZD
p12
ssVdata
p13
(lp14
(dp15
Vtype
p16
VLIKE
p17
sVid
p18
V1744112292524659
p19
sVname
p20
VPrincess Tamina
p21
sassg20
VPhotos from Pakistan The Beautiful Country's post
p22
sVshares
p23
(dp24
Vcount
p25
I11
ssVlink
p26
Vhttps://www.facebook.com/BeautifulPakistan/photos/a.135084629888099.26734.134699573259938/1231390586924159/?type=3
p27
sVcreated_time
p28
V2016-10-17T18:09:40+0000
p29
sVmessage
p30
V1st ship from China arrived at Gawadar Deep Seaport and the port is operational now Alhamdolillah!
p31
sg16
Vphoto
p32
sg18
V134699573259938_1231390653590819
p33
s.