(dp0
Vreactions
p1
(dp2
Vpaging
p3
(dp4
Vcursors
p5
(dp6
Vafter
p7
VTVRBd01EQTNOemMzTVRVek56Y3hPakUwTnpjMk1UVTNOalU2TWpVME1EazJNVFl4TXc9PQZDZD
p8
sVbefore
p9
VTVRBd01EQTNOemMzTVRVek56Y3hPakUwTnpjMk1UVTNOalU2TWpVME1EazJNVFl4TXc9PQZDZD
p10
ssVnext
p11
Vhttps://graph.facebook.com/v2.6/134699573259938_1232380810158470/reactions?access_token=599965930180946%7C575aa5390a4589483de7f8cf99702788&limit=1&after=TVRBd01EQTNOemMzTVRVek56Y3hPakUwTnpjMk1UVTNOalU2TWpVME1EazJNVFl4TXc9PQZDZD
p12
ssVdata
p13
(lp14
(dp15
Vtype
p16
VLIKE
p17
sVid
p18
V1744112292524659
p19
sVname
p20
VPrincess Tamina
p21
sassg20
VTimeline Photos
p22
sVshares
p23
(dp24
Vcount
p25
I13
ssVlink
p26
Vhttps://www.facebook.com/BeautifulPakistan/photos/a.135084629888099.26734.134699573259938/1232380810158470/?type=3
p27
sVcomments
p28
(dp29
g3
(dp30
g5
(dp31
g7
VMgZDZD
p32
sg9
VMgZDZD
p33
sssg13
(lp34
(dp35
Vcreated_time
p36
V2016-10-18T23:52:11+0000
p37
sVmessage
p38
VAmazing
p39
sVfrom
p40
(dp41
g20
VMaftah Khan
p42
sg18
V924306744380048
p43
ssg18
V1232380810158470_1233029010093650
p44
sassg36
V2016-10-18T11:59:38+0000
p45
sg38
V\u0634\u0627\u0626\u062f \u0635\u062f\u06cc\u0648\u06ba \u067e\u06c1\u0644\u06d2 \u06a9\u0648\u0626\u06cc \u0627\u0646\u0633\u0627\u0646 \u0627\u0633 \u0637\u0631\u0641 \u06a9\u0648 \u06af\u0632\u0631\u0627 \u06c1\u0648 \u06af\u0627 \u0627\u0648\u0631 \u067e\u06be\u0631 \u06cc\u06c1\u0627\u06ba \u06a9\u06cc \u0646\u0627\u0642\u0627\u0628\u0644 \u0628\u0631\u062f\u0627\u0634\u062a \u062e\u0648\u0628\u0635\u0648\u0631\u062a\u06cc \u062f\u06cc\u06a9\u06be \u06a9\u06c1 \u067e\u062a\u06be\u0631 \u06a9\u0627 \u06be\u0648 \u06af\u06cc\u0627\u06d4\u000aSome where inbetween Kel and Sharda\u000aNeelum Valley
p46
sg16
Vphoto
p47
sg18
V134699573259938_1232380810158470
p48
s.