(dp0
Vreactions
p1
(dp2
Vpaging
p3
(dp4
Vcursors
p5
(dp6
Vafter
p7
VTVRBd01EQTNOemMzTVRVek56Y3hPakUwTnpjMk1UVTNPREE2TWpVME1EazJNVFl4TXc9PQZDZD
p8
sVbefore
p9
VTVRBd01EQTNOemMzTVRVek56Y3hPakUwTnpjMk1UVTNPREE2TWpVME1EazJNVFl4TXc9PQZDZD
p10
ssVnext
p11
Vhttps://graph.facebook.com/v2.6/134699573259938_1233683986694819/reactions?access_token=599965930180946%7C575aa5390a4589483de7f8cf99702788&limit=1&after=TVRBd01EQTNOemMzTVRVek56Y3hPakUwTnpjMk1UVTNPREE2TWpVME1EazJNVFl4TXc9PQZDZD
p12
ssVdata
p13
(lp14
(dp15
Vtype
p16
VLIKE
p17
sVid
p18
V1744112292524659
p19
sVname
p20
VPrincess Tamina
p21
sassg20
VTimeline Photos
p22
sVshares
p23
(dp24
Vcount
p25
I15
ssVlink
p26
Vhttps://www.facebook.com/BeautifulPakistan/photos/a.135084629888099.26734.134699573259938/1233683986694819/?type=3
p27
sVcomments
p28
(dp29
g3
(dp30
g5
(dp31
g7
VMQZDZD
p32
sg9
VMgZDZD
p33
sssg13
(lp34
(dp35
Vcreated_time
p36
V2016-10-19T18:39:58+0000
p37
sVmessage
p38
VMASHALLAH
p39
sVfrom
p40
(dp41
g20
VDuaa Shahzad Sana Shahzad
p42
sg18
V146925115775095
p43
ssg18
V1233683986694819_1233737736689444
p44
sa(dp45
g36
V2016-10-20T14:26:22+0000
p46
sg38
VQaraquram ka Taj Mahal..
p47
sg40
(dp48
g20
VAsra Naveed
p49
sg18
V938925372886283
p50
ssg18
V1233683986694819_1234522469944304
p51
sassg36
V2016-10-19T17:36:49+0000
p52
sg38
V#Rakaposhi #morning\u000aEarly morning sun rays at rakaposhi.. view from eagle's nest\u000aAugust 2016\u000aBy : Afnan
p53
sg16
Vphoto
p54
sg18
V134699573259938_1233683986694819
p55
s.