(dp0
Vreactions
p1
(dp2
Vpaging
p3
(dp4
Vcursors
p5
(dp6
Vafter
p7
VTVRBd01EQXhOVGN6TVRrM016YzVPakUwTnpjM05UVTJPVFk2TnpnNE5qUTRNRE0zT1RFek16RXkZD
p8
sVbefore
p9
VTVRBd01EQXhOVGN6TVRrM016YzVPakUwTnpjM05UVTJPVFk2TnpnNE5qUTRNRE0zT1RFek16RXkZD
p10
ssVnext
p11
Vhttps://graph.facebook.com/v2.6/134699573259938_1242397569156794/reactions?access_token=599965930180946%7C575aa5390a4589483de7f8cf99702788&limit=1&after=TVRBd01EQXhOVGN6TVRrM016YzVPakUwTnpjM05UVTJPVFk2TnpnNE5qUTRNRE0zT1RFek16RXkZD
p12
ssVdata
p13
(lp14
(dp15
Vtype
p16
VLOVE
p17
sVid
p18
V1282524771809950
p19
sVname
p20
VRana Burhan Khalil
p21
sassg20
VTimeline Photos
p22
sVshares
p23
(dp24
Vcount
p25
I13
ssVlink
p26
Vhttps://www.facebook.com/BeautifulPakistan/photos/a.135084629888099.26734.134699573259938/1242397569156794/?type=3
p27
sVcreated_time
p28
V2016-10-27T17:21:44+0000
p29
sVmessage
p30
V3 PICTURES\u000a3 SEASONS...\u000aOn way to Khanjraab Paas <3
p31
sg16
Vphoto
p32
sg18
V134699573259938_1242397569156794
p33
s.