(dp0
Vreactions
p1
(dp2
Vpaging
p3
(dp4
Vcursors
p5
(dp6
Vafter
p7
VTVRBNE1UVTJNelF5T1RveE5EYzNPREEyTURJd09qSTFOREE1TmpFMk1UTT0ZD
p8
sVbefore
p9
VTVRBNE1UVTJNelF5T1RveE5EYzNPREEyTURJd09qSTFOREE1TmpFMk1UTT0ZD
p10
ssVnext
p11
Vhttps://graph.facebook.com/v2.6/134699573259938_1240900039306547/reactions?access_token=599965930180946%7C575aa5390a4589483de7f8cf99702788&limit=1&after=TVRBNE1UVTJNelF5T1RveE5EYzNPREEyTURJd09qSTFOREE1TmpFMk1UTT0ZD
p12
ssVdata
p13
(lp14
(dp15
Vtype
p16
VLIKE
p17
sVid
p18
V10209216770071270
p19
sVname
p20
VKashif Usman
p21
sassg20
VTimeline Photos
p22
sVshares
p23
(dp24
Vcount
p25
I10
ssVlink
p26
Vhttps://www.facebook.com/BeautifulPakistan/photos/a.135084629888099.26734.134699573259938/1240900039306547/?type=3
p27
sVcreated_time
p28
V2016-10-26T12:50:51+0000
p29
sVmessage
p30
VRed Mountains of #Ziarat\u000a#Balochistan #Pakistan
p31
sg16
Vphoto
p32
sg18
V134699573259938_1240900039306547
p33
s.