(dp0
Vname
p1
VPolo, North Pakistan 2015
p2
sVlink
p3
Vhttps://www.youtube.com/watch?v=uimUu7v397A
p4
sVcreated_time
p5
V2016-10-20T18:35:43+0000
p6
sVmessage
p7
VPlease see my video of polo in Khaplu and Chitral. Thanks. 
p8
sVtype
p9
Vvideo
p10
sVid
p11
V134699573259938_10211151831617247
p12
s.