(dp0
Vreactions
p1
(dp2
Vpaging
p3
(dp4
Vcursors
p5
(dp6
Vafter
p7
VTVRBd01EQXhOamN4TlRFd01EQTFPakUwTnpjek1UazBORFk2TnpnNE5qUTRNRE0zT1RFek16RXkZD
p8
sVbefore
p9
VTVRBd01EQXhOamN4TlRFd01EQTFPakUwTnpjek1UazBORFk2TnpnNE5qUTRNRE0zT1RFek16RXkZD
p10
ssVnext
p11
Vhttps://graph.facebook.com/v2.6/134699573259938_1230091680387383/reactions?access_token=599965930180946%7C575aa5390a4589483de7f8cf99702788&limit=1&after=TVRBd01EQXhOamN4TlRFd01EQTFPakUwTnpjek1UazBORFk2TnpnNE5qUTRNRE0zT1RFek16RXkZD
p12
ssVdata
p13
(lp14
(dp15
Vtype
p16
VLOVE
p17
sVid
p18
V1166270610105312
p19
sVname
p20
VSuhaib Zafar
p21
sassg20
VTimeline Photos
p22
sVshares
p23
(dp24
Vcount
p25
I1
ssVlink
p26
Vhttps://www.facebook.com/BeautifulPakistan/photos/a.135084629888099.26734.134699573259938/1230091680387383/?type=3
p27
sVcreated_time
p28
V2016-10-16T09:33:54+0000
p29
sVmessage
p30
V\u0642\u0628\u0627\u0626\u0644\u06cc \u0639\u0644\u0627\u0642\u06c1 (\u0641\u0627\u0679\u0627) \u0627\u0648\u0631 \u06a9\u0648\u06c1\u0650 \u0633\u0644\u06cc\u0645\u0627\u0646 \u06a9\u06d2 \u062f\u0631\u0648\u06ba \u0645\u06cc\u06ba \u0633\u06d2 \u06af\u0632\u0631\u062a\u06cc \u06c1\u0648\u0626\u06cc \u0642\u0648\u0645\u06cc \u0634\u0627\u06c1\u0631\u0627\u06c150 (N-50) \u067e\u0631\u060c \u0627\u06a9\u062a\u0648\u0628\u0631 2015\u0621 \u06a9\u06cc \u0627\u06cc\u06a9 \u0635\u0628\u062d \u0688\u06cc\u0631\u06c1 \u0627\u0633\u0645\u0627\u0639\u06cc\u0644 \u062e\u0627\u0646 \u0633\u06d2 \u0698\u0648\u0628 (\u0628\u0644\u0648\u0686\u0633\u062a\u0627\u0646) \u062c\u0627\u062a\u06d2 \u06c1\u0648\u0626\u06d2\u06d4
p31
sg16
Vphoto
p32
sg18
V134699573259938_1230091680387383
p33
s.