(dp0
Vreactions
p1
(dp2
Vpaging
p3
(dp4
Vcursors
p5
(dp6
Vafter
p7
VTVRBd01EQTNOemMzTVRVek56Y3hPakUwTnpjMk1UVTNPVE02TWpVME1EazJNVFl4TXc9PQZDZD
p8
sVbefore
p9
VTVRBd01EQTNOemMzTVRVek56Y3hPakUwTnpjMk1UVTNPVE02TWpVME1EazJNVFl4TXc9PQZDZD
p10
ssVnext
p11
Vhttps://graph.facebook.com/v2.6/134699573259938_1236573619739189/reactions?access_token=599965930180946%7C575aa5390a4589483de7f8cf99702788&limit=1&after=TVRBd01EQTNOemMzTVRVek56Y3hPakUwTnpjMk1UVTNPVE02TWpVME1EazJNVFl4TXc9PQZDZD
p12
ssVdata
p13
(lp14
(dp15
Vtype
p16
VLIKE
p17
sVid
p18
V1744112292524659
p19
sVname
p20
VPrincess Tamina
p21
sassg20
VTimeline Photos
p22
sVshares
p23
(dp24
Vcount
p25
I13
ssVlink
p26
Vhttps://www.facebook.com/BeautifulPakistan/photos/a.135084629888099.26734.134699573259938/1236573619739189/?type=3
p27
sVcomments
p28
(dp29
g3
(dp30
g5
(dp31
g7
VMQZDZD
p32
sg9
VMgZDZD
p33
sssg13
(lp34
(dp35
Vcreated_time
p36
V2016-10-22T19:22:27+0000
p37
sVmessage
p38
VJust wow
p39
sVfrom
p40
(dp41
g20
VShayan Khan
p42
sg18
V1240225096040978
p43
ssg18
V1236573619739189_1236840399712511
p44
sa(dp45
g36
V2016-10-23T08:31:37+0000
p46
sg38
VSyed Bilal Javaid OK karo ye :D
p47
sg40
(dp48
g20
VWaleed Khalid
p49
sg18
V10153891177051811
p50
ssg18
V1236573619739189_1237340019662549
p51
sassg36
V2016-10-22T13:49:23+0000
p52
sg38
VLooks Like a 3D Image Or Image From a Racing Game? .. But Its Our Very Own Karakoram Highway Right After Raikot Bridge ..\u000a\u000aPic : Adeel Pervaiz
p53
sg16
Vphoto
p54
sg18
V134699573259938_1236573619739189
p55
s.