(dp0
Vreactions
p1
(dp2
Vpaging
p3
(dp4
Vcursors
p5
(dp6
Vafter
p7
VTVRBd01EQTVNak00TnpFeE1URXlPakUwTnpZANE9ESXhNRGc2TWpVME1EazJNVFl4TXc9PQZDZD
p8
sVbefore
p9
VTVRBd01EQTVNak00TnpFeE1URXlPakUwTnpZANE9ESXhNRGc2TWpVME1EazJNVFl4TXc9PQZDZD
p10
ssVnext
p11
Vhttps://graph.facebook.com/v2.6/134699573259938_1217082655021619/reactions?access_token=599965930180946%7C575aa5390a4589483de7f8cf99702788&limit=1&after=TVRBd01EQTVNak00TnpFeE1URXlPakUwTnpZANE9ESXhNRGc2TWpVME1EazJNVFl4TXc9PQZDZD
p12
ssVdata
p13
(lp14
(dp15
Vtype
p16
VLIKE
p17
sVid
p18
V1692006507783957
p19
sVname
p20
VIshfaq Ali
p21
sassg20
VTimeline Photos
p22
sVshares
p23
(dp24
Vcount
p25
I6
ssVlink
p26
Vhttps://www.facebook.com/BeautifulPakistan/photos/a.135084629888099.26734.134699573259938/1217082655021619/?type=3
p27
sVcomments
p28
(dp29
g3
(dp30
g5
(dp31
g7
VMQZDZD
p32
sg9
VMgZDZD
p33
sssg13
(lp34
(dp35
Vcreated_time
p36
V2016-10-03T16:04:59+0000
p37
sVmessage
p38
VAmazing
p39
sVfrom
p40
(dp41
g20
VIntisar Ul Hassan
p42
sg18
V1000395593422866
p43
ssg18
V1217082655021619_1217429894986895
p44
sa(dp45
g36
V2016-10-03T11:49:55+0000
p46
sg38
VBeautiful
p47
sg40
(dp48
g20
VPiroska Maksai
p49
sg18
V264955457181936
p50
ssg18
V1217082655021619_1217246445005240
p51
sassg36
V2016-10-03T06:25:28+0000
p52
sg38
V#Pasni #Balochistan #Pakistan
p53
sg16
Vphoto
p54
sg18
V134699573259938_1217082655021619
p55
s.