(dp0
Vreactions
p1
(dp2
Vpaging
p3
(dp4
Vcursors
p5
(dp6
Vafter
p7
VTVRBd01EQTNNakUzT0RnNE16UTBPakUwTnpjMU16azVNVEk2TWpVME1EazJNVFl4TXc9PQZDZD
p8
sVbefore
p9
VTVRBd01EQTNNakUzT0RnNE16UTBPakUwTnpjMU16azVNVEk2TWpVME1EazJNVFl4TXc9PQZDZD
p10
ssVnext
p11
Vhttps://graph.facebook.com/v2.6/143201606114212_193700924397613/reactions?access_token=599965930180946%7C575aa5390a4589483de7f8cf99702788&summary=true&limit=1&after=TVRBd01EQTNNakUzT0RnNE16UTBPakUwTnpjMU16azVNVEk2TWpVME1EazJNVFl4TXc9PQZDZD
p12
ssVdata
p13
(lp14
(dp15
Vtype
p16
VLIKE
p17
sVid
p18
V1739213372995909
p19
sVname
p20
VShah Raza
p21
sasVsummary
p22
(dp23
Vtotal_count
p24
I119
sVviewer_reaction
p25
VNONE
p26
sssg20
V12 Stunning Photos of Pakistan-India Borders
p27
sVshares
p28
(dp29
Vcount
p30
I19
ssVlink
p31
Vhttp://www.wonderfulpoint.com/2015/10/pakistan-india-border-pictures.html
p32
sVcomments
p33
(dp34
g3
(dp35
g5
(dp36
g7
VMQZDZD
p37
sg9
VMQZDZD
p38
sssg13
(lp39
(dp40
Vcreated_time
p41
V2016-10-06T15:12:14+0000
p42
sVmessage
p43
Vwhy will any Pakistani wish to unite with Indians? Yeah we will unite, but under a Pakistani flag..!!
p44
sVfrom
p45
(dp46
g20
VSyed Haider Ali Gillani
p47
sg18
V322625244776154
p48
ssg18
V193700924397613_195607964206909
p49
sassg41
V2016-10-03T14:24:42+0000
p50
sg43
V12 Stunning Photos of Pakistan-India Borders
p51
sg16
Vlink
p52
sg18
V143201606114212_193700924397613
p53
s.