(dp0
Vreactions
p1
(dp2
Vpaging
p3
(dp4
Vcursors
p5
(dp6
Vafter
p7
VTVRBd01EQXdOVEk1T1RBNE9EQTRPakUwTnpjMk9ERTNOakk2TnpnNE5qUTRNRE0zT1RFek16RXkZD
p8
sVbefore
p9
VTVRBd01EQXdOVEk1T1RBNE9EQTRPakUwTnpjMk9ERTNOakk2TnpnNE5qUTRNRE0zT1RFek16RXkZD
p10
ssVnext
p11
Vhttps://graph.facebook.com/v2.6/143201606114212_196533967447642/reactions?access_token=599965930180946%7C575aa5390a4589483de7f8cf99702788&summary=true&limit=1&after=TVRBd01EQXdOVEk1T1RBNE9EQTRPakUwTnpjMk9ERTNOakk2TnpnNE5qUTRNRE0zT1RFek16RXkZD
p12
ssVdata
p13
(lp14
(dp15
Vtype
p16
VLOVE
p17
sVid
p18
V1440936049267378
p19
sVname
p20
VUmmama Khan
p21
sasVsummary
p22
(dp23
Vtotal_count
p24
I1877
sVviewer_reaction
p25
VNONE
p26
sssg20
VTimeline Photos
p27
sVshares
p28
(dp29
Vcount
p30
I305
ssVlink
p31
Vhttps://www.facebook.com/wonderfulpakistan/photos/a.143285289439177.1073741828.143201606114212/196533967447642/?type=3
p32
sVcomments
p33
(dp34
g3
(dp35
g5
(dp36
g7
VMgZDZD
p37
sg9
VMjIZD
p38
ssg11
Vhttps://graph.facebook.com/v2.6/143201606114212_196533967447642/comments?access_token=599965930180946%7C575aa5390a4589483de7f8cf99702788&limit=20&after=MgZDZD
p39
ssg13
(lp40
(dp41
Vcreated_time
p42
V2016-10-08T20:23:28+0000
p43
sVmessage
p44
VIslamabad is beautiful but the way you take the photo its amazing bro keep it up................
p45
sVfrom
p46
(dp47
g20
VRahat Ali Khan
p48
sg18
V1178450712234007
p49
ssg18
V196533967447642_196964977404541
p50
sa(dp51
g42
V2016-10-08T17:28:38+0000
p52
sg44
VNice
p53
sg46
(dp54
g20
VBetaaj Khans
p55
sg18
V241471432935090
p56
ssg18
V196533967447642_196857470748625
p57
sa(dp58
g42
V2016-10-09T05:00:15+0000
p59
sg44
VNice
p60
sg46
(dp61
g20
VWaqas Khan Waqas
p62
sg18
V347919392222746
p63
ssg18
V196533967447642_197147654052940
p64
sa(dp65
g42
V2016-10-08T16:25:15+0000
p66
sg44
VSo beautiful scene
p67
sg46
(dp68
g20
VFazal Ur Rehman
p69
sg18
V188610041590131
p70
ssg18
V196533967447642_196825207418518
p71
sa(dp72
g42
V2016-10-09T06:15:04+0000
p73
sg44
V2nd beautiful capital of the world
p74
sg46
(dp75
g20
VShehryar Ahmad
p76
sg18
V193944427678682
p77
ssg18
V196533967447642_197176880716684
p78
sa(dp79
g42
V2016-10-08T18:06:33+0000
p80
sg44
VView is  so nice and beautiful
p81
sg46
(dp82
g20
VShamima Shahjehan
p83
sg18
V193206401086446
p84
ssg18
V196533967447642_196876304080075
p85
sa(dp86
g42
V2016-10-08T15:03:55+0000
p87
sg44
VNoor hogya....
p88
sg46
(dp89
g20
VSyed EmRaan Xaidi
p90
sg18
V712097848956910
p91
ssg18
V196533967447642_196786280755744
p92
sa(dp93
g42
V2016-10-09T18:27:02+0000
p94
sg44
VSo beautiful and attractive
p95
sg46
(dp96
g20
VMalika Naseer
p97
sg18
V368014843535209
p98
ssg18
V196533967447642_197540537346985
p99
sa(dp100
g42
V2016-10-08T15:58:59+0000
p101
sg44
VMashALLAH
p102
sg46
(dp103
g20
VSaeed Ur Rehman
p104
sg18
V391027801286292
p105
ssg18
V196533967447642_196813464086359
p106
sa(dp107
g42
V2016-10-08T17:03:23+0000
p108
sg44
VMashallah nice
p109
sg46
(dp110
g20
VUmair Khan
p111
sg18
V330959910614758
p112
ssg18
V196533967447642_196847697416269
p113
sa(dp114
g42
V2016-10-08T15:08:37+0000
p115
sg44
VWao
p116
sg46
(dp117
g20
VImran Khan Rind
p118
sg18
V655054111325280
p119
ssg18
V196533967447642_196788980755474
p120
sa(dp121
g42
V2016-10-08T16:38:25+0000
p122
sg44
VMashaAllah so beautiful
p123
sg46
(dp124
g20
VMayabini Maya
p125
sg18
V1776212795953214
p126
ssg18
V196533967447642_196836314084074
p127
sa(dp128
g42
V2016-10-09T19:10:35+0000
p129
sg44
VDama ne ko
p130
sg46
(dp131
g20
VBakht Sher
p132
sg18
V351679841852960
p133
ssg18
V196533967447642_197554110678961
p134
sa(dp135
g42
V2016-10-08T20:51:56+0000
p136
sg44
VVery nice
p137
sg46
(dp138
g20
VMuhammad Asif
p139
sg18
V211454682612159
p140
ssg18
V196533967447642_196975100736862
p141
sa(dp142
g42
V2016-10-08T16:47:12+0000
p143
sg44
VVeri nc
p144
sg46
(dp145
g20
VMatee Ullah
p146
sg18
V1783791161909319
p147
ssg18
V196533967447642_196840464083659
p148
sa(dp149
g42
V2016-10-08T14:52:50+0000
p150
sg44
VQasim Zahoor Noman Ullah yr plan bnao islamabad ka
p151
sg46
(dp152
g20
VAhmad Anwar
p153
sg18
V1808036002808226
p154
ssg18
V196533967447642_196780160756356
p155
sa(dp156
g42
V2016-10-09T10:22:15+0000
p157
sg44
VHamara piara pakistan
p158
sg46
(dp159
g20
VFaisal Abbasi
p160
sg18
V1675577346067575
p161
ssg18
V196533967447642_197281604039545
p162
sa(dp163
g42
V2016-10-08T15:19:38+0000
p164
sg44
V\U0001f63d Wonderful\U0001f43a Pakistan\U0001f604 F33L\U0001f525 TH3\U0001f61a POW3R\U0001f341 OF\U0001f3b6 CHAMPIONS\U0001f466 \U0001f472 :)\U0001f38e \u000a\u000a:* Add Kar Lo Sab :)  Just Now Lo Aur Do :) AdD clOse krO  Wonderful Pakistan\u000a:D Saturday : 8 - October - 2016\u000a:3 CHAMPION BOT TEAM <3 -=[FAWAD BAIG]]=- Wonderful Pakistan\u000a-_- :)  I Am On Fire :)  -18 menit :D 10 detik :v \u000a<3   Bot  By  Malik Murtaza\u000a<3  CHAMPI0NS (^^^) B0T T3AM B| \u000a<3 SIT3 <3 FAWADBEST.TK <3
p165
sg46
(dp166
g20
VMalik Murtaza
p167
sg18
V640644439430673
p168
ssg18
V196533967447642_196794420754930
p169
sa(dp170
g42
V2016-10-08T19:54:39+0000
p171
sg44
VM dekh chuki hn ye seen
p172
sg46
(dp173
g20
VAyesha Chudary
p174
sg18
V179336569190752
p175
ssg18
V196533967447642_196951087405930
p176
sa(dp177
g42
V2016-10-09T03:05:57+0000
p178
sg44
VAR Rehman
p179
sg46
(dp180
g20
VUsman Hussain
p181
sg18
V820659591404112
p182
ssg18
V196533967447642_197110140723358
p183
sassg42
V2016-10-08T14:37:27+0000
p184
sg44
VFaisal Masjid and Margalla Hills, Islamabad. (Photo by Imran Maskeen)
p185
sg16
Vphoto
p186
sg18
V143201606114212_196533967447642
p187
s.