(dp0
Vreactions
p1
(dp2
Vpaging
p3
(dp4
Vcursors
p5
(dp6
Vafter
p7
VTVRBd01EQTNNakUzT0RnNE16UTBPakUwTnpjMU16azNOelU2TWpVME1EazJNVFl4TXc9PQZDZD
p8
sVbefore
p9
VTVRBd01EQTNNakUzT0RnNE16UTBPakUwTnpjMU16azNOelU2TWpVME1EazJNVFl4TXc9PQZDZD
p10
ssVnext
p11
Vhttps://graph.facebook.com/v2.6/143201606114212_194189691015403/reactions?access_token=599965930180946%7C575aa5390a4589483de7f8cf99702788&summary=true&limit=1&after=TVRBd01EQTNNakUzT0RnNE16UTBPakUwTnpjMU16azNOelU2TWpVME1EazJNVFl4TXc9PQZDZD
p12
ssVdata
p13
(lp14
(dp15
Vtype
p16
VLIKE
p17
sVid
p18
V1739213372995909
p19
sVname
p20
VShah Raza
p21
sasVsummary
p22
(dp23
Vtotal_count
p24
I1014
sVviewer_reaction
p25
VNONE
p26
sssg20
VTimeline Photos
p27
sVshares
p28
(dp29
Vcount
p30
I118
ssVlink
p31
Vhttps://www.facebook.com/wonderfulpakistan/photos/a.143285289439177.1073741828.143201606114212/194189691015403/?type=3
p32
sVcomments
p33
(dp34
g3
(dp35
g5
(dp36
g7
VMQZDZD
p37
sg9
VMgZDZD
p38
sssg13
(lp39
(dp40
Vcreated_time
p41
V2016-10-04T12:22:17+0000
p42
sVmessage
p43
VWhere is the water?
p44
sVfrom
p45
(dp46
g20
VZeeshan Wazir
p47
sg18
V1830673327165142
p48
ssg18
V194189691015403_194269187674120
p49
sa(dp50
g41
V2016-10-04T12:28:44+0000
p51
sg43
VBeautiful view
p52
sg45
(dp53
g20
VIdress Khan
p54
sg18
V1818356405116807
p55
ssg18
V194189691015403_194274047673634
p56
sassg41
V2016-10-04T12:01:52+0000
p57
sg43
VSaiful Malook, Naran, KPK. (Photo by Muhammad Ashar Photography)
p58
sg16
Vphoto
p59
sg18
V143201606114212_194189691015403
p60
s.