(dp0
Vreactions
p1
(dp2
Vpaging
p3
(dp4
Vcursors
p5
(dp6
Vafter
p7
VTVRBd01EQXdOVEk1T1RBNE9EQTRPakUwTnpjMk9ERXhPVGs2TWpVME1EazJNVFl4TXc9PQZDZD
p8
sVbefore
p9
VTVRBd01EQXdOVEk1T1RBNE9EQTRPakUwTnpjMk9ERXhPVGs2TWpVME1EazJNVFl4TXc9PQZDZD
p10
ssVnext
p11
Vhttps://graph.facebook.com/v2.6/143201606114212_199703727130666/reactions?access_token=599965930180946%7C575aa5390a4589483de7f8cf99702788&limit=1&after=TVRBd01EQXdOVEk1T1RBNE9EQTRPakUwTnpjMk9ERXhPVGs2TWpVME1EazJNVFl4TXc9PQZDZD
p12
ssVdata
p13
(lp14
(dp15
Vtype
p16
VLIKE
p17
sVid
p18
V1440936049267378
p19
sVname
p20
VUmmama Khan
p21
sassg20
VTimeline Photos
p22
sVshares
p23
(dp24
Vcount
p25
I383
ssVlink
p26
Vhttps://www.facebook.com/wonderfulpakistan/photos/a.143285289439177.1073741828.143201606114212/199703727130666/?type=3
p27
sVcomments
p28
(dp29
g3
(dp30
g5
(dp31
g7
VMQZDZD
p32
sg9
VMTUZD
p33
sssg13
(lp34
(dp35
Vcreated_time
p36
V2016-10-14T02:05:32+0000
p37
sVmessage
p38
VA wonderful architecture of the great Mughal era.
p39
sVfrom
p40
(dp41
g20
VYasir Junaid Mirza
p42
sg18
V187140728401788
p43
ssg18
V199703727130666_200007680433604
p44
sa(dp45
g36
V2016-10-13T14:21:07+0000
p46
sg38
VMadha allah
p47
sg40
(dp48
g20
VIrfan Lala
p49
sg18
V1705945582959286
p50
ssg18
V199703727130666_199721737128865
p51
sa(dp52
g36
V2016-10-13T17:34:02+0000
p53
sg38
VSo BEAUTIFUL  MASJID
p54
sg40
(dp55
g20
VQasim Syed
p56
sg18
V216056962140864
p57
ssg18
V199703727130666_199807750453597
p58
sa(dp59
g36
V2016-10-13T14:55:04+0000
p60
sg38
VMashallah
p61
sg40
(dp62
g20
VSajjad Abbasi
p63
sg18
V1727055807616883
p64
ssg18
V199703727130666_199738613793844
p65
sa(dp66
g36
V2016-10-13T14:01:40+0000
p67
sg38
VMasha Allah so beautiful masjid
p68
sg40
(dp69
g20
VSunrise Glory
p70
sg18
V1702854479988381
p71
ssg18
V199703727130666_199713450463027
p72
sa(dp73
g36
V2016-10-15T03:04:03+0000
p74
sg38
VMasha Allah khobsorat nizara he
p75
sg40
(dp76
g20
VM Younis Soomro
p77
sg18
V279761832420112
p78
ssg18
V199703727130666_200669187034120
p79
sa(dp80
g36
V2016-10-14T03:13:46+0000
p81
sg38
VBeautiful
p82
sg40
(dp83
g20
VRana Amjad
p84
sg18
V1799814896968736
p85
ssg18
V199703727130666_200031933764512
p86
sa(dp87
g36
V2016-10-13T14:52:08+0000
p88
sg38
VMa Sha Allah
p89
sg40
(dp90
g20
VShoaib Khan
p91
sg18
V266737850388680
p92
ssg18
V199703727130666_199737520460620
p93
sa(dp94
g36
V2016-10-30T16:32:42+0000
p95
sg38
VSubhallah
p96
sg40
(dp97
g20
VAkhtar Hussain
p98
sg18
V1107668176006995
p99
ssg18
V199703727130666_210962696004769
p100
sa(dp101
g36
V2016-10-13T17:00:44+0000
p102
sg38
Vmasha allah
p103
sg40
(dp104
g20
VMuhammad Ikram Rehmani
p105
sg18
V1077089732407502
p106
ssg18
V199703727130666_199794307121608
p107
sa(dp108
g36
V2016-10-14T01:40:05+0000
p109
sg38
Vmuy bella
p110
sg40
(dp111
g20
VMaria Cecilia Reyes Chaves
p112
sg18
V10210838752710331
p113
ssg18
V199703727130666_199997830434589
p114
sa(dp115
g36
V2016-10-14T04:15:00+0000
p116
sg38
VMasha Allah
p117
sg40
(dp118
g20
VAmeerBux Sultani
p119
sg18
V145618782572717
p120
ssg18
V199703727130666_200048117096227
p121
sa(dp122
g36
V2016-10-13T14:45:28+0000
p123
sg38
VSubhan tare rahamat mola
p124
sg40
(dp125
g20
VHamza Aslam
p126
sg18
V210418626059555
p127
ssg18
V199703727130666_199734213794284
p128
sassg36
V2016-10-13T13:49:38+0000
p129
sg38
VBadshahi Masjid, Lahore
p130
sg16
Vphoto
p131
sg18
V143201606114212_199703727130666
p132
s.