(dp0
Vreactions
p1
(dp2
Vpaging
p3
(dp4
Vcursors
p5
(dp6
Vafter
p7
VTVRBd01EQTNNakUzT0RnNE16UTBPakUwTnpjMU16azROelk2TWpVME1EazJNVFl4TXc9PQZDZD
p8
sVbefore
p9
VTVRBd01EQTNNakUzT0RnNE16UTBPakUwTnpjMU16azROelk2TWpVME1EazJNVFl4TXc9PQZDZD
p10
ssVnext
p11
Vhttps://graph.facebook.com/v2.6/143201606114212_193363941097978/reactions?access_token=599965930180946%7C575aa5390a4589483de7f8cf99702788&summary=true&limit=1&after=TVRBd01EQTNNakUzT0RnNE16UTBPakUwTnpjMU16azROelk2TWpVME1EazJNVFl4TXc9PQZDZD
p12
ssVdata
p13
(lp14
(dp15
Vtype
p16
VLIKE
p17
sVid
p18
V1739213372995909
p19
sVname
p20
VShah Raza
p21
sasVsummary
p22
(dp23
Vtotal_count
p24
I1233
sVviewer_reaction
p25
VNONE
p26
sssg20
VTimeline Photos
p27
sVshares
p28
(dp29
Vcount
p30
I172
ssVlink
p31
Vhttps://www.facebook.com/wonderfulpakistan/photos/a.143285289439177.1073741828.143201606114212/193363941097978/?type=3
p32
sVcomments
p33
(dp34
g3
(dp35
g5
(dp36
g7
VMQZDZD
p37
sg9
VNQZDZD
p38
sssg13
(lp39
(dp40
Vcreated_time
p41
V2016-10-03T16:24:00+0000
p42
sVmessage
p43
VAdnan Gabral \U0001f602
p44
sVfrom
p45
(dp46
g20
VFaisal Nisar
p47
sg18
V1136140256482525
p48
ssg18
V193363941097978_193755134392192
p49
sa(dp50
g41
V2016-10-04T05:20:01+0000
p51
sg43
V
p52
sg45
(dp53
g20
VAdnan Ikram
p54
sg18
V1844572042440261
p55
ssg18
V193363941097978_194090451025327
p56
sa(dp57
g41
V2016-10-03T21:55:53+0000
p58
sg43
g52
sg45
(dp59
g20
VMalik Asad
p60
sg18
V1111876405565241
p61
ssg18
V193363941097978_193909451043427
p62
sa(dp63
g41
V2016-10-04T05:33:46+0000
p64
sg43
VWhere this river situated in swat ?
p65
sg45
(dp66
g20
VTahir Shakoor
p67
sg18
V677181795782960
p68
ssg18
V193363941097978_194100571024315
p69
sa(dp70
g41
V2016-10-04T04:40:56+0000
p71
sg43
VMashaAllah.subhanAllah.
p72
sg45
(dp73
g20
VArifa Mirza
p74
sg18
V1802662706657402
p75
ssg18
V193363941097978_194078784359827
p76
sassg41
V2016-10-03T15:18:59+0000
p77
sg43
VGabral River. Swat, KPK. (Photo by Khwaja Nasir Hassan)
p78
sg16
Vphoto
p79
sg18
V143201606114212_193363941097978
p80
s.