(dp0
Vreactions
p1
(dp2
Vpaging
p3
(dp4
Vcursors
p5
(dp6
Vafter
p7
VTVRBd01EQTRORGczTURNMk16QTNPakUwTnpjNE1qWTBOemc2TWpVME1EazJNVFl4TXc9PQZDZD
p8
sVbefore
p9
VTVRBd01EQTRORGczTURNMk16QTNPakUwTnpjNE1qWTBOemc2TWpVME1EazJNVFl4TXc9PQZDZD
p10
ssVnext
p11
Vhttps://graph.facebook.com/v2.6/143201606114212_206922063075499/reactions?access_token=599965930180946%7C575aa5390a4589483de7f8cf99702788&limit=1&after=TVRBd01EQTRORGczTURNMk16QTNPakUwTnpjNE1qWTBOemc2TWpVME1EazJNVFl4TXc9PQZDZD
p12
ssVdata
p13
(lp14
(dp15
Vtype
p16
VLIKE
p17
sVid
p18
V1635957730030446
p19
sVname
p20
VNaveed Ullah
p21
sassg20
VTimeline Photos
p22
sVshares
p23
(dp24
Vcount
p25
I273
ssVlink
p26
Vhttps://www.facebook.com/wonderfulpakistan/photos/a.143285289439177.1073741828.143201606114212/206922063075499/?type=3
p27
sVcomments
p28
(dp29
g3
(dp30
g5
(dp31
g7
VMQZDZD
p32
sg9
VNwZDZD
p33
sssg13
(lp34
(dp35
Vcreated_time
p36
V2016-10-25T16:23:34+0000
p37
sVmessage
p38
VApna Lahore
p39
sVfrom
p40
(dp41
g20
VAbdul Wahab
p42
sg18
V351711035178863
p43
ssg18
V206922063075499_207584013009304
p44
sa(dp45
g36
V2016-10-25T13:34:10+0000
p46
sg38
VBeautiful
p47
sg40
(dp48
g20
VAhmad Umar
p49
sg18
V190523981396616
p50
ssg18
V206922063075499_207517343015971
p51
sa(dp52
g36
V2016-10-25T01:41:07+0000
p53
sg38
VLovely
p54
sg40
(dp55
g20
VCh Sajjad
p56
sg18
V386023428454575
p57
ssg18
V206922063075499_207209049713467
p58
sa(dp59
g36
V2016-10-25T05:55:40+0000
p60
sg38
VI miss u lahore
p61
sg40
(dp62
g20
VSimr Saini
p63
sg18
V1721441374844363
p64
ssg18
V206922063075499_207308666370172
p65
sa(dp66
g36
V2016-10-24T17:57:45+0000
p67
sg38
VPak ka dil
p68
sg40
(dp69
g20
VFaheem Bilal
p70
sg18
V312466189138059
p71
ssg18
V206922063075499_207022503065455
p72
sa(dp73
g36
V2016-10-24T17:26:16+0000
p74
sg38
VNice.  :-)
p75
sg40
(dp76
g20
VMirza Sumair
p77
sg18
V391395937916302
p78
ssg18
V206922063075499_206978959736476
p79
sa(dp80
g36
V2016-10-24T18:28:09+0000
p81
sg38
Vi love  lahore pakistan
p82
sg40
(dp83
g20
VMuhammad Khalid Zia
p84
sg18
V660183310806073
p85
ssg18
V206922063075499_207034606397578
p86
sassg36
V2016-10-24T17:01:08+0000
p87
sg38
VMinar-e-Pakistan, Lahore. (Photo by Yasir Mahmood)
p88
sg16
Vphoto
p89
sg18
V143201606114212_206922063075499
p90
s.