(dp0
Vreactions
p1
(dp2
Vpaging
p3
(dp4
Vcursors
p5
(dp6
Vafter
p7
VTVRBd01EQTRORGczTURNMk16QTNPakUwTnpjNE1qWTBPRGc2TWpVME1EazJNVFl4TXc9PQZDZD
p8
sVbefore
p9
VTVRBd01EQTRORGczTURNMk16QTNPakUwTnpjNE1qWTBPRGc2TWpVME1EazJNVFl4TXc9PQZDZD
p10
ssVnext
p11
Vhttps://graph.facebook.com/v2.6/143201606114212_206071169827255/reactions?access_token=599965930180946%7C575aa5390a4589483de7f8cf99702788&limit=1&after=TVRBd01EQTRORGczTURNMk16QTNPakUwTnpjNE1qWTBPRGc2TWpVME1EazJNVFl4TXc9PQZDZD
p12
ssVdata
p13
(lp14
(dp15
Vtype
p16
VLIKE
p17
sVid
p18
V1635957730030446
p19
sVname
p20
VNaveed Ullah
p21
sassg20
VTimeline Photos
p22
sVshares
p23
(dp24
Vcount
p25
I45
ssVlink
p26
Vhttps://www.facebook.com/wonderfulpakistan/photos/a.143285289439177.1073741828.143201606114212/206071169827255/?type=3
p27
sVcomments
p28
(dp29
g3
(dp30
g5
(dp31
g7
VMQZDZD
p32
sg9
VNAZDZD
p33
sssg13
(lp34
(dp35
Vcreated_time
p36
V2016-10-23T17:44:55+0000
p37
sVmessage
p38
VNyc
p39
sVfrom
p40
(dp41
g20
VNawazish Ali
p42
sg18
V1612514222387080
p43
ssg18
V206071169827255_206324566468582
p44
sa(dp45
g36
V2016-10-24T05:04:04+0000
p46
sg38
V
p47
sg40
(dp48
g20
VMohammad Allaudin
p49
sg18
V187469958371725
p50
ssg18
V206071169827255_206629129771459
p51
sa(dp52
g36
V2016-10-23T14:36:12+0000
p53
sg38
VAdeel Ghaffar **Baba**
p54
sg40
(dp55
g20
VHaseeb Khumair
p56
sg18
V10209463647221640
p57
ssg18
V206071169827255_206228056478233
p58
sa(dp59
g36
V2016-10-23T13:30:13+0000
p60
sg38
VMian Amir Abbas
p61
sg40
(dp62
g20
V\u0100bdu\u0142 M\u0101n\u0101n
p63
sg18
V861807047294751
p64
ssg18
V206071169827255_206190133148692
p65
sassg36
V2016-10-23T12:48:53+0000
p66
sg38
VNaltar Lake, Gilgit-Baltistan
p67
sg16
Vphoto
p68
sg18
V143201606114212_206071169827255
p69
s.