(dp0
Vreactions
p1
(dp2
Vpaging
p3
(dp4
Vcursors
p5
(dp6
Vafter
p7
VTVRBd01EQTFPREV4T1RZAek1ESTFPakUwTnpZAME1UUTROREk2TWpVME1EazJNVFl4TXc9PQZDZD
p8
sVbefore
p9
VTVRBd01EQTFPREV4T1RZAek1ESTFPakUwTnpZAME1UUTROREk2TWpVME1EazJNVFl4TXc9PQZDZD
p10
ssVnext
p11
Vhttps://graph.facebook.com/v2.6/143201606114212_193361857764853/reactions?access_token=599965930180946%7C575aa5390a4589483de7f8cf99702788&summary=true&limit=1&after=TVRBd01EQTFPREV4T1RZAek1ESTFPakUwTnpZAME1UUTROREk2TWpVME1EazJNVFl4TXc9PQZDZD
p12
ssVdata
p13
(lp14
(dp15
Vtype
p16
VLIKE
p17
sVid
p18
V593651667505227
p19
sVname
p20
VAbdulhanan Tariq
p21
sasVsummary
p22
(dp23
Vtotal_count
p24
I833
sVviewer_reaction
p25
VNONE
p26
sssg20
VTimeline Photos
p27
sVshares
p28
(dp29
Vcount
p30
I96
ssVlink
p31
Vhttps://www.facebook.com/wonderfulpakistan/photos/a.143285289439177.1073741828.143201606114212/193361857764853/?type=3
p32
sVcreated_time
p33
V2016-10-03T12:10:22+0000
p34
sVmessage
p35
VPeer Ghaiyb, Balochistan. (Photo by Sikander Akram)
p36
sg16
Vphoto
p37
sg18
V143201606114212_193361857764853
p38
s.