(dp0
Vreactions
p1
(dp2
Vpaging
p3
(dp4
Vcursors
p5
(dp6
Vafter
p7
VTVRBd01ERXpPVGMwTWpFNE1qYzVPakUwTnpjNE5USTNOVGc2TWpVME1EazJNVFl4TXc9PQZDZD
p8
sVbefore
p9
VTVRBd01ERXpPVGMwTWpFNE1qYzVPakUwTnpjNE5USTNOVGc2TWpVME1EazJNVFl4TXc9PQZDZD
p10
ssVnext
p11
Vhttps://graph.facebook.com/v2.6/143201606114212_209179636183075/reactions?access_token=599965930180946%7C575aa5390a4589483de7f8cf99702788&limit=1&after=TVRBd01ERXpPVGMwTWpFNE1qYzVPakUwTnpjNE5USTNOVGc2TWpVME1EazJNVFl4TXc9PQZDZD
p12
ssVdata
p13
(lp14
(dp15
Vtype
p16
VLIKE
p17
sVid
p18
V128938067582000
p19
sVname
p20
VRohan Bhatti
p21
sassg20
V10 Personal Life Facts About General Raheel Sharif
p22
sVshares
p23
(dp24
Vcount
p25
I1
ssVlink
p26
Vhttp://www.wonderfulpoint.com/2016/06/raheel-sharif-facts.html
p27
sVcomments
p28
(dp29
g3
(dp30
g5
(dp31
g7
VMQZDZD
p32
sg9
VMgZDZD
p33
sssg13
(lp34
(dp35
Vcreated_time
p36
V2016-10-28T07:24:19+0000
p37
sVmessage
p38
VMost respect and salute you Sir.!
p39
sVfrom
p40
(dp41
g20
VSunrise Glory
p42
sg18
V1702854479988381
p43
ssg18
V209179636183075_209228356178203
p44
sa(dp45
g36
V2016-10-28T18:25:09+0000
p46
sg38
VMy help number 9693837259
p47
sg40
(dp48
g20
VPradeep Kumar
p49
sg18
V135103956961253
p50
ssg18
V209179636183075_209559549478417
p51
sassg36
V2016-10-28T05:56:57+0000
p52
sg38
V10 Personal Life Facts About General Raheel Sharif
p53
sg16
Vlink
p54
sg18
V143201606114212_209179636183075
p55
s.