(dp0
Vreactions
p1
(dp2
Vpaging
p3
(dp4
Vcursors
p5
(dp6
Vafter
p7
VTVRBd01EQXdOVEk1T1RBNE9EQTRPakUwTnpjMk9ESXhNemc2TnpnNE5qUTRNRE0zT1RFek16RXkZD
p8
sVbefore
p9
VTVRBd01EQXdOVEk1T1RBNE9EQTRPakUwTnpjMk9ESXhNemc2TnpnNE5qUTRNRE0zT1RFek16RXkZD
p10
ssVnext
p11
Vhttps://graph.facebook.com/v2.6/143201606114212_196018800832492/reactions?access_token=599965930180946%7C575aa5390a4589483de7f8cf99702788&summary=true&limit=1&after=TVRBd01EQXdOVEk1T1RBNE9EQTRPakUwTnpjMk9ESXhNemc2TnpnNE5qUTRNRE0zT1RFek16RXkZD
p12
ssVdata
p13
(lp14
(dp15
Vtype
p16
VLOVE
p17
sVid
p18
V1440936049267378
p19
sVname
p20
VUmmama Khan
p21
sasVsummary
p22
(dp23
Vtotal_count
p24
I1083
sVviewer_reaction
p25
VNONE
p26
sssg20
VTimeline Photos
p27
sVshares
p28
(dp29
Vcount
p30
I190
ssVlink
p31
Vhttps://www.facebook.com/wonderfulpakistan/photos/a.143285289439177.1073741828.143201606114212/196018800832492/?type=3
p32
sVcomments
p33
(dp34
g3
(dp35
g5
(dp36
g7
VMQZDZD
p37
sg9
VNgZDZD
p38
sssg13
(lp39
(dp40
Vcreated_time
p41
V2016-10-08T01:50:35+0000
p42
sVmessage
p43
VSo beautiful
p44
sVfrom
p45
(dp46
g20
VFazal Ur Rehman
p47
sg18
V188610041590131
p48
ssg18
V196018800832492_196429507458088
p49
sa(dp50
g41
V2016-10-07T18:05:20+0000
p51
sg43
VWow
p52
sg45
(dp53
g20
VAbeeha Fatima Khan's
p54
sg18
V207355069698616
p55
ssg18
V196018800832492_196239790810393
p56
sa(dp57
g41
V2016-10-07T18:31:06+0000
p58
sg43
VIts not narar just nurr
p59
sg45
(dp60
g20
VAlee Hxn Xatti
p61
sg18
V532418510301465
p62
ssg18
V196018800832492_196246060809766
p63
sa(dp64
g41
V2016-10-08T03:22:07+0000
p65
sg43
VMashallah
p66
sg45
(dp67
g20
VHamza Sheikh Abbasi
p68
sg18
V200195660424159
p69
ssg18
V196018800832492_196459814121724
p70
sa(dp71
g41
V2016-10-07T16:43:13+0000
p72
sg43
VExcellent
p73
sg45
(dp74
g20
VAhmad Umar
p75
sg18
V190523981396616
p76
ssg18
V196018800832492_196217284145977
p77
sa(dp78
g41
V2016-10-07T16:50:04+0000
p79
sg43
V\U0001f49a\U0001f499\U0001f49c\U0001f49b
p80
sg45
(dp81
g20
VPakeeza Khan
p82
sg18
V1753438804936062
p83
ssg18
V196018800832492_196219220812450
p84
sassg41
V2016-10-07T16:39:16+0000
p85
sg43
VNarar, Kahuta, Distt Rawalpindi. (Photo by Awais Khaliq)
p86
sg16
Vphoto
p87
sg18
V143201606114212_196018800832492
p88
s.