(dp0
Vreactions
p1
(dp2
Vpaging
p3
(dp4
Vcursors
p5
(dp6
Vafter
p7
VTVRBd01EQTNNakUzT0RnNE16UTBPakUwTnpjMU16azNOamc2TWpVME1EazJNVFl4TXc9PQZDZD
p8
sVbefore
p9
VTVRBd01EQTNNakUzT0RnNE16UTBPakUwTnpjMU16azNOamc2TWpVME1EazJNVFl4TXc9PQZDZD
p10
ssVnext
p11
Vhttps://graph.facebook.com/v2.6/143201606114212_194190727681966/reactions?access_token=599965930180946%7C575aa5390a4589483de7f8cf99702788&summary=true&limit=1&after=TVRBd01EQTNNakUzT0RnNE16UTBPakUwTnpjMU16azNOamc2TWpVME1EazJNVFl4TXc9PQZDZD
p12
ssVdata
p13
(lp14
(dp15
Vtype
p16
VLIKE
p17
sVid
p18
V1739213372995909
p19
sVname
p20
VShah Raza
p21
sasVsummary
p22
(dp23
Vtotal_count
p24
I2179
sVviewer_reaction
p25
VNONE
p26
sssg20
VTimeline Photos
p27
sVshares
p28
(dp29
Vcount
p30
I277
ssVlink
p31
Vhttps://www.facebook.com/wonderfulpakistan/photos/a.143285289439177.1073741828.143201606114212/194190727681966/?type=3
p32
sVcomments
p33
(dp34
g3
(dp35
g5
(dp36
g7
VMQZDZD
p37
sg9
VMTAZD
p38
sssg13
(lp39
(dp40
Vcreated_time
p41
V2016-10-04T14:52:54+0000
p42
sVmessage
p43
VGreat masjid of the world for me!
p44
sVfrom
p45
(dp46
g20
VSunrise Glory
p47
sg18
V1702854479988381
p48
ssg18
V194190727681966_194351080999264
p49
sa(dp50
g41
V2016-10-05T13:02:39+0000
p51
sg43
VMashaallah.
p52
sg45
(dp53
g20
VShamima Shahjehan
p54
sg18
V193206401086446
p55
ssg18
V194190727681966_194859590948413
p56
sa(dp57
g41
V2016-10-04T15:43:14+0000
p58
sg43
VSUBHAN Allah
p59
sg45
(dp60
g20
VAsad Sultan
p61
sg18
V376389459360638
p62
ssg18
V194190727681966_194376270996745
p63
sa(dp64
g41
V2016-10-04T16:47:49+0000
p65
sg43
VAnder ki halat dekho kbi ja kr
p66
sg45
(dp67
g20
VFauzy Aslam
p68
sg18
V1846876575545873
p69
ssg18
V194190727681966_194403340994038
p70
sa(dp71
g41
V2016-10-04T16:21:07+0000
p72
sg43
VMasha Allah
p73
sg45
(dp74
g20
VIdress Khan
p75
sg18
V1818356405116807
p76
ssg18
V194190727681966_194393104328395
p77
sa(dp78
g41
V2016-10-05T17:31:32+0000
p79
sg43
VNice
p80
sg45
(dp81
g20
VGulnaz Aslam
p82
sg18
V403467976707575
p83
ssg18
V194190727681966_195019260932446
p84
sa(dp85
g41
V2016-10-04T14:26:40+0000
p86
sg43
VNice
p87
sg45
(dp88
g20
VAsad Butt
p89
sg18
V335714400117079
p90
ssg18
V194190727681966_194338081000564
p91
sa(dp92
g41
V2016-10-05T01:16:35+0000
p93
sg43
Vmasha allah
p94
sg45
(dp95
g20
VZakir Ullah
p96
sg18
V1807564759518792
p97
ssg18
V194190727681966_194603177640721
p98
sa(dp99
g41
V2016-10-06T14:22:40+0000
p100
sg43
VSubhanallah
p101
sg45
(dp102
g20
VAkbar Ali
p103
sg18
V173314596461226
p104
ssg18
V194190727681966_195579664209739
p105
sa(dp106
g41
V2016-10-04T16:05:03+0000
p107
sg43
VMashallah g
p108
sg45
(dp109
g20
VAsif Hussain
p110
sg18
V271850306549598
p111
ssg18
V194190727681966_194385277662511
p112
sassg41
V2016-10-04T14:05:55+0000
p113
sg43
VFaisal Masjid, Islamabad. (Photo by Muhammad Ashar Photography)
p114
sg16
Vphoto
p115
sg18
V143201606114212_194190727681966
p116
s.