(dp0
Vreactions
p1
(dp2
Vpaging
p3
(dp4
Vcursors
p5
(dp6
Vafter
p7
VTVRBd01EQTVNREE0TlRZAeU9EUXhPakUwTnpjek1qYzFOamc2TWpVME1EazJNVFl4TXc9PQZDZD
p8
sVbefore
p9
VTVRBd01EQTVNREE0TlRZAeU9EUXhPakUwTnpjek1qYzFOamc2TWpVME1EazJNVFl4TXc9PQZDZD
p10
ssVnext
p11
Vhttps://graph.facebook.com/v2.6/143201606114212_194190587681980/reactions?access_token=599965930180946%7C575aa5390a4589483de7f8cf99702788&summary=true&limit=1&after=TVRBd01EQTVNREE0TlRZAeU9EUXhPakUwTnpjek1qYzFOamc2TWpVME1EazJNVFl4TXc9PQZDZD
p12
ssVdata
p13
(lp14
(dp15
Vtype
p16
VLIKE
p17
sVid
p18
V1681370778839858
p19
sVname
p20
VMureed Mureed Mureed Abbas
p21
sasVsummary
p22
(dp23
Vtotal_count
p24
I1238
sVviewer_reaction
p25
VNONE
p26
sssg20
VTimeline Photos
p27
sVshares
p28
(dp29
Vcount
p30
I186
ssVlink
p31
Vhttps://www.facebook.com/wonderfulpakistan/photos/a.143285289439177.1073741828.143201606114212/194190587681980/?type=3
p32
sVcomments
p33
(dp34
g3
(dp35
g5
(dp36
g7
VMQZDZD
p37
sg9
VNAZDZD
p38
sssg13
(lp39
(dp40
Vcreated_time
p41
V2016-10-04T17:04:22+0000
p42
sVmessage
p43
VMasha Allah
p44
sVfrom
p45
(dp46
g20
VSyed Asim Nasim Gillani
p47
sg18
V1830444313907559
p48
ssg18
V194190587681980_194411607659878
p49
sa(dp50
g41
V2016-10-05T12:05:57+0000
p51
sg43
VMa shaa Allah,,,
p52
sg45
(dp53
g20
VUmmi Ain
p54
sg18
V337286469965745
p55
ssg18
V194190587681980_194827650951607
p56
sa(dp57
g41
V2016-10-05T13:04:48+0000
p58
sg43
VMashaallah
p59
sg45
(dp60
g20
VShamima Shahjehan
p61
sg18
V193206401086446
p62
ssg18
V194190587681980_194860034281702
p63
sa(dp64
g41
V2016-10-04T16:24:40+0000
p65
sg43
V
p66
sg45
(dp67
g20
VIdress Khan
p68
sg18
V1818356405116807
p69
ssg18
V194190587681980_194394360994936
p70
sassg41
V2016-10-04T13:05:19+0000
p71
sg43
VBahria Grand Masjid, Lahore. (Photo by Muhammad Ashar Photography)
p72
sg16
Vphoto
p73
sg18
V143201606114212_194190587681980
p74
s.