(dp0
Vreactions
p1
(dp2
Vpaging
p3
(dp4
Vcursors
p5
(dp6
Vafter
p7
VTVRBd01EQXhOemsxTWpJNU1ETTJPakUwTnpjMk9EQTJOVEE2TWpVME1EazJNVFl4TXc9PQZDZD
p8
sVbefore
p9
VTVRBd01EQXhOemsxTWpJNU1ETTJPakUwTnpjMk9EQTJOVEE2TWpVME1EazJNVFl4TXc9PQZDZD
p10
ssVnext
p11
Vhttps://graph.facebook.com/v2.6/143201606114212_198431273924578/reactions?access_token=599965930180946%7C575aa5390a4589483de7f8cf99702788&limit=1&after=TVRBd01EQXhOemsxTWpJNU1ETTJPakUwTnpjMk9EQTJOVEE2TWpVME1EazJNVFl4TXc9PQZDZD
p12
ssVdata
p13
(lp14
(dp15
Vtype
p16
VLIKE
p17
sVid
p18
V1094446987291798
p19
sVname
p20
VMuzamil Soomro
p21
sassg20
VTimeline Photos
p22
sVshares
p23
(dp24
Vcount
p25
I194
ssVlink
p26
Vhttps://www.facebook.com/wonderfulpakistan/photos/a.143285289439177.1073741828.143201606114212/198431273924578/?type=3
p27
sVcomments
p28
(dp29
g3
(dp30
g5
(dp31
g7
VMQZDZD
p32
sg9
VMgZDZD
p33
sssg13
(lp34
(dp35
Vcreated_time
p36
V2016-10-13T03:50:31+0000
p37
sVmessage
p38
VKhalil Ch
p39
sVfrom
p40
(dp41
g20
VMaham Khan
p42
sg18
V276271569381286
p43
ssg18
V198431273924578_199451077155931
p44
sa(dp45
g36
V2016-10-11T18:07:17+0000
p46
sg38
V@ Rana Yousaf
p47
sg40
(dp48
g20
VJaveria Saud
p49
sg18
V208060956288187
p50
ssg18
V198431273924578_198709263896779
p51
sassg36
V2016-10-11T17:51:07+0000
p52
sg38
VJapani Phal (Persimmons Fruit) is widely produced in Northern Pakistan.
p53
sg16
Vphoto
p54
sg18
V143201606114212_198431273924578
p55
s.