(dp0
Vreactions
p1
(dp2
Vpaging
p3
(dp4
Vcursors
p5
(dp6
Vafter
p7
VTVRBd01EQXdOVEk1T1RBNE9EQTRPakUwTnpjMk56YzVPRGs2TWpVME1EazJNVFl4TXc9PQZDZD
p8
sVbefore
p9
VTVRBd01EQXdOVEk1T1RBNE9EQTRPakUwTnpjMk56YzVPRGs2TWpVME1EazJNVFl4TXc9PQZDZD
p10
ssVnext
p11
Vhttps://graph.facebook.com/v2.6/143201606114212_203274656773573/reactions?access_token=599965930180946%7C575aa5390a4589483de7f8cf99702788&limit=1&after=TVRBd01EQXdOVEk1T1RBNE9EQTRPakUwTnpjMk56YzVPRGs2TWpVME1EazJNVFl4TXc9PQZDZD
p12
ssVdata
p13
(lp14
(dp15
Vtype
p16
VLIKE
p17
sVid
p18
V1440936049267378
p19
sVname
p20
VUmmama Khan
p21
sassg20
VTimeline Photos
p22
sVshares
p23
(dp24
Vcount
p25
I264
ssVlink
p26
Vhttps://www.facebook.com/wonderfulpakistan/photos/a.143285289439177.1073741828.143201606114212/203274656773573/?type=3
p27
sVcomments
p28
(dp29
g3
(dp30
g5
(dp31
g7
VMQZDZD
p32
sg9
VMTAZD
p33
sssg13
(lp34
(dp35
Vcreated_time
p36
V2016-10-19T18:42:08+0000
p37
sVmessage
p38
VI have been here.beautiful,beautiful
p39
sVfrom
p40
(dp41
g20
VNina Sharif
p42
sg18
V2106251666267724
p43
ssg18
V203274656773573_203658560068516
p44
sa(dp45
g36
V2016-10-19T15:20:55+0000
p46
sg38
VBeautiful place
p47
sg40
(dp48
g20
VAmber Khurram
p49
sg18
V2002378249988680
p50
ssg18
V203274656773573_203565756744463
p51
sa(dp52
g36
V2016-10-19T17:42:23+0000
p53
sg38
V\u0637\u0631\u064a\u0642 \u0641\u064a\u0636 \u0647\u0644\u0627\u0644
p54
sg40
(dp55
g20
V\u0623\u0628\u0648 \u0647\u0627\u0631\u0648\u0646
p56
sg18
V159933574471540
p57
ssg18
V203274656773573_203639800070392
p58
sa(dp59
g36
V2016-10-19T14:56:31+0000
p60
sg38
VVery nice
p61
sg40
(dp62
g20
VAslam Muhammad
p63
sg18
V333242563708247
p64
ssg18
V203274656773573_203558100078562
p65
sa(dp66
g36
V2016-10-20T10:52:30+0000
p67
sg38
VBeautiful
p68
sg40
(dp69
g20
VSajjad Abbasi
p70
sg18
V1727055807616883
p71
ssg18
V203274656773573_204062626694776
p72
sa(dp73
g36
V2016-10-19T13:48:36+0000
p74
sg38
VReally peaceful! I love this place
p75
sg40
(dp76
g20
VSunrise Glory
p77
sg18
V1702854479988381
p78
ssg18
V203274656773573_203533223414383
p79
sa(dp80
g36
V2016-10-19T13:28:27+0000
p81
sg38
VNice place view.
p82
sg40
(dp83
g20
VAtta Khan Bangash
p84
sg18
V277252839336017
p85
ssg18
V203274656773573_203521823415523
p86
sa(dp87
g36
V2016-10-19T17:43:53+0000
p88
sg38
VThe beautiful place abtabad
p89
sg40
(dp90
g20
VMudassir Hassan
p91
sg18
V211205622648302
p92
ssg18
V203274656773573_203640226737016
p93
sa(dp94
g36
V2016-10-19T13:39:18+0000
p95
sg38
V\u0100bdu\u0142 M\u0101n\u0101n bhai ma na samjah
p96
sg40
(dp97
g20
VMian Amir Abbas
p98
sg18
V1138199656270793
p99
ssg18
V203274656773573_203529610081411
p100
sa(dp101
g36
V2016-10-19T13:52:36+0000
p102
sg38
VSara Hassan
p103
sg40
(dp104
g20
VRizwan Jan
p105
sg18
V1410318078998024
p106
ssg18
V203274656773573_203534720080900
p107
sassg36
V2016-10-19T13:25:02+0000
p108
sg38
VThandyani, KPK.
p109
sg16
Vphoto
p110
sg18
V143201606114212_203274656773573
p111
s.