(dp0
Vreactions
p1
(dp2
Vpaging
p3
(dp4
Vcursors
p5
(dp6
Vafter
p7
VTVRBd01EQXdOVEk1T1RBNE9EQTRPakUwTnpjMk9ERXpOelU2TWpVME1EazJNVFl4TXc9PQZDZD
p8
sVbefore
p9
VTVRBd01EQXdOVEk1T1RBNE9EQTRPakUwTnpjMk9ERXpOelU2TWpVME1EazJNVFl4TXc9PQZDZD
p10
ssVnext
p11
Vhttps://graph.facebook.com/v2.6/143201606114212_198425390591833/reactions?access_token=599965930180946%7C575aa5390a4589483de7f8cf99702788&limit=1&after=TVRBd01EQXdOVEk1T1RBNE9EQTRPakUwTnpjMk9ERXpOelU2TWpVME1EazJNVFl4TXc9PQZDZD
p12
ssVdata
p13
(lp14
(dp15
Vtype
p16
VLIKE
p17
sVid
p18
V1440936049267378
p19
sVname
p20
VUmmama Khan
p21
sassg20
VTimeline Photos
p22
sVshares
p23
(dp24
Vcount
p25
I100
ssVlink
p26
Vhttps://www.facebook.com/wonderfulpakistan/photos/a.143285289439177.1073741828.143201606114212/198425390591833/?type=3
p27
sVcomments
p28
(dp29
g3
(dp30
g5
(dp31
g7
VMQZDZD
p32
sg9
VMgZDZD
p33
sssg13
(lp34
(dp35
Vcreated_time
p36
V2016-10-12T16:06:32+0000
p37
sVmessage
p38
VMindblowing
p39
sVfrom
p40
(dp41
g20
VIrfan Lala
p42
sg18
V1705945582959286
p43
ssg18
V198425390591833_199189813848724
p44
sa(dp45
g36
V2016-10-11T15:31:56+0000
p46
sg38
VDream place
p47
sg40
(dp48
g20
VAnni Khan
p49
sg18
V1774321712827810
p50
ssg18
V198425390591833_198642980570074
p51
sassg36
V2016-10-11T12:57:33+0000
p52
sg38
VSaif ul Malook, Naran, KPK. (Photo by Ehsan Ullah)
p53
sg16
Vphoto
p54
sg18
V143201606114212_198425390591833
p55
s.