(dp0
Vreactions
p1
(dp2
Vpaging
p3
(dp4
Vcursors
p5
(dp6
Vafter
p7
VTVRBd01EQTNNakUzT0RnNE16UTBPakUwTnpjMU16azVPRGc2TWpVME1EazJNVFl4TXc9PQZDZD
p8
sVbefore
p9
VTVRBd01EQTNNakUzT0RnNE16UTBPakUwTnpjMU16azVPRGc2TWpVME1EazJNVFl4TXc9PQZDZD
p10
ssVnext
p11
Vhttps://graph.facebook.com/v2.6/143201606114212_196020580832314/reactions?access_token=599965930180946%7C575aa5390a4589483de7f8cf99702788&summary=true&limit=1&after=TVRBd01EQTNNakUzT0RnNE16UTBPakUwTnpjMU16azVPRGc2TWpVME1EazJNVFl4TXc9PQZDZD
p12
ssVdata
p13
(lp14
(dp15
Vtype
p16
VLIKE
p17
sVid
p18
V1739213372995909
p19
sVname
p20
VShah Raza
p21
sasVsummary
p22
(dp23
Vtotal_count
p24
I542
sVviewer_reaction
p25
VNONE
p26
sssg20
VTimeline Photos
p27
sVshares
p28
(dp29
Vcount
p30
I91
ssVlink
p31
Vhttps://www.facebook.com/wonderfulpakistan/photos/a.143285289439177.1073741828.143201606114212/196020580832314/?type=3
p32
sVcomments
p33
(dp34
g3
(dp35
g5
(dp36
g7
VMQZDZD
p37
sg9
VMgZDZD
p38
sssg13
(lp39
(dp40
Vcreated_time
p41
V2016-10-08T05:05:53+0000
p42
sVmessage
p43
VI like this
p44
sVfrom
p45
(dp46
g20
VJ\u0171\u015b\u0165 Bilal
p47
sg18
V1792815614299589
p48
ssg18
V196020580832314_196505780783794
p49
sa(dp50
g41
V2016-10-08T05:09:15+0000
p51
sg43
VSwat
p52
sg45
(dp53
g20
VJ\u0171\u015b\u0165 Bilal
p54
sg18
V1792815614299589
p55
ssg18
V196020580832314_196507337450305
p56
sassg41
V2016-10-07T18:42:35+0000
p57
sg43
VSunset View in Swat Valley, KPK. (Photo by Jan Alam)
p58
sg16
Vphoto
p59
sg18
V143201606114212_196020580832314
p60
s.