(dp0
Vreactions
p1
(dp2
Vpaging
p3
(dp4
Vcursors
p5
(dp6
Vafter
p7
VTVRBd01EQTNNakUzT0RnNE16UTBPakUwTnpjMU16azNNelU2TWpVME1EazJNVFl4TXc9PQZDZD
p8
sVbefore
p9
VTVRBd01EQTNNakUzT0RnNE16UTBPakUwTnpjMU16azNNelU2TWpVME1EazJNVFl4TXc9PQZDZD
p10
ssVnext
p11
Vhttps://graph.facebook.com/v2.6/143201606114212_194669457634093/reactions?access_token=599965930180946%7C575aa5390a4589483de7f8cf99702788&summary=true&limit=1&after=TVRBd01EQTNNakUzT0RnNE16UTBPakUwTnpjMU16azNNelU2TWpVME1EazJNVFl4TXc9PQZDZD
p12
ssVdata
p13
(lp14
(dp15
Vtype
p16
VLIKE
p17
sVid
p18
V1739213372995909
p19
sVname
p20
VShah Raza
p21
sasVsummary
p22
(dp23
Vtotal_count
p24
I1185
sVviewer_reaction
p25
VNONE
p26
sssg20
VTimeline Photos
p27
sVshares
p28
(dp29
Vcount
p30
I169
ssVlink
p31
Vhttps://www.facebook.com/wonderfulpakistan/photos/a.143285289439177.1073741828.143201606114212/194669457634093/?type=3
p32
sVcomments
p33
(dp34
g3
(dp35
g5
(dp36
g7
VMQZDZD
p37
sg9
VNwZDZD
p38
sssg13
(lp39
(dp40
Vcreated_time
p41
V2016-10-06T16:48:43+0000
p42
sVmessage
p43
VOutstanding
p44
sVfrom
p45
(dp46
g20
VMehak Gull
p47
sg18
V336054346746167
p48
ssg18
V194669457634093_195675650866807
p49
sa(dp50
g41
V2016-10-05T14:21:04+0000
p51
sg43
Vi iove this place
p52
sg45
(dp53
g20
VSea Shore
p54
sg18
V723945171087333
p55
ssg18
V194669457634093_194905417610497
p56
sa(dp57
g41
V2016-10-05T10:31:02+0000
p58
sg43
V
p59
sg45
(dp60
g20
VHamza Sandhu
p61
sg18
V333257300367751
p62
ssg18
V194669457634093_194788547622184
p63
sa(dp64
g41
V2016-10-05T09:35:41+0000
p65
sg43
VMy city....\U0001f60d
p66
sg45
(dp67
g20
VSyed Hamza Raza Naqvi
p68
sg18
V1771984569725730
p69
ssg18
V194669457634093_194768850957487
p70
sa(dp71
g41
V2016-10-05T07:04:27+0000
p72
sg43
VAttock drya p b istrah ki chezen hn. Ham ny dekhi hn.
p73
sg45
(dp74
g20
VSaman Murtaza
p75
sg18
V1560615850901817
p76
ssg18
V194669457634093_194721730962199
p77
sa(dp78
g41
V2016-10-05T06:54:04+0000
p79
sg43
VAmazing
p80
sg45
(dp81
g20
VTotok Suharso
p82
sg18
V186867838432923
p83
ssg18
V194669457634093_194719630962409
p84
sa(dp85
g41
V2016-10-05T07:21:56+0000
p86
sg43
VLook so ancient! Wonderful place
p87
sg45
(dp88
g20
VSunrise Glory
p89
sg18
V1702854479988381
p90
ssg18
V194669457634093_194726617628377
p91
sassg41
V2016-10-05T06:51:50+0000
p92
sg43
VFort Rohtas, Jhelum. (Photo by Azhar Arslan)
p93
sg16
Vphoto
p94
sg18
V143201606114212_194669457634093
p95
s.