(dp0
Vreactions
p1
(dp2
Vpaging
p3
(dp4
Vcursors
p5
(dp6
Vafter
p7
VTVRBd01EQTVNREE0TlRZAeU9EUXhPakUwTnpjek1qYzJNVFk2TWpVME1EazJNVFl4TXc9PQZDZD
p8
sVbefore
p9
VTVRBd01EQTVNREE0TlRZAeU9EUXhPakUwTnpjek1qYzJNVFk2TWpVME1EazJNVFl4TXc9PQZDZD
p10
ssVnext
p11
Vhttps://graph.facebook.com/v2.6/143201606114212_193361694431536/reactions?access_token=599965930180946%7C575aa5390a4589483de7f8cf99702788&summary=true&limit=1&after=TVRBd01EQTVNREE0TlRZAeU9EUXhPakUwTnpjek1qYzJNVFk2TWpVME1EazJNVFl4TXc9PQZDZD
p12
ssVdata
p13
(lp14
(dp15
Vtype
p16
VLIKE
p17
sVid
p18
V1681370778839858
p19
sVname
p20
VMureed Mureed Mureed Abbas
p21
sasVsummary
p22
(dp23
Vtotal_count
p24
I2103
sVviewer_reaction
p25
VNONE
p26
sssg20
VTimeline Photos
p27
sVshares
p28
(dp29
Vcount
p30
I282
ssVlink
p31
Vhttps://www.facebook.com/wonderfulpakistan/photos/a.143285289439177.1073741828.143201606114212/193361694431536/?type=3
p32
sVcomments
p33
(dp34
g3
(dp35
g5
(dp36
g7
VMQZDZD
p37
sg9
VNwZDZD
p38
sssg13
(lp39
(dp40
Vcreated_time
p41
V2016-10-04T14:31:43+0000
p42
sVmessage
p43
VHazara is very beautiful
p44
sVfrom
p45
(dp46
g20
VIdrees Khan
p47
sg18
V1590358831271980
p48
ssg18
V193361694431536_194340141000358
p49
sa(dp50
g41
V2016-10-03T12:41:49+0000
p51
sg43
VWow wonderful
p52
sg45
(dp53
g20
VRameez Hussain
p54
sg18
V334521200244249
p55
ssg18
V193361694431536_193631021071270
p56
sa(dp57
g41
V2016-10-03T11:43:30+0000
p58
sg43
VAwesume
p59
sg45
(dp60
g20
VMuhammad Salim
p61
sg18
V648049932048309
p62
ssg18
V193361694431536_193606621073710
p63
sa(dp64
g41
V2016-10-03T12:19:49+0000
p65
sg43
VVery beautiful
p66
sg45
(dp67
g20
VAslam Muhammad
p68
sg18
V333242563708247
p69
ssg18
V193361694431536_193618091072563
p70
sa(dp71
g41
V2016-10-03T13:50:43+0000
p72
sg43
VAwesome
p73
sg45
(dp74
g20
VShamima Shahjehan
p75
sg18
V193206401086446
p76
ssg18
V193361694431536_193679104399795
p77
sa(dp78
g41
V2016-10-03T12:36:12+0000
p79
sg43
VSubhan Allah
p80
sg45
(dp81
g20
VFarhat Saeed
p82
sg18
V532735336900252
p83
ssg18
V193361694431536_193628707738168
p84
sa(dp85
g41
V2016-10-03T13:46:36+0000
p86
sg43
VWhat a beautiful place on earth
p87
sg45
(dp88
g20
VMalika Naseer
p89
sg18
V368014843535209
p90
ssg18
V193361694431536_193671194400586
p91
sassg41
V2016-10-03T11:09:52+0000
p92
sg43
VAfter rain, Abbotabad, KPK. (Photo by Bilal Sarwar)
p93
sg16
Vphoto
p94
sg18
V143201606114212_193361694431536
p95
s.