(dp0
Vreactions
p1
(dp2
Vpaging
p3
(dp4
Vcursors
p5
(dp6
Vafter
p7
VTVRBd01EQTFPREV4T1RZAek1ESTFPakUwTnpZAME1UUTNOams2TWpVME1EazJNVFl4TXc9PQZDZD
p8
sVbefore
p9
VTVRBd01EQTFPREV4T1RZAek1ESTFPakUwTnpZAME1UUTNOams2TWpVME1EazJNVFl4TXc9PQZDZD
p10
ssVnext
p11
Vhttps://graph.facebook.com/v2.6/143201606114212_194183924349313/reactions?access_token=599965930180946%7C575aa5390a4589483de7f8cf99702788&summary=true&limit=1&after=TVRBd01EQTFPREV4T1RZAek1ESTFPakUwTnpZAME1UUTNOams2TWpVME1EazJNVFl4TXc9PQZDZD
p12
ssVdata
p13
(lp14
(dp15
Vtype
p16
VLIKE
p17
sVid
p18
V593651667505227
p19
sVname
p20
VAbdulhanan Tariq
p21
sasVsummary
p22
(dp23
Vtotal_count
p24
I1434
sVviewer_reaction
p25
VNONE
p26
sssg20
VTimeline Photos
p27
sVshares
p28
(dp29
Vcount
p30
I249
ssVlink
p31
Vhttps://www.facebook.com/wonderfulpakistan/photos/a.143285289439177.1073741828.143201606114212/194183924349313/?type=3
p32
sVcomments
p33
(dp34
g3
(dp35
g5
(dp36
g7
VMQZDZD
p37
sg9
VNQZDZD
p38
sssg13
(lp39
(dp40
Vcreated_time
p41
V2016-10-04T17:02:52+0000
p42
sVmessage
p43
VSo charming view
p44
sVfrom
p45
(dp46
g20
VFazal Ur Rehman
p47
sg18
V188610041590131
p48
ssg18
V194183924349313_194411150993257
p49
sa(dp50
g41
V2016-10-04T19:50:48+0000
p51
sg43
VIts v beautiful..!!
p52
sg45
(dp53
g20
VNaureen Khan
p54
sg18
V1705936133061816
p55
ssg18
V194183924349313_194479494319756
p56
sa(dp57
g41
V2016-10-05T17:16:31+0000
p58
sg43
VCharming view
p59
sg45
(dp60
g20
VGulnaz Aslam
p61
sg18
V403467976707575
p62
ssg18
V194183924349313_195012787599760
p63
sa(dp64
g41
V2016-10-06T05:01:38+0000
p65
sg43
VV nice
p66
sg45
(dp67
g20
VAwas Bhai
p68
sg18
V350205445321081
p69
ssg18
V194183924349313_195299720904400
p70
sa(dp71
g41
V2016-10-05T14:40:01+0000
p72
sg43
VMashallah
p73
sg45
(dp74
g20
VHamza Sheikh Abbasi
p75
sg18
V200195660424159
p76
ssg18
V194183924349313_194930007608038
p77
sassg41
V2016-10-04T09:33:15+0000
p78
sg43
VHotel Elites, Nathiagali, KPK. (Photo by instagram.com/bizography)
p79
sg16
Vphoto
p80
sg18
V143201606114212_194183924349313
p81
s.