(dp0
Vreactions
p1
(dp2
Vpaging
p3
(dp4
Vcursors
p5
(dp6
Vafter
p7
VTVRBd01EQXdOVEk1T1RBNE9EQTRPakUwTnpjMk9ERXlNVGc2TWpVME1EazJNVFl4TXc9PQZDZD
p8
sVbefore
p9
VTVRBd01EQXdOVEk1T1RBNE9EQTRPakUwTnpjMk9ERXlNVGc2TWpVME1EazJNVFl4TXc9PQZDZD
p10
ssVnext
p11
Vhttps://graph.facebook.com/v2.6/143201606114212_198429567258082/reactions?access_token=599965930180946%7C575aa5390a4589483de7f8cf99702788&limit=1&after=TVRBd01EQXdOVEk1T1RBNE9EQTRPakUwTnpjMk9ERXlNVGc2TWpVME1EazJNVFl4TXc9PQZDZD
p12
ssVdata
p13
(lp14
(dp15
Vtype
p16
VLIKE
p17
sVid
p18
V1440936049267378
p19
sVname
p20
VUmmama Khan
p21
sassg20
VTimeline Photos
p22
sVshares
p23
(dp24
Vcount
p25
I222
ssVlink
p26
Vhttps://www.facebook.com/wonderfulpakistan/photos/a.143285289439177.1073741828.143201606114212/198429567258082/?type=3
p27
sVcomments
p28
(dp29
g3
(dp30
g5
(dp31
g7
VMQZDZD
p32
sg9
VMwZDZD
p33
sssg13
(lp34
(dp35
Vcreated_time
p36
V2016-10-12T06:01:53+0000
p37
sVmessage
p38
VAmazing
p39
sVfrom
p40
(dp41
g20
VHamza Aslam
p42
sg18
V210418626059555
p43
ssg18
V198429567258082_198955957205443
p44
sa(dp45
g36
V2016-10-12T18:10:41+0000
p46
sg38
VSafdar shah :)
p47
sg40
(dp48
g20
VMaheen Mumtaz Syeda
p49
sg18
V697106697105699
p50
ssg18
V198429567258082_199234413844264
p51
sa(dp52
g36
V2016-10-11T17:28:40+0000
p53
sg38
VLove u pakistan
p54
sg40
(dp55
g20
VNina Sharif
p56
sg18
V2106251666267724
p57
ssg18
V198429567258082_198690673898638
p58
sassg36
V2016-10-11T15:54:41+0000
p59
sg38
VFairy Meadows, Gilgit-Baltistan. (Photo by Jehan Zeb)
p60
sg16
Vphoto
p61
sg18
V143201606114212_198429567258082
p62
s.