(dp0
Vreactions
p1
(dp2
Vpaging
p3
(dp4
Vcursors
p5
(dp6
Vafter
p7
VTVRBd01EQXdOVEk1T1RBNE9EQTRPakUwTnpjMk9ERXdNalk2TWpVME1EazJNVFl4TXc9PQZDZD
p8
sVbefore
p9
VTVRBd01EQXdOVEk1T1RBNE9EQTRPakUwTnpjMk9ERXdNalk2TWpVME1EazJNVFl4TXc9PQZDZD
p10
ssVnext
p11
Vhttps://graph.facebook.com/v2.6/143201606114212_201995180234854/reactions?access_token=599965930180946%7C575aa5390a4589483de7f8cf99702788&limit=1&after=TVRBd01EQXdOVEk1T1RBNE9EQTRPakUwTnpjMk9ERXdNalk2TWpVME1EazJNVFl4TXc9PQZDZD
p12
ssVdata
p13
(lp14
(dp15
Vtype
p16
VLIKE
p17
sVid
p18
V1440936049267378
p19
sVname
p20
VUmmama Khan
p21
sassg20
VTimeline Photos
p22
sVshares
p23
(dp24
Vcount
p25
I98
ssVlink
p26
Vhttps://www.facebook.com/wonderfulpakistan/photos/a.143285289439177.1073741828.143201606114212/201995180234854/?type=3
p27
sVcomments
p28
(dp29
g3
(dp30
g5
(dp31
g7
VMQZDZD
p32
sg9
VMgZDZD
p33
sssg13
(lp34
(dp35
Vcreated_time
p36
V2016-10-20T10:24:43+0000
p37
sVmessage
p38
VNice
p39
sVfrom
p40
(dp41
g20
VGhafar Ali
p42
sg18
V202716796822334
p43
ssg18
V201995180234854_204043963363309
p44
sa(dp45
g36
V2016-10-17T09:32:23+0000
p46
sg38
VSaif Mazhar yaha jana.hai :p
p47
sg40
(dp48
g20
VNida Farrukh
p49
sg18
V10155229981787069
p50
ssg18
V201995180234854_202102773557428
p51
sassg36
V2016-10-17T08:36:05+0000
p52
sg38
VGreen Glacier Lake, Upper Baltoro Glacier, Gilgit-Baltistan.
p53
sg16
Vphoto
p54
sg18
V143201606114212_201995180234854
p55
s.