(dp0
Vreactions
p1
(dp2
Vpaging
p3
(dp4
Vcursors
p5
(dp6
Vafter
p7
VTVRBd01ERXhNekF6TnpZAMU5qWXhPakUwTnpjMU9EZAzBNak02TWpVME1EazJNVFl4TXc9PQZDZD
p8
sVbefore
p9
VTVRBd01ERXhNekF6TnpZAMU5qWXhPakUwTnpjMU9EZAzBNak02TWpVME1EazJNVFl4TXc9PQZDZD
p10
ssVnext
p11
Vhttps://graph.facebook.com/v2.6/143201606114212_198424187258620/reactions?access_token=599965930180946%7C575aa5390a4589483de7f8cf99702788&limit=1&after=TVRBd01ERXhNekF6TnpZAMU5qWXhPakUwTnpjMU9EZAzBNak02TWpVME1EazJNVFl4TXc9PQZDZD
p12
ssVdata
p13
(lp14
(dp15
Vtype
p16
VLIKE
p17
sVid
p18
V312909895762467
p19
sVname
p20
VOmar Faruque
p21
sassg20
VTimeline Photos
p22
sVshares
p23
(dp24
Vcount
p25
I92
ssVlink
p26
Vhttps://www.facebook.com/wonderfulpakistan/photos/a.143285289439177.1073741828.143201606114212/198424187258620/?type=3
p27
sVcomments
p28
(dp29
g3
(dp30
g5
(dp31
g7
VMQZDZD
p32
sg9
VMwZDZD
p33
sssg13
(lp34
(dp35
Vcreated_time
p36
V2016-10-11T11:58:33+0000
p37
sVmessage
p38
VNice town
p39
sVfrom
p40
(dp41
g20
VSyed Shahbaz Ali
p42
sg18
V1589595381369610
p43
ssg18
V198424187258620_198545380579834
p44
sa(dp45
g36
V2016-10-12T11:16:22+0000
p46
sg38
VLovely
p47
sg40
(dp48
g20
VShamima Shahjehan
p49
sg18
V193206401086446
p50
ssg18
V198424187258620_199047120529660
p51
sa(dp52
g36
V2016-10-12T02:00:43+0000
p53
sg38
VLovely Pakistan
p54
sg40
(dp55
g20
VFazal Ur Rehman
p56
sg18
V188610041590131
p57
ssg18
V198424187258620_198871143880591
p58
sassg36
V2016-10-11T11:56:43+0000
p59
sg38
VMurree. (Photo by Kamran Anwar)
p60
sg16
Vphoto
p61
sg18
V143201606114212_198424187258620
p62
s.