(dp0
Vreactions
p1
(dp2
Vpaging
p3
(dp4
Vcursors
p5
(dp6
Vafter
p7
VTVRBd01EQTNNakUzT0RnNE16UTBPakUwTnpjMU16azNOems2TWpVME1EazJNVFl4TXc9PQZDZD
p8
sVbefore
p9
VTVRBd01EQTNNakUzT0RnNE16UTBPakUwTnpjMU16azNOems2TWpVME1EazJNVFl4TXc9PQZDZD
p10
ssVnext
p11
Vhttps://graph.facebook.com/v2.6/143201606114212_194189507682088/reactions?access_token=599965930180946%7C575aa5390a4589483de7f8cf99702788&summary=true&limit=1&after=TVRBd01EQTNNakUzT0RnNE16UTBPakUwTnpjMU16azNOems2TWpVME1EazJNVFl4TXc9PQZDZD
p12
ssVdata
p13
(lp14
(dp15
Vtype
p16
VLIKE
p17
sVid
p18
V1739213372995909
p19
sVname
p20
VShah Raza
p21
sasVsummary
p22
(dp23
Vtotal_count
p24
I982
sVviewer_reaction
p25
VNONE
p26
sssg20
VTimeline Photos
p27
sVshares
p28
(dp29
Vcount
p30
I138
ssVlink
p31
Vhttps://www.facebook.com/wonderfulpakistan/photos/a.143285289439177.1073741828.143201606114212/194189507682088/?type=3
p32
sVcreated_time
p33
V2016-10-04T11:01:11+0000
p34
sVmessage
p35
VAttabad Lake, Hunza Valley, Gilgit-Baltistan. (Photo by Arslan Mehboob)
p36
sg16
Vphoto
p37
sg18
V143201606114212_194189507682088
p38
s.