(dp0
Vreactions
p1
(dp2
Vpaging
p3
(dp4
Vcursors
p5
(dp6
Vafter
p7
VTVRBd01EQXhOemsxTWpJNU1ETTJPakUwTnpjMk9EQTJNekE2TWpVME1EazJNVFl4TXc9PQZDZD
p8
sVbefore
p9
VTVRBd01EQXhOemsxTWpJNU1ETTJPakUwTnpjMk9EQTJNekE2TWpVME1EazJNVFl4TXc9PQZDZD
p10
ssVnext
p11
Vhttps://graph.facebook.com/v2.6/143201606114212_198936690540703/reactions?access_token=599965930180946%7C575aa5390a4589483de7f8cf99702788&limit=1&after=TVRBd01EQXhOemsxTWpJNU1ETTJPakUwTnpjMk9EQTJNekE2TWpVME1EazJNVFl4TXc9PQZDZD
p12
ssVdata
p13
(lp14
(dp15
Vtype
p16
VLIKE
p17
sVid
p18
V1094446987291798
p19
sVname
p20
VMuzamil Soomro
p21
sassg20
VTimeline Photos
p22
sVshares
p23
(dp24
Vcount
p25
I239
ssVlink
p26
Vhttps://www.facebook.com/wonderfulpakistan/photos/a.143285289439177.1073741828.143201606114212/198936690540703/?type=3
p27
sVcomments
p28
(dp29
g3
(dp30
g5
(dp31
g7
VMQZDZD
p32
sg9
VMTEZD
p33
sssg13
(lp34
(dp35
Vcreated_time
p36
V2016-10-12T14:05:45+0000
p37
sVmessage
p38
VI love this track
p39
sVfrom
p40
(dp41
g20
VPrince Vicky
p42
sg18
V1228702927186727
p43
ssg18
V198936690540703_199137770520595
p44
sa(dp45
g36
V2016-10-12T06:29:23+0000
p46
sg38
VNice place
p47
sg40
(dp48
g20
VMaha Mughal
p49
sg18
V361311460872368
p50
ssg18
V198936690540703_198967093870996
p51
sa(dp52
g36
V2016-10-12T05:30:14+0000
p53
sg38
VBeautiful
p54
sg40
(dp55
g20
VTamsila Bhatti
p56
sg18
V193557981088368
p57
ssg18
V198936690540703_198942640540108
p58
sa(dp59
g36
V2016-10-12T08:02:25+0000
p60
sg38
VHeart touch place\u000aLike it' daman e koh
p61
sg40
(dp62
g20
VArsalan Badshah
p63
sg18
V394569134264923
p64
ssg18
V198936690540703_198992177201821
p65
sa(dp66
g36
V2016-10-13T09:25:16+0000
p67
sg38
VKamal ke point he
p68
sg40
(dp69
g20
VQazi Lutufullah Mahesar
p70
sg18
V1757303934520608
p71
ssg18
V198936690540703_199583097142729
p72
sa(dp73
g36
V2016-10-12T06:16:11+0000
p74
sg38
VZabardast.
p75
sg40
(dp76
g20
VAoun Uzair Khan
p77
sg18
V196245837486107
p78
ssg18
V198936690540703_198960590538313
p79
sa(dp80
g36
V2016-10-12T06:12:51+0000
p81
sg38
VDaikha howa ha
p82
sg40
(dp83
g20
VAreeba Baloch
p84
sg18
V185340755252496
p85
ssg18
V198936690540703_198959833871722
p86
sa(dp87
g36
V2016-10-12T06:12:40+0000
p88
sg38
VBeautiful place
p89
sg40
(dp90
g20
VAreeba Baloch
p91
sg18
V185340755252496
p92
ssg18
V198936690540703_198959800538392
p93
sa(dp94
g36
V2016-10-12T08:08:43+0000
p95
sg38
VKhadijah Muhammad
p96
sg40
(dp97
g20
VNo Complain
p98
sg18
V2044500012443144
p99
ssg18
V198936690540703_198993473868358
p100
sassg36
V2016-10-12T05:13:07+0000
p101
sg38
VDamn-e-Koh, Margalla Hills, Islamabad.
p102
sg16
Vphoto
p103
sg18
V143201606114212_198936690540703
p104
s.