(dp0
Vreactions
p1
(dp2
Vpaging
p3
(dp4
Vcursors
p5
(dp6
Vafter
p7
VTVRBd01EQTVOemsyTWpNMU1URTVPakUwTnpjMk5EWXhPVFU2TWpVME1EazJNVFl4TXc9PQZDZD
p8
sVbefore
p9
VTVRBd01EQTVOemsyTWpNMU1URTVPakUwTnpjMk5EWXhPVFU2TWpVME1EazJNVFl4TXc9PQZDZD
p10
ssVnext
p11
Vhttps://graph.facebook.com/v2.6/143201606114212_195403494227356/reactions?access_token=599965930180946%7C575aa5390a4589483de7f8cf99702788&summary=true&limit=1&after=TVRBd01EQTVOemsyTWpNMU1URTVPakUwTnpjMk5EWXhPVFU2TWpVME1EazJNVFl4TXc9PQZDZD
p12
ssVdata
p13
(lp14
(dp15
Vtype
p16
VLIKE
p17
sVid
p18
V368580463478492
p19
sVname
p20
VSiyab Khan
p21
sasVsummary
p22
(dp23
Vtotal_count
p24
I788
sVviewer_reaction
p25
VNONE
p26
sssg20
VTimeline Photos
p27
sVshares
p28
(dp29
Vcount
p30
I131
ssVlink
p31
Vhttps://www.facebook.com/wonderfulpakistan/photos/a.143285289439177.1073741828.143201606114212/195403494227356/?type=3
p32
sVcomments
p33
(dp34
g3
(dp35
g5
(dp36
g7
VMQZDZD
p37
sg9
VMwZDZD
p38
sssg13
(lp39
(dp40
Vcreated_time
p41
V2016-10-09T10:14:13+0000
p42
sVmessage
p43
V
p44
sVfrom
p45
(dp46
g20
VArbab Shah
p47
sg18
V1822507894653747
p48
ssg18
V195403494227356_197277154039990
p49
sa(dp50
g41
V2016-10-06T15:34:27+0000
p51
sg43
VWah
p52
sg45
(dp53
g20
VFayaz Khan
p54
sg18
V1740241022906252
p55
ssg18
V195403494227356_195628890871483
p56
sa(dp57
g41
V2016-10-06T15:25:45+0000
p58
sg43
VHey bokchod pakistani  bakwas maat kar ,,jhut maat bol
p59
sg45
(dp60
g20
VChumki Roy
p61
sg18
V1786172398304268
p62
ssg18
V195403494227356_195620780872294
p63
sassg41
V2016-10-06T15:22:38+0000
p64
sg43
VMalakand Tunnel, KPK. (Photo by Siyab Khan Khel)
p65
sg16
Vphoto
p66
sg18
V143201606114212_195403494227356
p67
s.