(dp0
Vreactions
p1
(dp2
Vpaging
p3
(dp4
Vcursors
p5
(dp6
Vafter
p7
VTVRBd01EQXhNVFV3TmpJNE56TTFPakUwTnpjMk1UTTROVEE2TWpVME1EazJNVFl4TXc9PQZDZD
p8
sVbefore
p9
VTVRBd01EQXhNVFV3TmpJNE56TTFPakUwTnpjMk1UTTROVEE2TWpVME1EazJNVFl4TXc9PQZDZD
p10
ssVnext
p11
Vhttps://graph.facebook.com/v2.6/143201606114212_193353724432333/reactions?access_token=599965930180946%7C575aa5390a4589483de7f8cf99702788&summary=true&limit=1&after=TVRBd01EQXhNVFV3TmpJNE56TTFPakUwTnpjMk1UTTROVEE2TWpVME1EazJNVFl4TXc9PQZDZD
p12
ssVdata
p13
(lp14
(dp15
Vtype
p16
VLIKE
p17
sVid
p18
V1190095171038826
p19
sVname
p20
VMarlene Martinez Macias
p21
sasVsummary
p22
(dp23
Vtotal_count
p24
I1230
sVviewer_reaction
p25
VNONE
p26
sssg20
VTimeline Photos
p27
sVshares
p28
(dp29
Vcount
p30
I221
ssVlink
p31
Vhttps://www.facebook.com/wonderfulpakistan/photos/a.143285289439177.1073741828.143201606114212/193353724432333/?type=3
p32
sVcomments
p33
(dp34
g3
(dp35
g5
(dp36
g7
VMQZDZD
p37
sg9
VOQZDZD
p38
sssg13
(lp39
(dp40
Vcreated_time
p41
V2016-10-04T02:45:05+0000
p42
sVmessage
p43
VArchitecture is beautiful but inside is extremely pathetic and miserable employees in stores highly uncivilized and unprofessional they should hire students for customers services
p44
sVfrom
p45
(dp46
g20
VQudsia Zia
p47
sg18
V353993628278223
p48
ssg18
V193353724432333_194029954364710
p49
sa(dp50
g41
V2016-10-03T05:27:42+0000
p51
sg43
VSomeday I will visit in there. Insha Allah
p52
sg45
(dp53
g20
VSunrise Glory
p54
sg18
V1702854479988381
p55
ssg18
V193353724432333_193419144425791
p56
sa(dp57
g41
V2016-10-03T14:01:55+0000
p58
sg43
VMashahallah
p59
sg45
(dp60
g20
VMujahida SIddique
p61
sg18
V407697976285903
p62
ssg18
V193353724432333_193686711065701
p63
sa(dp64
g41
V2016-10-03T12:18:30+0000
p65
sg43
VBeautiful.
p66
sg45
(dp67
g20
VShamima Shahjehan
p68
sg18
V193206401086446
p69
ssg18
V193353724432333_193617691072603
p70
sa(dp71
g41
V2016-10-03T05:23:52+0000
p72
sg43
VVery beautiful
p73
sg45
(dp74
g20
VAslam Muhammad
p75
sg18
V333242563708247
p76
ssg18
V193353724432333_193417637759275
p77
sa(dp78
g41
V2016-10-03T16:50:17+0000
p79
sg43
VAwesome view
p80
sg45
(dp81
g20
VRahim Imran
p82
sg18
V1706633002986562
p83
ssg18
V193353724432333_193776571056715
p84
sa(dp85
g41
V2016-10-03T14:42:03+0000
p86
sg43
Vnice
p87
sg45
(dp88
g20
VBilal Hussain
p89
sg18
V1144281088954373
p90
ssg18
V193353724432333_193711651063207
p91
sa(dp92
g41
V2016-10-03T08:00:46+0000
p93
sg43
VNice
p94
sg45
(dp95
g20
VUmar Afzal
p96
sg18
V280207202373957
p97
ssg18
V193353724432333_193489604418745
p98
sa(dp99
g41
V2016-10-03T11:07:00+0000
p100
sg43
VHm
p101
sg45
(dp102
g20
VShehryar Ahmad
p103
sg18
V193944427678682
p104
ssg18
V193353724432333_193575674410138
p105
sassg41
V2016-10-03T05:05:55+0000
p106
sg43
VCentaurus, Islamabad. (Photo by Aqsa Noor)
p107
sg16
Vphoto
p108
sg18
V143201606114212_193353724432333
p109
s.