(dp0
Vreactions
p1
(dp2
Vpaging
p3
(dp4
Vcursors
p5
(dp6
Vafter
p7
VTVRBd01EQTJNREV3TnpFMU5USXpPakUwTnpjME1qZA3lNRE02TWpVME1EazJNVFl4TXc9PQZDZD
p8
sVbefore
p9
VTVRBd01EQTJNREV3TnpFMU5USXpPakUwTnpjME1qZA3lNRE02TWpVME1EazJNVFl4TXc9PQZDZD
p10
ssVnext
p11
Vhttps://graph.facebook.com/v2.6/143201606114212_193353864432319/reactions?access_token=599965930180946%7C575aa5390a4589483de7f8cf99702788&summary=true&limit=1&after=TVRBd01EQTJNREV3TnpFMU5USXpPakUwTnpjME1qZA3lNRE02TWpVME1EazJNVFl4TXc9PQZDZD
p12
ssVdata
p13
(lp14
(dp15
Vtype
p16
VLIKE
p17
sVid
p18
V563035770573442
p19
sVname
p20
VReehan Ali Chandio
p21
sasVsummary
p22
(dp23
Vtotal_count
p24
I1328
sVviewer_reaction
p25
VNONE
p26
sssg20
VTimeline Photos
p27
sVshares
p28
(dp29
Vcount
p30
I137
ssVlink
p31
Vhttps://www.facebook.com/wonderfulpakistan/photos/a.143285289439177.1073741828.143201606114212/193353864432319/?type=3
p32
sVcomments
p33
(dp34
g3
(dp35
g5
(dp36
g7
VMQZDZD
p37
sg9
VMgZDZD
p38
sssg13
(lp39
(dp40
Vcreated_time
p41
V2016-10-03T13:52:38+0000
p42
sVmessage
p43
VBeautiful.
p44
sVfrom
p45
(dp46
g20
VShamima Shahjehan
p47
sg18
V193206401086446
p48
ssg18
V193353864432319_193680344399671
p49
sa(dp50
g41
V2016-10-03T10:29:43+0000
p51
sg43
Vyad hai Mohsin ?
p52
sg45
(dp53
g20
VHammad Ali
p54
sg18
V553384081538007
p55
ssg18
V193353864432319_193549234412782
p56
sassg41
V2016-10-03T06:06:27+0000
p57
sg43
VLalazar, Kaghan Valley, KPK. (Photo by Shaheed Afzal)
p58
sg16
Vphoto
p59
sg18
V143201606114212_193353864432319
p60
s.