(dp0
Vreactions
p1
(dp2
Vpaging
p3
(dp4
Vcursors
p5
(dp6
Vafter
p7
VTVRBd01EQTJNREV3TnpFMU5USXpPakUwTnpjME1qZA3dOek02TWpVME1EazJNVFl4TXc9PQZDZD
p8
sVbefore
p9
VTVRBd01EQTJNREV3TnpFMU5USXpPakUwTnpjME1qZA3dOek02TWpVME1EazJNVFl4TXc9PQZDZD
p10
ssVnext
p11
Vhttps://graph.facebook.com/v2.6/143201606114212_194668144300891/reactions?access_token=599965930180946%7C575aa5390a4589483de7f8cf99702788&summary=true&limit=1&after=TVRBd01EQTJNREV3TnpFMU5USXpPakUwTnpjME1qZA3dOek02TWpVME1EazJNVFl4TXc9PQZDZD
p12
ssVdata
p13
(lp14
(dp15
Vtype
p16
VLIKE
p17
sVid
p18
V563035770573442
p19
sVname
p20
VReehan Ali Chandio
p21
sasVsummary
p22
(dp23
Vtotal_count
p24
I856
sVviewer_reaction
p25
VNONE
p26
sssg20
VTimeline Photos
p27
sVshares
p28
(dp29
Vcount
p30
I149
ssVlink
p31
Vhttps://www.facebook.com/wonderfulpakistan/photos/a.143285289439177.1073741828.143201606114212/194668144300891/?type=3
p32
sVcomments
p33
(dp34
g3
(dp35
g5
(dp36
g7
VMQZDZD
p37
sg9
VMwZDZD
p38
sssg13
(lp39
(dp40
Vcreated_time
p41
V2016-10-05T07:06:09+0000
p42
sVmessage
p43
VKya yahan sheren frhad ki awazen ati hn ab bhi.
p44
sVfrom
p45
(dp46
g20
VSaman Murtaza
p47
sg18
V1560615850901817
p48
ssg18
V194668144300891_194722057628833
p49
sa(dp50
g41
V2016-10-05T10:17:03+0000
p51
sg43
VAmazing
p52
sg45
(dp53
g20
VBetaaj Khans
p54
sg18
V241471432935090
p55
ssg18
V194668144300891_194784440955928
p56
sa(dp57
g41
V2016-10-05T07:57:32+0000
p58
sg43
VAmazing
p59
sg45
(dp60
g20
VNavid Shahid
p61
sg18
V1633599053606447
p62
ssg18
V194668144300891_194738084293897
p63
sassg41
V2016-10-05T05:48:08+0000
p64
sg43
VShirin-Farhad Cave, Lasbella, Balochistan. (Photo by Fahad Ullah)
p65
sg16
Vphoto
p66
sg18
V143201606114212_194668144300891
p67
s.