(dp0
Vreactions
p1
(dp2
Vpaging
p3
(dp4
Vcursors
p5
(dp6
Vafter
p7
VTVRBd01EQXdOVEk1T1RBNE9EQTRPakUwTnpjMk9ERXlNekk2TnpnNE5qUTRNRE0zT1RFek16RXkZD
p8
sVbefore
p9
VTVRBd01EQXdOVEk1T1RBNE9EQTRPakUwTnpjMk9ERXlNekk2TnpnNE5qUTRNRE0zT1RFek16RXkZD
p10
ssVnext
p11
Vhttps://graph.facebook.com/v2.6/143201606114212_198427307258308/reactions?access_token=599965930180946%7C575aa5390a4589483de7f8cf99702788&limit=1&after=TVRBd01EQXdOVEk1T1RBNE9EQTRPakUwTnpjMk9ERXlNekk2TnpnNE5qUTRNRE0zT1RFek16RXkZD
p12
ssVdata
p13
(lp14
(dp15
Vtype
p16
VLOVE
p17
sVid
p18
V1440936049267378
p19
sVname
p20
VUmmama Khan
p21
sassg20
VTimeline Photos
p22
sVshares
p23
(dp24
Vcount
p25
I30
ssVlink
p26
Vhttps://www.facebook.com/wonderfulpakistan/photos/a.143285289439177.1073741828.143201606114212/198427307258308/?type=3
p27
sVcomments
p28
(dp29
g3
(dp30
g5
(dp31
g7
VMQZDZD
p32
sg9
VMwZDZD
p33
sssg13
(lp34
(dp35
Vcreated_time
p36
V2016-10-12T04:59:06+0000
p37
sVmessage
p38
VKhalil Ch
p39
sVfrom
p40
(dp41
g20
VMaham Khan
p42
sg18
V276271569381286
p43
ssg18
V198427307258308_198931533874552
p44
sa(dp45
g36
V2016-10-17T09:26:52+0000
p46
sg38
V\u0100bdu\u0142 M\u0101n\u0101n
p47
sg40
(dp48
g20
VMian Amir Abbas
p49
sg18
V1138199656270793
p50
ssg18
V198427307258308_202100323557673
p51
sa(dp52
g36
V2016-10-12T00:20:24+0000
p53
sg38
VAmir Maqbool
p54
sg40
(dp55
g20
VUsman Hussain
p56
sg18
V820659591404112
p57
ssg18
V198427307258308_198834420550930
p58
sassg36
V2016-10-11T13:53:52+0000
p59
sg38
VLa Terrazza, Centaurus, Islamabad. (Photo by Rajab Malik)
p60
sg16
Vphoto
p61
sg18
V143201606114212_198427307258308
p62
s.