(dp0
Vreactions
p1
(dp2
Vpaging
p3
(dp4
Vcursors
p5
(dp6
Vafter
p7
VTVRBd01EQXhOemsxTWpJNU1ETTJPakUwTnpjMk9EQTBOalk2TWpVME1EazJNVFl4TXc9PQZDZD
p8
sVbefore
p9
VTVRBd01EQXhOemsxTWpJNU1ETTJPakUwTnpjMk9EQTBOalk2TWpVME1EazJNVFl4TXc9PQZDZD
p10
ssVnext
p11
Vhttps://graph.facebook.com/v2.6/143201606114212_203270173440688/reactions?access_token=599965930180946%7C575aa5390a4589483de7f8cf99702788&limit=1&after=TVRBd01EQXhOemsxTWpJNU1ETTJPakUwTnpjMk9EQTBOalk2TWpVME1EazJNVFl4TXc9PQZDZD
p12
ssVdata
p13
(lp14
(dp15
Vtype
p16
VLIKE
p17
sVid
p18
V1094446987291798
p19
sVname
p20
VMuzamil Soomro
p21
sassg20
VTimeline Photos
p22
sVshares
p23
(dp24
Vcount
p25
I102
ssVlink
p26
Vhttps://www.facebook.com/wonderfulpakistan/photos/a.143285289439177.1073741828.143201606114212/203270173440688/?type=3
p27
sVcomments
p28
(dp29
g3
(dp30
g5
(dp31
g7
VMQZDZD
p32
sg9
VMgZDZD
p33
sssg13
(lp34
(dp35
Vcreated_time
p36
V2016-10-20T03:09:02+0000
p37
sVmessage
p38
VHeaven on earth . Such a beautiful place in pakistan .
p39
sVfrom
p40
(dp41
g20
VKhalil Ahmad
p42
sg18
V10209315631700564
p43
ssg18
V203270173440688_203853413382364
p44
sa(dp45
g36
V2016-10-19T11:47:48+0000
p46
sg38
VKhalil Ch
p47
sg40
(dp48
g20
VMaham Khan
p49
sg18
V276271569381286
p50
ssg18
V203270173440688_203475900086782
p51
sassg36
V2016-10-19T11:19:01+0000
p52
sg38
VShangrila Resort, Skardu, Gilgit-Baltistan. (Photo by Qammer Wazir Photography)
p53
sg16
Vphoto
p54
sg18
V143201606114212_203270173440688
p55
s.