(dp0
Vreactions
p1
(dp2
Vpaging
p3
(dp4
Vcursors
p5
(dp6
Vafter
p7
VTVRBd01EQXdOVEk1T1RBNE9EQTRPakUwTnpjMk9ERXdOREk2TnpnNE5qUTRNRE0zT1RFek16RXkZD
p8
sVbefore
p9
VTVRBd01EQXdOVEk1T1RBNE9EQTRPakUwTnpjMk9ERXdOREk2TnpnNE5qUTRNRE0zT1RFek16RXkZD
p10
ssVnext
p11
Vhttps://graph.facebook.com/v2.6/143201606114212_200669263700779/reactions?access_token=599965930180946%7C575aa5390a4589483de7f8cf99702788&limit=1&after=TVRBd01EQXdOVEk1T1RBNE9EQTRPakUwTnpjMk9ERXdOREk2TnpnNE5qUTRNRE0zT1RFek16RXkZD
p12
ssVdata
p13
(lp14
(dp15
Vtype
p16
VLOVE
p17
sVid
p18
V1440936049267378
p19
sVname
p20
VUmmama Khan
p21
sassg20
VTimeline Photos
p22
sVshares
p23
(dp24
Vcount
p25
I283
ssVlink
p26
Vhttps://www.facebook.com/wonderfulpakistan/photos/a.143285289439177.1073741828.143201606114212/200669263700779/?type=3
p27
sVcomments
p28
(dp29
g3
(dp30
g5
(dp31
g7
VNAZDZD
p32
sg9
VMjMZD
p33
ssg11
Vhttps://graph.facebook.com/v2.6/143201606114212_200669263700779/comments?access_token=599965930180946%7C575aa5390a4589483de7f8cf99702788&limit=20&after=NAZDZD
p34
ssg13
(lp35
(dp36
Vcreated_time
p37
V2016-10-17T09:44:14+0000
p38
sVmessage
p39
V\U0001f31b \u0632\u0628\u0631\u062f\u0633\u062a \u0622\u0641\u0631\U0001f31c\u000a\u000a      \U0001f31b\U0001f31b \u0627\u0633\u0644\u0627\u0645 \u0648 \u0639\u0644\u06cc\u06a9\u0645,\U0001f31c\U0001f31c\u000a\u0634\u0627\u06cc\u062f \u0622\u067e \u0644\u0648\u06af\u0648\u06ba \u0645\u06cc\u06ba \u0633\u06d2 \u0628\u06c1\u062a \u06a9\u0645 \u0644\u0648\u06af \u062c\u0627\u0646\u062a\u06d2 \u06c1\u0648\u06ba \u06af\u06d2 \u06a9\u06c1 \u0645\u0648\u0628\u0627\u0626\u0644 \u0628\u06cc\u0644\u0646\u0633 \u0641\u0631\u06cc \u0645\u06cc\u06ba \u0644\u0648\u0688 \u06a9\u0631\u0646\u0627 \u0627\u0646\u062a\u06c1\u0627\u0626\u06cc \u0622\u0633\u0627\u0646 \u06c1\u0648\u06af\u06cc\u0627 \u06c1\u06d2 \u06d4\u000a\ufe97\ufee4\ufe8e\ufee1 \ufe91\ufbad\ufe8e\ufe8b\ufbff\ufeee\ufb9e \ufb90\ufbaf \ufedf\ufe8c\ufbaf \ufe81\ufe9d \ufee3\ufbff\ufb9f \ufe91\ufba9\ufe96 \ufba8\ufbfd \ufe8d\u0686\u06be\u0627 \ufe8d\u067e\u0644\u06cc\u06a9\ufbff\ufeb8\ufee6 \u0644\u06cc\u06a9\u0631 \u0622\u06cc\u0627  \ufba8\ufeee\ufb9e \ufe9f\ufeee \ufeb3\ufeee \ufed3\ufebc\ufbff\ufeaa \ufe81\ufb56 \ufb90\ufeee \ufe81\ufb56 \ufb90\ufbfd \ufb90\ufee4\ufe8e\ufe89 \u06a9\u06cc \ufead\ufed7\ufee2 \ufb90\ufeee \ufee3\ufeee\ufe91\ufe8e\ufe8b\ufede \ufe8d\ufbfe\ufeb0\ufbfc \u0644\u0648\u0688 \u06a9\u06cc \ufebb\ufeee\ufead\ufe95 \ufee3\ufbff\ufb9f \ufe8d\ufea9\ufe8d\ufe8b\ufbff\ufb95\ufbfd \ufb90\ufeae\u062a\u0627 \ufbac\ufbaf..\u0627\u0648\u0631 \u0628\u06c1\u062a \u06c1\u06cc \u0622\u0633\u0627\u0646 \u06c1\u06d2.\u000a\ufe8d\ufeed\ufead \ufe9f\ufeee \ufeb3\ufee4\ufea0\ufbad\ufe98\ufbaf \ufba8\ufbff\ufb9f \ufb90\ufba7 \ufed3\ufeae\ufe8d\u0688 \ufbac\ufbaf \ufe97\ufeee \ufeed\ufba6 \ufb90\ufee2 \ufe8d\ufeaf \ufb90\ufee2 \u0627\u06cc\u06a9 \u0628\u0627\u0631 \ufb94\ufeee\ufb94\ufede \u067e\u0631 \ufeb3\ufefc\ufe8b\ufbff\u0688 \ufb90\ufbaf \ufe91\ufe8e\ufead\ufbae \ufee3\ufbff\ufb9f \ufb58\ufb8d \u000a\ufedf\ufbff\ufb9f.. \u000ahttps://42.slde.io/3f1718e1\u000a\u000a\ufec3\ufeae\ufbfe\ufed8\ufba7 \ufb90\ufe8e(1)\ufeb3\ufe90 \ufeb3\ufbaf \ufb58\ufba9\ufee0\ufbaf \ufe8d\ufeb1 \ufedf\ufee8\ufb8f \u067e\u0631\ufb90\ufee0\ufb8f \u06a9\u0631\u06cc\u06ba\u21931\u000ahttps://42.slde.io/3f1718e1\u000a \u0627\u0648\u0631 \u06a9\u0633\u06cc \u0628\u06be\u06cc \u0628\u0631\u0627\u0624\u0632\u0631 \u0645\u06cc\u06ba \u0627\u0648\u067e\u0646 \u06a9\u0631\u06cc\u06ba \u0627\u0628 \u0622\u067e \u06a9\u0627 \u067e\u0627\u0633 \u067e\u0644\u06d2 \u0633\u0679\u0648\u0631 \u0627\u0648\u067e\u0646 \u06c1\u0648\u062c\u0627\u0626\u06d2 \u06af\u0627 \u06d4\u000a(2)\u0627\u0628 \u0627\u067e \u06a9\u0648 \u0627\u06cc\u06a9 \ufe8d\u067e\u0644\u06cc\u06a9\u06cc\u0634\u0646 \ufee7\ufec8\ufeae \ufe81\u06d3 \ufb94\ufbfd \u062c\u0633 \u06a9\u0627 \u0646\u0627\u0645 \u0633\u0644\u0627\u0626\u06cc\u0688 \u06c1\u06d2 \u0627\u0633 \ufb90\ufeee \u0688\u0627\u0648\u0646\u0644\u0648\u0688 \u06a9\u0631\u06cc\u06ba \u0627\u0648\u0631 \u0627\u0633 \u0645\u06cc\u06ba \u0627\u06a9\u0627\u0648\u0646\u0679 \u0628\u0646\u0627\u06a9\u0631 \u0648\u06c1 \u0646\u0645\u0628\u0631 \u0688\u0627\u0644\u06d2 \u062c\u0633 \u067e\u0631 \u0622\u067e \u0641\u0631\u06cc \u0627\u06cc\u0632\u06cc \u0644\u0648\u0688 \u062d\u0627\u0635\u0644 \u06a9\u0631\u0646\u0627 \u0686\u0627\u06be\u062a\u06d2 \u06c1\u06cc\u06ba\u06d4 \u0646\u0645\u0628\u0631 \u0622\u067e \u06a9\u0633\u06cc \u0628\u06be\u06cc \u0648\u0642\u062a \u0686\u0646\u062c \u0628\u06be\u06cc \u06a9\u0631 \u0633\u06a9\u062a\u06d2 \u06c1\u0648.\u000a(3) \u0627\u0628 \u06cc\u06c1 \u0627\u067e\u0644\u06cc\u06a9\u06cc\u0634\u0646 \u0622\u067e \u06a9\u06cc \u0644\u0627\u06a9 \u0633\u06a9\u0631\u06cc\u0646 \u067e\u0631 \u0627\u0634\u062a\u06c1\u0627\u0631\u0627\u062a \u0627\u0648\u0631 \u0646\u06cc\u0648\u0632 \u062f\u06a9\u06be\u0627\u0626\u06d2 \u06af\u0627 \u062c\u0633\u06d2 \u062f\u06cc\u06a9\u06be\u0646\u06d2 \u067e\u0631 \u0622\u067e \u06a9\u0648 \u067e\u06cc\u0633\u06d2 \u0645\u0644\u06cc\u06ba \u06af\u06d2\u06d4\u062a\u0648 \u062c\u062a\u0646\u06d2 \u0632\u06cc\u0627\u062f\u06c1 \u0627\u0634\u062a\u06c1\u0627\u0631\u0627\u062a \u0627\u062a\u0646\u06d2 \u0632\u06cc\u0627\u062f\u06c1 \u067e\u06cc\u0633\u06d2 \u06d4\u000a(4) \u06c1\u0631 \u0641\u0631\u06cc\u0646\u0688 \u06a9\u06d2  invite \u06a9\u0631\u0646\u06d2 \u067e\u0631 \u0622\u067e\u06a9\u0648 10\u0631\u0648\u067e\u06d2 \u0645\u0644\u06d2 \u06af\u06d2.\u0627\u06af\u0631 \u0622\u067e 50 \u0641\u0631\u06cc\u0646\u0688\u0632 \u06a9\u0648 invite \u06a9\u0631\u0648 \u06af\u06d2 \u062a\u0648 \u0622\u067e \u06a9\u0648 500 \u0631\u0648\u067e\u06d2 \u06a9\u0627 \u0628\u06cc\u0644\u0646\u0633 \u0645\u0644\u06d2 \u06af\u0627,\u000a\u0627\u0648\u0631 \u0627\u06af\u0631 \u0622 \u067e29 \u0627\u06a9\u062a\u0648\u0628\u0631 \u062a\u06a9 200 \u0641\u0631\u06cc\u0646\u0688\u0632 \u06a9\u0648 invite \u06a9\u0631\u062a\u06d2 \u06be\u0648 \u062a\u0648 \u0622\u067e \u06a9\u0648 5000 \u0631\u0648\u067e\u06d2 \u06a9\u0627 \u0628\u0648\u0646\u0633 \u0645\u0644\u06d2 \u06af\u0627.\u000a\u0627\u0648\u0631 \u0627\u06af\u0631 \u0622\u067e 350 \u0641\u0631\u06cc\u0646\u0688\u0632 \u06a9\u0648 invite \u06a9\u0631\u062a\u06d2 \u0647\u0648 \u062a\u0648 \u0622\u067e\u06a9\u0648 \u0627\u06cc\u06a9 \u0633\u0645\u0627\u0631\u0679 \u0641\u0648\u0646 \u0645\u0644\u06d2 \u06af\u0627,\u000a\u0627\u06cc\u06a9 \u0627\u0648\u0631 \u0628\u0691\u06cc \u062f\u06be\u0645\u0627\u06a9\u06d2 \u062f\u0627\u0631 \u0646\u06cc\u0648\u0632,,,,----\u0627\u06af\u0631 \u0622\u067e \u0627\u0633 \u0645\u0647\u06cc\u0646\u06d2 \u06a9\u06cc 29 \u062a\u0627\u0631\u06cc\u062e \u062a\u06a9 2000 \u0641\u0631\u06cc\u0646\u0688\u0632 \u06a9\u0648 invite \u06a9\u0631\u062a\u06d2 \u06be\u0648 \u062a\u0648 \u0622\u067e\u06a9\u0648 \u0645\u0644\u06d2 \u06af\u06cc 36 inches \u06a9\u06cc LCD+LED \u2728\u2728\u2728\U0001f4a5\U0001f4a5\U0001f4a5\u000ahttps://42.slde.io/3f1718e1\u000a\u062a\u0648 \u062f\u0648\u0633\u062a\u0648 \u062f\u06cc\u0631 \u06a9\u0633 \u0628\u0627\u062a \u06a9\u06cc \u0627\u0628\u06be\u06cc \u06cc\u06d2 \u0627\u06cc\u067e\u0644\u06cc\u06a9\u06cc\u0634\u0646 \u0688\u0627\u0648\u0646\u0644\u0648\u0688 \u06a9\u0631\u06cc\u06ba \u0627\u0648\u0631 \u0622\u0641\u0631\u0632 \u0633\u06d2 \u0641\u0627\u0626\u062f\u0627 \u0627\u0679\u06be\u0627\u0626\u06cc\u06ba \u0627\u06cc\u067e\u0644\u06cc\u06a9\u06cc\u0634\u0646 \u06a9\u06d2 \u0644\u06cc\u06d2 \u0627\u0633 \u0644\u0646\u06a9 \u067e\u0631 \u06a9\u0644\u06a9 \u06a9\u0631\u06cc\u06ba\u000ahttps://42.slde.io/3f1718e1
p40
sVfrom
p41
(dp42
g20
VHaseeb Ranjha
p43
sg18
V1714733512181039
p44
ssg18
V200669263700779_202107113556994
p45
sa(dp46
g37
V2016-10-15T11:39:59+0000
p47
sg39
V\u06a9\u06cc\u0627 \u0632\u0628\u0631\u062f\u0633\u062a \u0645\u0648\u0633\u0645 \u06c1\u06d2
p48
sg41
(dp49
g20
VAgha Naseem Abbas
p50
sg18
V944757742297064
p51
ssg18
V200669263700779_200884270345945
p52
sa(dp53
g37
V2016-10-15T08:01:53+0000
p54
sg39
VBeautiful
p55
sg41
(dp56
g20
VImran Shafique
p57
sg18
V698823726953618
p58
ssg18
V200669263700779_200786690355703
p59
sa(dp60
g37
V2016-10-15T05:53:09+0000
p61
sg39
VBeautiful
p62
sg41
(dp63
g20
VDrTayyaba Ali Zaidi
p64
sg18
V1127902710620020
p65
ssg18
V200669263700779_200738343693871
p66
sa(dp67
g37
V2016-10-15T17:27:15+0000
p68
sg39
Vmy city nice..........................
p69
sg41
(dp70
g20
VAbdul Rauf KaluKhel
p71
sg18
V1115927628521254
p72
ssg18
V200669263700779_201087563658949
p73
sa(dp74
g37
V2016-10-15T06:11:54+0000
p75
sg39
VBeautifull
p76
sg41
(dp77
g20
VWajid Khan
p78
sg18
V1586200251687719
p79
ssg18
V200669263700779_200743100360062
p80
sa(dp81
g37
V2016-10-15T05:51:55+0000
p82
sg39
VBeautiful.
p83
sg41
(dp84
g20
VIrfan Ali
p85
sg18
V828290300647341
p86
ssg18
V200669263700779_200737877027251
p87
sa(dp88
g37
V2016-10-15T22:49:01+0000
p89
sg39
VWow i am going inshallah.
p90
sg41
(dp91
g20
VNina Sharif
p92
sg18
V2106251666267724
p93
ssg18
V200669263700779_201226773645028
p94
sa(dp95
g37
V2016-10-15T08:05:42+0000
p96
sg39
VBeautifull
p97
sg41
(dp98
g20
VZubair Akram
p99
sg18
V161437240985643
p100
ssg18
V200669263700779_200787367022302
p101
sa(dp102
g37
V2016-10-15T09:40:14+0000
p103
sg39
VMasha Allah
p104
sg41
(dp105
g20
VSohail Bangash
p106
sg18
V1200780356655417
p107
ssg18
V200669263700779_200830783684627
p108
sa(dp109
g37
V2016-10-15T07:47:14+0000
p110
sg39
VBeautiful
p111
sg41
(dp112
g20
VWali Afridi
p113
sg18
V1634101303549734
p114
ssg18
V200669263700779_200782923689413
p115
sa(dp116
g37
V2016-10-15T10:16:07+0000
p117
sg39
VBeautiful
p118
sg41
(dp119
g20
VSajjad Abbasi
p120
sg18
V1727055807616883
p121
ssg18
V200669263700779_200844707016568
p122
sa(dp123
g37
V2016-10-15T08:21:37+0000
p124
sg39
VDream road\U0001f60d
p125
sg41
(dp126
g20
VSadia Zafar
p127
sg18
V1702659660053381
p128
ssg18
V200669263700779_200794650354907
p129
sa(dp130
g37
V2016-10-15T08:08:46+0000
p131
sg39
Vzabrdast
p132
sg41
(dp133
g20
VWafa Ahmed
p134
sg18
V207823136320454
p135
ssg18
V200669263700779_200788310355541
p136
sa(dp137
g37
V2016-10-15T11:14:13+0000
p138
sg39
VNyx
p139
sg41
(dp140
g20
VBilal Joseph
p141
sg18
V218899011856091
p142
ssg18
V200669263700779_200875500346822
p143
sa(dp144
g37
V2016-10-16T13:29:21+0000
p145
sg39
VAp marri  main hn kiya
p146
sg41
(dp147
g20
VMehreen Rashid
p148
sg18
V198620137247129
p149
ssg18
V200669263700779_201586003609105
p150
sa(dp151
g37
V2016-10-16T11:42:27+0000
p152
sg39
VAWESOME
p153
sg41
(dp154
g20
VSarosha Zehra
p155
sg18
V220009268420622
p156
ssg18
V200669263700779_201521533615552
p157
sa(dp158
g37
V2016-10-16T02:44:41+0000
p159
sg39
VZabardast
p160
sg41
(dp161
g20
VAtia Mudassar
p162
sg18
V202748943498210
p163
ssg18
V200669263700779_201307036970335
p164
sa(dp165
g37
V2016-10-15T05:52:56+0000
p166
sg39
V
p167
sg41
(dp168
g20
VRana Numan Amjad
p169
sg18
V1984796665080489
p170
ssg18
V200669263700779_200738270360545
p171
sa(dp172
g37
V2016-10-16T09:22:26+0000
p173
sg39
VMast
p174
sg41
(dp175
g20
VBabar Qureshi
p176
sg18
V482612518580412
p177
ssg18
V200669263700779_201465480287824
p178
sassg37
V2016-10-15T03:04:35+0000
p179
sg39
VToday Morning. Murree.
p180
sg16
Vphoto
p181
sg18
V143201606114212_200669263700779
p182
s.