(dp0
Vreactions
p1
(dp2
Vpaging
p3
(dp4
Vcursors
p5
(dp6
Vafter
p7
VTVRBd01ERXdOVFExTVRnd01qVTVPakUwTnpjMU1EY3pPREk2TWpVME1EazJNVFl4TXc9PQZDZD
p8
sVbefore
p9
VTVRBd01ERXdOVFExTVRnd01qVTVPakUwTnpjMU1EY3pPREk2TWpVME1EazJNVFl4TXc9PQZDZD
p10
ssVnext
p11
Vhttps://graph.facebook.com/v2.6/143201606114212_201995293568176/reactions?access_token=599965930180946%7C575aa5390a4589483de7f8cf99702788&limit=1&after=TVRBd01ERXdOVFExTVRnd01qVTVPakUwTnpjMU1EY3pPREk2TWpVME1EazJNVFl4TXc9PQZDZD
p12
ssVdata
p13
(lp14
(dp15
Vtype
p16
VLIKE
p17
sVid
p18
V349149088779928
p19
sVname
p20
VAoun DK
p21
sassg20
VTimeline Photos
p22
sVshares
p23
(dp24
Vcount
p25
I97
ssVlink
p26
Vhttps://www.facebook.com/wonderfulpakistan/photos/a.143285289439177.1073741828.143201606114212/201995293568176/?type=3
p27
sVcomments
p28
(dp29
g3
(dp30
g5
(dp31
g7
VMQZDZD
p32
sg9
VNAZDZD
p33
sssg13
(lp34
(dp35
Vcreated_time
p36
V2016-10-18T03:40:56+0000
p37
sVmessage
p38
VMash Allah
p39
sVfrom
p40
(dp41
g20
VNazir Baloshi
p42
sg18
V1884661685095612
p43
ssg18
V201995293568176_202617980172574
p44
sa(dp45
g36
V2016-10-17T11:30:03+0000
p46
sg38
VWonderful place! Beauty of nature
p47
sg40
(dp48
g20
VSunrise Glory
p49
sg18
V1702854479988381
p50
ssg18
V201995293568176_202176466883392
p51
sa(dp52
g36
V2016-10-17T19:21:05+0000
p53
sg38
VLove pakistan.
p54
sg40
(dp55
g20
VNina Sharif
p56
sg18
V2106251666267724
p57
ssg18
V201995293568176_202427740191598
p58
sa(dp59
g36
V2016-10-17T18:10:27+0000
p60
sg38
VWonderful pakistan
p61
sg40
(dp62
g20
VShamima Shahjehan
p63
sg18
V193206401086446
p64
ssg18
V201995293568176_202387743528931
p65
sassg36
V2016-10-17T10:36:37+0000
p66
sg38
VBolan, Balochistan.
p67
sg16
Vphoto
p68
sg18
V143201606114212_201995293568176
p69
s.