(dp0
Vreactions
p1
(dp2
Vpaging
p3
(dp4
Vcursors
p5
(dp6
Vafter
p7
VTVRBd01EQTVNelF6T1RNNE9EWTNPakUwTnpjNE1UUTBOemc2TWpVME1EazJNVFl4TXc9PQZDZD
p8
sVbefore
p9
VTVRBd01EQTVNelF6T1RNNE9EWTNPakUwTnpjNE1UUTBOemc2TWpVME1EazJNVFl4TXc9PQZDZD
p10
ssVnext
p11
Vhttps://graph.facebook.com/v2.6/143201606114212_209423416158697/reactions?access_token=599965930180946%7C575aa5390a4589483de7f8cf99702788&limit=1&after=TVRBd01EQTVNelF6T1RNNE9EWTNPakUwTnpjNE1UUTBOemc2TWpVME1EazJNVFl4TXc9PQZDZD
p12
ssVdata
p13
(lp14
(dp15
Vtype
p16
VLIKE
p17
sVid
p18
V1716264865361628
p19
sVname
p20
VAli Hayder
p21
sassg20
VDancing Fountains Starts Working at Greater Iqbal Park, Lahore
p22
sVshares
p23
(dp24
Vcount
p25
I2
ssVlink
p26
Vhttp://www.wonderfulpoint.com/2016/10/dancing-fountains-in-lahore.html
p27
sVcreated_time
p28
V2016-10-28T14:28:28+0000
p29
sVmessage
p30
VDancing Fountains Starts Working at Greater Iqbal Park, Lahore
p31
sg16
Vlink
p32
sg18
V143201606114212_209423416158697
p33
s.