(dp0
Vreactions
p1
(dp2
Vpaging
p3
(dp4
Vcursors
p5
(dp6
Vafter
p7
VTVRBd01EQTFOVGs1TXprMU9ERXdPakUwTnpVNU5UUTRNVGs2TWpVME1EazJNVFl4TXc9PQZDZD
p8
sVbefore
p9
VTVRBd01EQTFOVGs1TXprMU9ERXdPakUwTnpVNU5UUTRNVGs2TWpVME1EazJNVFl4TXc9PQZDZD
p10
ssVnext
p11
Vhttps://graph.facebook.com/v2.6/143201606114212_193701751064197/reactions?access_token=599965930180946%7C575aa5390a4589483de7f8cf99702788&summary=true&limit=1&after=TVRBd01EQTFOVGs1TXprMU9ERXdPakUwTnpVNU5UUTRNVGs2TWpVME1EazJNVFl4TXc9PQZDZD
p12
ssVdata
p13
(lp14
(dp15
Vtype
p16
VLIKE
p17
sVid
p18
V524910731038902
p19
sVname
p20
VMuhammad Muazzam Ali
p21
sasVsummary
p22
(dp23
Vtotal_count
p24
I19
sVviewer_reaction
p25
VNONE
p26
sssg20
V24 Kinds of Students You will See in Every Pakistani University
p27
sVcomments
p28
(dp29
g3
(dp30
g5
(dp31
g7
VMQZDZD
p32
sg9
VMQZDZD
p33
sssg13
(lp34
(dp35
Vcreated_time
p36
V2016-10-06T15:04:08+0000
p37
sVmessage
p38
Vconcept copied by house of lolz
p39
sVfrom
p40
(dp41
g20
VSyed Haider Ali Gillani
p42
sg18
V322625244776154
p43
ssg18
V193701751064197_195603564207349
p44
sassVlink
p45
Vhttp://www.wonderfulpoint.com/2014/09/24-kinds-of-people-you-will-see-in.html
p46
sg36
V2016-10-03T18:38:02+0000
p47
sg38
V24 Kinds of Students You will See in Every Pakistani University
p48
sg16
Vlink
p49
sg18
V143201606114212_193701751064197
p50
s.