(dp0
Vreactions
p1
(dp2
Vpaging
p3
(dp4
Vcursors
p5
(dp6
Vafter
p7
VTVRBd01EQXdOVEk1T1RBNE9EQTRPakUwTnpjMk9ESTRPVGc2TWpVME1EazJNVFl4TXc9PQZDZD
p8
sVbefore
p9
VTVRBd01EQXdOVEk1T1RBNE9EQTRPakUwTnpjMk9ESTRPVGc2TWpVME1EazJNVFl4TXc9PQZDZD
p10
ssVnext
p11
Vhttps://graph.facebook.com/v2.6/143201606114212_196015484166157/reactions?access_token=599965930180946%7C575aa5390a4589483de7f8cf99702788&summary=true&limit=1&after=TVRBd01EQXdOVEk1T1RBNE9EQTRPakUwTnpjMk9ESTRPVGc2TWpVME1EazJNVFl4TXc9PQZDZD
p12
ssVdata
p13
(lp14
(dp15
Vtype
p16
VLIKE
p17
sVid
p18
V1440936049267378
p19
sVname
p20
VUmmama Khan
p21
sasVsummary
p22
(dp23
Vtotal_count
p24
I731
sVviewer_reaction
p25
VNONE
p26
sssg20
VTimeline Photos
p27
sVshares
p28
(dp29
Vcount
p30
I109
ssVlink
p31
Vhttps://www.facebook.com/wonderfulpakistan/photos/a.143285289439177.1073741828.143201606114212/196015484166157/?type=3
p32
sVcomments
p33
(dp34
g3
(dp35
g5
(dp36
g7
VMQZDZD
p37
sg9
VMgZDZD
p38
sssg13
(lp39
(dp40
Vcreated_time
p41
V2016-10-08T07:49:07+0000
p42
sVmessage
p43
VChitraaaaaalll\U0001f60d\U0001f60d\U0001f60d\U0001f60d\U0001f618\U0001f618\U0001f618\U0001f618\U0001f618
p44
sVfrom
p45
(dp46
g20
VHoney Khan
p47
sg18
V331826737174563
p48
ssg18
V196015484166157_196568500777522
p49
sa(dp50
g41
V2016-10-07T16:33:21+0000
p51
sg43
V\U0001f427 Wonderful\U0001f428 Pakistan\U0001f4f2 F33L\U0001f390 TH3\U0001f466 POW3R\U0001f63f OF\U0001f630 CHAMPIONS\U0001f63f \U0001f431 :)\U0001f4f1 \u000a\u000a:* Add Kar Lo Sab :)  Just Now Lo Aur Do :) AdD clOse krO  Wonderful Pakistan\u000a:D Friday : 7 - October - 2016\u000a:3 CHAMPIONS <3 -=[MUSAB KHAN]]=- Wonderful Pakistan\u000a-_- :)  I Am On Fire :)  -1 menit :D 31 detik :v \u000a<3   Bot  By  Muhammad Shakeel\u000a<3  POWERED BY MUSAB KHAN  <3
p52
sg45
(dp53
g20
VMuhammad Shakeel
p54
sg18
V686741168148881
p55
ssg18
V196015484166157_196214887479550
p56
sassg41
V2016-10-07T10:33:50+0000
p57
sg43
VChitral, KPK.
p58
sg16
Vphoto
p59
sg18
V143201606114212_196015484166157
p60
s.