(dp0
Vreactions
p1
(dp2
Vpaging
p3
(dp4
Vcursors
p5
(dp6
Vafter
p7
VTVRBd01ERXhOVE16TmprNE16WXdPakUwTnpjM05USTJOekE2TWpVME1EazJNVFl4TXc9PQZDZD
p8
sVbefore
p9
VTVRBd01ERXhOVE16TmprNE16WXdPakUwTnpjM05USTJOekE2TWpVME1EazJNVFl4TXc9PQZDZD
p10
ssVnext
p11
Vhttps://graph.facebook.com/v2.6/143201606114212_196524034115302/reactions?access_token=599965930180946%7C575aa5390a4589483de7f8cf99702788&summary=true&limit=1&after=TVRBd01ERXhOVE16TmprNE16WXdPakUwTnpjM05USTJOekE2TWpVME1EazJNVFl4TXc9PQZDZD
p12
ssVdata
p13
(lp14
(dp15
Vtype
p16
VLIKE
p17
sVid
p18
V283570825370705
p19
sVname
p20
VDuaharam Yousaf
p21
sasVsummary
p22
(dp23
Vtotal_count
p24
I1191
sVviewer_reaction
p25
VNONE
p26
sssg20
VTimeline Photos
p27
sVshares
p28
(dp29
Vcount
p30
I201
ssVlink
p31
Vhttps://www.facebook.com/wonderfulpakistan/photos/a.143285289439177.1073741828.143201606114212/196524034115302/?type=3
p32
sVcomments
p33
(dp34
g3
(dp35
g5
(dp36
g7
VMQZDZD
p37
sg9
VMwZDZD
p38
sssg13
(lp39
(dp40
Vcreated_time
p41
V2016-10-08T07:32:21+0000
p42
sVmessage
p43
VWahoo
p44
sVfrom
p45
(dp46
g20
VSaman Murtaza
p47
sg18
V1560615850901817
p48
ssg18
V196524034115302_196562297444809
p49
sa(dp50
g41
V2016-10-08T07:12:50+0000
p51
sg43
VHeaven
p52
sg45
(dp53
g20
VSyed Shahbaz Ali
p54
sg18
V1589595381369610
p55
ssg18
V196524034115302_196552920779080
p56
sa(dp57
g41
V2016-10-08T07:14:44+0000
p58
sg43
V\U0001f60d\U0001f60d\U0001f60d
p59
sg45
(dp60
g20
VHammad Khan
p61
sg18
V324444524596615
p62
ssg18
V196524034115302_196553567445682
p63
sassg41
V2016-10-08T07:06:46+0000
p64
sg43
VHunza Valley, Gilgit-Baltistan. (Photo by Mansoor Ali Zaidi)
p65
sg16
Vphoto
p66
sg18
V143201606114212_196524034115302
p67
s.