(dp0
Vreactions
p1
(dp2
Vpaging
p3
(dp4
Vcursors
p5
(dp6
Vafter
p7
VTVRBd01EQTJNREV3TnpFMU5USXpPakUwTnpjME1qYzVPVEk2TWpVME1EazJNVFl4TXc9PQZDZD
p8
sVbefore
p9
VTVRBd01EQTJNREV3TnpFMU5USXpPakUwTnpjME1qYzVPVEk2TWpVME1EazJNVFl4TXc9PQZDZD
p10
ssVnext
p11
Vhttps://graph.facebook.com/v2.6/143201606114212_195402804227425/reactions?access_token=599965930180946%7C575aa5390a4589483de7f8cf99702788&summary=true&limit=1&after=TVRBd01EQTJNREV3TnpFMU5USXpPakUwTnpjME1qYzVPVEk2TWpVME1EazJNVFl4TXc9PQZDZD
p12
ssVdata
p13
(lp14
(dp15
Vtype
p16
VLIKE
p17
sVid
p18
V563035770573442
p19
sVname
p20
VReehan Ali Chandio
p21
sasVsummary
p22
(dp23
Vtotal_count
p24
I1284
sVviewer_reaction
p25
VNONE
p26
sssg20
VTimeline Photos
p27
sVshares
p28
(dp29
Vcount
p30
I211
ssVlink
p31
Vhttps://www.facebook.com/wonderfulpakistan/photos/a.143285289439177.1073741828.143201606114212/195402804227425/?type=3
p32
sVcomments
p33
(dp34
g3
(dp35
g5
(dp36
g7
VMQZDZD
p37
sg9
VNgZDZD
p38
sssg13
(lp39
(dp40
Vcreated_time
p41
V2016-10-06T18:47:22+0000
p42
sVmessage
p43
V
p44
sVfrom
p45
(dp46
g20
VXia Rajpoot
p47
sg18
V2144608572430320
p48
ssg18
V195402804227425_195721414195564
p49
sa(dp50
g41
V2016-10-06T15:00:33+0000
p51
sg43
VMashallah
p52
sg45
(dp53
g20
VBetaaj Khans
p54
sg18
V241471432935090
p55
ssg18
V195402804227425_195600947540944
p56
sa(dp57
g41
V2016-10-06T13:38:23+0000
p58
sg43
VWah re so beautiful
p59
sg45
(dp60
g20
VShamima Shahjehan
p61
sg18
V193206401086446
p62
ssg18
V195402804227425_195548534212852
p63
sa(dp64
g41
V2016-10-06T18:46:47+0000
p65
sg43
VArang Kel
p66
sg45
(dp67
g20
VXia Rajpoot
p68
sg18
V2144608572430320
p69
ssg18
V195402804227425_195721244195581
p70
sa(dp71
g41
V2016-10-07T02:56:17+0000
p72
sg43
VBeautiful
p73
sg45
(dp74
g20
VMariam Khan
p75
sg18
V1598471003791951
p76
ssg18
V195402804227425_195883637512675
p77
sa(dp78
g41
V2016-10-06T18:44:31+0000
p79
sg43
VKel
p80
sg45
(dp81
g20
VXia Rajpoot
p82
sg18
V2144608572430320
p83
ssg18
V195402804227425_195719670862405
p84
sassg41
V2016-10-06T13:21:22+0000
p85
sg43
VArrang Kel, Neelam Valley, Azad Kashmir. (Photo by Shiza Tahir)
p86
sg16
Vphoto
p87
sg18
V143201606114212_195402804227425
p88
s.