(dp0
Vreactions
p1
(dp2
Vpaging
p3
(dp4
Vcursors
p5
(dp6
Vafter
p7
VTVRBd01EQTFPREV4T1RZAek1ESTFPakUwTnpZAME1UUTVOemc2TWpVME1EazJNVFl4TXc9PQZDZD
p8
sVbefore
p9
VTVRBd01EQTFPREV4T1RZAek1ESTFPakUwTnpZAME1UUTVOemc2TWpVME1EazJNVFl4TXc9PQZDZD
p10
ssVnext
p11
Vhttps://graph.facebook.com/v2.6/143201606114212_192447084522997/reactions?access_token=599965930180946%7C575aa5390a4589483de7f8cf99702788&summary=true&limit=1&after=TVRBd01EQTFPREV4T1RZAek1ESTFPakUwTnpZAME1UUTVOemc2TWpVME1EazJNVFl4TXc9PQZDZD
p12
ssVdata
p13
(lp14
(dp15
Vtype
p16
VLIKE
p17
sVid
p18
V593651667505227
p19
sVname
p20
VAbdulhanan Tariq
p21
sasVsummary
p22
(dp23
Vtotal_count
p24
I382
sVviewer_reaction
p25
VNONE
p26
sssg20
VWonderful Pakistan
p27
sVcomments
p28
(dp29
g3
(dp30
g5
(dp31
g7
VMQZDZD
p32
sg9
VNAZDZD
p33
sssg13
(lp34
(dp35
Vcreated_time
p36
V2016-10-01T17:24:46+0000
p37
sVmessage
p38
VSo nice pictures
p39
sVfrom
p40
(dp41
g20
VBetaaj Khans
p42
sg18
V241471432935090
p43
ssg18
V192447084522997_192464837854555
p44
sa(dp45
g36
V2016-10-01T18:48:39+0000
p46
sg38
VMashallah
p47
sg40
(dp48
g20
VFarhat Ansari
p49
sg18
V1013208022129830
p50
ssg18
V192447084522997_192513771182995
p51
sa(dp52
g36
V2016-10-03T03:11:02+0000
p53
sg38
VMashallah
p54
sg40
(dp55
g20
VAbdul Sami
p56
sg18
V1680617922252116
p57
ssg18
V192447084522997_193364761097896
p58
sa(dp59
g36
V2016-10-03T02:56:16+0000
p60
sg38
VSo beautiful
p61
sg40
(dp62
g20
VNasir Mehmood
p63
sg18
V333722146989153
p64
ssg18
V192447084522997_193354011098971
p65
sassVlink
p66
Vhttps://www.facebook.com/wonderfulpakistan/photos/a.143285289439177.1073741828.143201606114212/207207926380246/?type=3
p67
sg36
V2016-10-01T16:41:37+0000
p68
sg38
VWonderful Pakistan <3
p69
sg16
Vphoto
p70
sg18
V143201606114212_192447084522997
p71
s.