(dp0
Vreactions
p1
(dp2
Vpaging
p3
(dp4
Vcursors
p5
(dp6
Vafter
p7
VTVRBd01EQTNNakUzT0RnNE16UTBPakUwTnpjMU16azJPRGM2TWpVME1EazJNVFl4TXc9PQZDZD
p8
sVbefore
p9
VTVRBd01EQTNNakUzT0RnNE16UTBPakUwTnpjMU16azJPRGM2TWpVME1EazJNVFl4TXc9PQZDZD
p10
ssVnext
p11
Vhttps://graph.facebook.com/v2.6/143201606114212_194671317633907/reactions?access_token=599965930180946%7C575aa5390a4589483de7f8cf99702788&summary=true&limit=1&after=TVRBd01EQTNNakUzT0RnNE16UTBPakUwTnpjMU16azJPRGM2TWpVME1EazJNVFl4TXc9PQZDZD
p12
ssVdata
p13
(lp14
(dp15
Vtype
p16
VLIKE
p17
sVid
p18
V1739213372995909
p19
sVname
p20
VShah Raza
p21
sasVsummary
p22
(dp23
Vtotal_count
p24
I800
sVviewer_reaction
p25
VNONE
p26
sssg20
VTimeline Photos
p27
sVshares
p28
(dp29
Vcount
p30
I117
ssVlink
p31
Vhttps://www.facebook.com/wonderfulpakistan/photos/a.143285289439177.1073741828.143201606114212/194671317633907/?type=3
p32
sVcomments
p33
(dp34
g3
(dp35
g5
(dp36
g7
VMQZDZD
p37
sg9
VNgZDZD
p38
sssg13
(lp39
(dp40
Vcreated_time
p41
V2016-10-05T17:59:20+0000
p42
sVmessage
p43
VBeautiful
p44
sVfrom
p45
(dp46
g20
VShamima Shahjehan
p47
sg18
V193206401086446
p48
ssg18
V194671317633907_195027950931577
p49
sa(dp50
g41
V2016-10-05T14:29:47+0000
p51
sg43
VVery nice
p52
sg45
(dp53
g20
VAslam Muhammad
p54
sg18
V333242563708247
p55
ssg18
V194671317633907_194922737608765
p56
sa(dp57
g41
V2016-10-05T19:12:48+0000
p58
sg43
VBuhat achha manzar.
p59
sg45
(dp60
g20
VAtta Khan Bangash
p61
sg18
V277252839336017
p62
ssg18
V194671317633907_195059347595104
p63
sa(dp64
g41
V2016-10-06T08:02:34+0000
p65
sg43
VCool
p66
sg45
(dp67
g20
VIftikhar Ahmad Shah
p68
sg18
V190433818073129
p69
ssg18
V194671317633907_195367134230992
p70
sa(dp71
g41
V2016-10-05T14:00:25+0000
p72
sg43
Vwaoooo
p73
sg45
(dp74
g20
VHassan Majeed
p75
sg18
V355856124748255
p76
ssg18
V194671317633907_194886124279093
p77
sa(dp78
g41
V2016-10-05T13:25:10+0000
p79
sg43
VMohammad SohAib SaQib :p
p80
sg45
(dp81
g20
VHamza Rana
p82
sg18
V568387970022154
p83
ssg18
V194671317633907_194867654280940
p84
sassg41
V2016-10-05T10:58:36+0000
p85
sg43
VHunza Valley, Gilgit-Baltistan. (Photo by Will Hatton)
p86
sg16
Vphoto
p87
sg18
V143201606114212_194671317633907
p88
s.