(dp0
Vreactions
p1
(dp2
Vpaging
p3
(dp4
Vcursors
p5
(dp6
Vafter
p7
VTVRBd01EQXhOemsxTWpJNU1ETTJPakUwTnpjMk9EQTVNemc2TWpVME1EazJNVFl4TXc9PQZDZD
p8
sVbefore
p9
VTVRBd01EQXhOemsxTWpJNU1ETTJPakUwTnpjMk9EQTVNemc2TWpVME1EazJNVFl4TXc9PQZDZD
p10
ssVnext
p11
Vhttps://graph.facebook.com/v2.6/143201606114212_196017687499270/reactions?access_token=599965930180946%7C575aa5390a4589483de7f8cf99702788&summary=true&limit=1&after=TVRBd01EQXhOemsxTWpJNU1ETTJPakUwTnpjMk9EQTVNemc2TWpVME1EazJNVFl4TXc9PQZDZD
p12
ssVdata
p13
(lp14
(dp15
Vtype
p16
VLIKE
p17
sVid
p18
V1094446987291798
p19
sVname
p20
VMuzamil Soomro
p21
sasVsummary
p22
(dp23
Vtotal_count
p24
I923
sVviewer_reaction
p25
VNONE
p26
sssg20
VTimeline Photos
p27
sVshares
p28
(dp29
Vcount
p30
I106
ssVlink
p31
Vhttps://www.facebook.com/wonderfulpakistan/photos/a.143285289439177.1073741828.143201606114212/196017687499270/?type=3
p32
sVcomments
p33
(dp34
g3
(dp35
g5
(dp36
g7
VMQZDZD
p37
sg9
VMgZDZD
p38
sssg13
(lp39
(dp40
Vcreated_time
p41
V2016-10-08T05:36:02+0000
p42
sVmessage
p43
VSo nice
p44
sVfrom
p45
(dp46
g20
VBetaaj Khans
p47
sg18
V241471432935090
p48
ssg18
V196017687499270_196515487449490
p49
sa(dp50
g41
V2016-10-08T17:00:40+0000
p51
sg43
VMubashir Junaid idr jana ha
p52
sg45
(dp53
g20
VMuntazir Mahdi
p54
sg18
V1228888617184016
p55
ssg18
V196017687499270_196846937416345
p56
sassg41
V2016-10-07T14:36:58+0000
p57
sg43
VAttock Khurd Railway Station, Punjab (Photo by Abdul Qadir)
p58
sg16
Vphoto
p59
sg18
V143201606114212_196017687499270
p60
s.