(dp0
Vreactions
p1
(dp2
Vpaging
p3
(dp4
Vcursors
p5
(dp6
Vafter
p7
VTVRBd01EQTRNREU0TWpBd05qYzNPakUwTnpjNE1ESTNNVGM2TWpVME1EazJNVFl4TXc9PQZDZD
p8
sVbefore
p9
VTVRBd01EQTRNREU0TWpBd05qYzNPakUwTnpjNE1ESTNNVGM2TWpVME1EazJNVFl4TXc9PQZDZD
p10
ssVnext
p11
Vhttps://graph.facebook.com/v2.6/143201606114212_209335856167453/reactions?access_token=599965930180946%7C575aa5390a4589483de7f8cf99702788&limit=1&after=TVRBd01EQTRNREU0TWpBd05qYzNPakUwTnpjNE1ESTNNVGM2TWpVME1EazJNVFl4TXc9PQZDZD
p12
ssVdata
p13
(lp14
(dp15
Vtype
p16
VLIKE
p17
sVid
p18
V1792940684316521
p19
sVname
p20
VHassam Waheed
p21
sassg20
V7 Shortcuts to Become Rich in Pakistan
p22
sVshares
p23
(dp24
Vcount
p25
I3
ssVlink
p26
Vhttp://www.wonderfulpoint.com/2016/06/7-shortcuts-to-become-rich-in-pakistan.html
p27
sVcreated_time
p28
V2016-10-28T11:19:36+0000
p29
sVmessage
p30
VPakistani shortcuts to be rich
p31
sg16
Vlink
p32
sg18
V143201606114212_209335856167453
p33
s.