(dp0
Vreactions
p1
(dp2
Vpaging
p3
(dp4
Vcursors
p5
(dp6
Vafter
p7
VTVRBd01EQXdOVEk1T1RBNE9EQTRPakUwTnpjMk9ERXlNVFk2TWpVME1EazJNVFl4TXc9PQZDZD
p8
sVbefore
p9
VTVRBd01EQXdOVEk1T1RBNE9EQTRPakUwTnpjMk9ERXlNVFk2TWpVME1EazJNVFl4TXc9PQZDZD
p10
ssVnext
p11
Vhttps://graph.facebook.com/v2.6/143201606114212_198430577257981/reactions?access_token=599965930180946%7C575aa5390a4589483de7f8cf99702788&limit=1&after=TVRBd01EQXdOVEk1T1RBNE9EQTRPakUwTnpjMk9ERXlNVFk2TWpVME1EazJNVFl4TXc9PQZDZD
p12
ssVdata
p13
(lp14
(dp15
Vtype
p16
VLIKE
p17
sVid
p18
V1440936049267378
p19
sVname
p20
VUmmama Khan
p21
sassg20
VTimeline Photos
p22
sVshares
p23
(dp24
Vcount
p25
I79
ssVlink
p26
Vhttps://www.facebook.com/wonderfulpakistan/photos/a.143285289439177.1073741828.143201606114212/198430577257981/?type=3
p27
sVcreated_time
p28
V2016-10-11T16:55:30+0000
p29
sVmessage
p30
VFairy Meadows, Gilgit-Baltistan. (Photo by Jehan Zeb)
p31
sg16
Vphoto
p32
sg18
V143201606114212_198430577257981
p33
s.