(dp0
Vreactions
p1
(dp2
Vpaging
p3
(dp4
Vcursors
p5
(dp6
Vafter
p7
VTVRBd01EQTRORGczTURNMk16QTNPakUwTnpjNE1qWTBPREk2TWpVME1EazJNVFl4TXc9PQZDZD
p8
sVbefore
p9
VTVRBd01EQTRORGczTURNMk16QTNPakUwTnpjNE1qWTBPREk2TWpVME1EazJNVFl4TXc9PQZDZD
p10
ssVnext
p11
Vhttps://graph.facebook.com/v2.6/143201606114212_206920779742294/reactions?access_token=599965930180946%7C575aa5390a4589483de7f8cf99702788&limit=1&after=TVRBd01EQTRORGczTURNMk16QTNPakUwTnpjNE1qWTBPREk2TWpVME1EazJNVFl4TXc9PQZDZD
p12
ssVdata
p13
(lp14
(dp15
Vtype
p16
VLIKE
p17
sVid
p18
V1635957730030446
p19
sVname
p20
VNaveed Ullah
p21
sassg20
VTimeline Photos
p22
sVshares
p23
(dp24
Vcount
p25
I93
ssVlink
p26
Vhttps://www.facebook.com/wonderfulpakistan/photos/a.143285289439177.1073741828.143201606114212/206920779742294/?type=3
p27
sVcomments
p28
(dp29
g3
(dp30
g5
(dp31
g7
VMQZDZD
p32
sg9
VMgZDZD
p33
sssg13
(lp34
(dp35
Vcreated_time
p36
V2016-10-24T18:22:42+0000
p37
sVmessage
p38
VKia baluchistan ya sindh me koi aese jgaa b ha jo bht height p ha n wha drive krna b bht difficult
p39
sVfrom
p40
(dp41
g20
VJannat Fatima
p42
sg18
V376361442705548
p43
ssg18
V206920779742294_207033373064368
p44
sa(dp45
g36
V2016-10-24T16:02:16+0000
p46
sg38
VMian Amir Abbas
p47
sg40
(dp48
g20
V\u0100bdu\u0142 M\u0101n\u0101n
p49
sg18
V861807047294751
p50
ssg18
V206920779742294_206932053074500
p51
sassg36
V2016-10-24T15:46:14+0000
p52
sg38
VAfter rain, Nushki Desert, Balochistan.
p53
sg16
Vphoto
p54
sg18
V143201606114212_206920779742294
p55
s.