(dp0
Vreactions
p1
(dp2
Vpaging
p3
(dp4
Vcursors
p5
(dp6
Vafter
p7
VTVRBd01EQTRNVFkxTlRrek9UTXpPakUwTnpjek9UazFOVFU2TWpVME1EazJNVFl4TXc9PQZDZD
p8
sVbefore
p9
VTVRBd01EQTRNVFkxTlRrek9UTXpPakUwTnpjek9UazFOVFU2TWpVME1EazJNVFl4TXc9PQZDZD
p10
ssVnext
p11
Vhttps://graph.facebook.com/v2.6/143201606114212_196013310833041/reactions?access_token=599965930180946%7C575aa5390a4589483de7f8cf99702788&summary=true&limit=1&after=TVRBd01EQTRNVFkxTlRrek9UTXpPakUwTnpjek9UazFOVFU2TWpVME1EazJNVFl4TXc9PQZDZD
p12
ssVdata
p13
(lp14
(dp15
Vtype
p16
VLIKE
p17
sVid
p18
V1821923891423113
p19
sVname
p20
VSyed Imran
p21
sasVsummary
p22
(dp23
Vtotal_count
p24
I652
sVviewer_reaction
p25
VNONE
p26
sssg20
VTimeline Photos
p27
sVshares
p28
(dp29
Vcount
p30
I87
ssVlink
p31
Vhttps://www.facebook.com/wonderfulpakistan/photos/a.143285289439177.1073741828.143201606114212/196013310833041/?type=3
p32
sVcomments
p33
(dp34
g3
(dp35
g5
(dp36
g7
VMQZDZD
p37
sg9
VMwZDZD
p38
sssg13
(lp39
(dp40
Vcreated_time
p41
V2016-10-08T02:30:42+0000
p42
sVmessage
p43
VAwesome
p44
sVfrom
p45
(dp46
g20
VAruna Yodha
p47
sg18
V1796079360675245
p48
ssg18
V196013310833041_196441780790194
p49
sa(dp50
g41
V2016-10-07T12:27:16+0000
p51
sg43
VZafir Aarish Salman Malik Behram Khan
p52
sg45
(dp53
g20
VMalik Hassan
p54
sg18
V1048399885258089
p55
ssg18
V196013310833041_196119670822405
p56
sa(dp57
g41
V2016-10-07T10:15:16+0000
p58
sg43
VILOEV  Pakistan
p59
sg45
(dp60
g20
VAsif Sikhani
p61
sg18
V213044089118098
p62
ssg18
V196013310833041_196073567493682
p63
sassg41
V2016-10-07T09:32:46+0000
p64
sg43
VCrystal clear water of Naltar Lake, Gilgit-Baltistan.
p65
sg16
Vphoto
p66
sg18
V143201606114212_196013310833041
p67
s.