(dp0
Vreactions
p1
(dp2
Vpaging
p3
(dp4
Vcursors
p5
(dp6
Vafter
p7
VTVRBd01EQTJOVEV5TURRek56ZAzNPakUwTnpjMk9UQXdNelU2TWpVME1EazJNVFl4TXc9PQZDZD
p8
sVbefore
p9
VTVRBd01EQTJOVEV5TURRek56ZAzNPakUwTnpjMk9UQXdNelU2TWpVME1EazJNVFl4TXc9PQZDZD
p10
ssVnext
p11
Vhttps://graph.facebook.com/v2.6/143201606114212_203273516773687/reactions?access_token=599965930180946%7C575aa5390a4589483de7f8cf99702788&limit=1&after=TVRBd01EQTJOVEV5TURRek56ZAzNPakUwTnpjMk9UQXdNelU2TWpVME1EazJNVFl4TXc9PQZDZD
p12
ssVdata
p13
(lp14
(dp15
Vtype
p16
VLIKE
p17
sVid
p18
V1967036030190113
p19
sVname
p20
VFaRah NooRr
p21
sassg20
VTimeline Photos
p22
sVshares
p23
(dp24
Vcount
p25
I238
ssVlink
p26
Vhttps://www.facebook.com/wonderfulpakistan/photos/a.143285289439177.1073741828.143201606114212/203273516773687/?type=3
p27
sVcomments
p28
(dp29
g3
(dp30
g5
(dp31
g7
VMgZDZD
p32
sg9
VNwZDZD
p33
sssg13
(lp34
(dp35
Vcreated_time
p36
V2016-10-20T18:58:20+0000
p37
sVmessage
p38
VMashallah hamara pakistan bht pyara he.allah pK is ko her buri nazar se. Bachae ameen
p39
sVfrom
p40
(dp41
g20
VZain Majid
p42
sg18
V314741098908826
p43
ssg18
V203273516773687_204321613335544
p44
sa(dp45
g36
V2016-10-20T11:00:31+0000
p46
sg38
VBeautiful
p47
sg40
(dp48
g20
VSajjad Abbasi
p49
sg18
V1727055807616883
p50
ssg18
V203273516773687_204067233360982
p51
sa(dp52
g36
V2016-10-20T03:46:59+0000
p53
sg38
VVery nice picture
p54
sg40
(dp55
g20
VHassan Hassan
p56
sg18
V156221671509665
p57
ssg18
V203273516773687_203874940046878
p58
sa(dp59
g36
V2016-10-20T07:40:22+0000
p60
sg38
VNic
p61
sg40
(dp62
g20
VShumail Malik
p63
sg18
V735750536576451
p64
ssg18
V203273516773687_203971960037176
p65
sa(dp66
g36
V2016-10-19T17:25:26+0000
p67
sg38
VBeautiful lack of Pakistan
p68
sg40
(dp69
g20
VMuhammad Hanif Lala
p70
sg18
V326293794416873
p71
ssg18
V203273516773687_203631610071211
p72
sa(dp73
g36
V2016-10-20T12:38:55+0000
p74
sg38
VTanzim Shuvon Chowdhury
p75
sg40
(dp76
g20
VIman Fatima
p77
sg18
V207593229679289
p78
ssg18
V203273516773687_204128663354839
p79
sassg36
V2016-10-19T17:21:33+0000
p80
sg38
VTarbela Lake, Haripur, KPK
p81
sg16
Vphoto
p82
sg18
V143201606114212_203273516773687
p83
s.