(dp0
Vreactions
p1
(dp2
Vpaging
p3
(dp4
Vcursors
p5
(dp6
Vafter
p7
VTVRBd01EQXdOVEk1T1RBNE9EQTRPakUwTnpjMk9ESTVNRFk2TWpVME1EazJNVFl4TXc9PQZDZD
p8
sVbefore
p9
VTVRBd01EQXdOVEk1T1RBNE9EQTRPakUwTnpjMk9ESTVNRFk2TWpVME1EazJNVFl4TXc9PQZDZD
p10
ssVnext
p11
Vhttps://graph.facebook.com/v2.6/143201606114212_196012454166460/reactions?access_token=599965930180946%7C575aa5390a4589483de7f8cf99702788&summary=true&limit=1&after=TVRBd01EQXdOVEk1T1RBNE9EQTRPakUwTnpjMk9ESTVNRFk2TWpVME1EazJNVFl4TXc9PQZDZD
p12
ssVdata
p13
(lp14
(dp15
Vtype
p16
VLIKE
p17
sVid
p18
V1440936049267378
p19
sVname
p20
VUmmama Khan
p21
sasVsummary
p22
(dp23
Vtotal_count
p24
I443
sVviewer_reaction
p25
VNONE
p26
sssg20
VTimeline Photos
p27
sVshares
p28
(dp29
Vcount
p30
I67
ssVlink
p31
Vhttps://www.facebook.com/wonderfulpakistan/photos/a.143285289439177.1073741828.143201606114212/196012454166460/?type=3
p32
sVcomments
p33
(dp34
g3
(dp35
g5
(dp36
g7
VMQZDZD
p37
sg9
VMwZDZD
p38
sssg13
(lp39
(dp40
Vcreated_time
p41
V2016-10-07T21:06:56+0000
p42
sVmessage
p43
VOmg heaven\U0001f62e
p44
sVfrom
p45
(dp46
g20
VZeeshan Wazir
p47
sg18
V1830673327165142
p48
ssg18
V196012454166460_196309600803412
p49
sa(dp50
g41
V2016-10-07T08:38:46+0000
p51
sg43
VWonderful place. Beauty of nature
p52
sg45
(dp53
g20
VSunrise Glory
p54
sg18
V1702854479988381
p55
ssg18
V196012454166460_196045627496476
p56
sa(dp57
g41
V2016-10-07T09:09:06+0000
p58
sg43
VMashaallah  all the  p,aces os pakistan is so beautiful.
p59
sg45
(dp60
g20
VShamima Shahjehan
p61
sg18
V193206401086446
p62
ssg18
V196012454166460_196054037495635
p63
sassg41
V2016-10-07T08:29:02+0000
p64
sg43
VKumrat Valley, Dir, KPK.
p65
sg16
Vphoto
p66
sg18
V143201606114212_196012454166460
p67
s.