(dp0
Vreactions
p1
(dp2
Vpaging
p3
(dp4
Vcursors
p5
(dp6
Vafter
p7
VTVRBd01EQXdOVEk1T1RBNE9EQTRPakUwTnpjMk9ERTJNVEk2TnpnNE5qUTRNRE0zT1RFek16RXkZD
p8
sVbefore
p9
VTVRBd01EQXdOVEk1T1RBNE9EQTRPakUwTnpjMk9ERTJNVEk2TnpnNE5qUTRNRE0zT1RFek16RXkZD
p10
ssVnext
p11
Vhttps://graph.facebook.com/v2.6/143201606114212_198417473925958/reactions?access_token=599965930180946%7C575aa5390a4589483de7f8cf99702788&summary=true&limit=1&after=TVRBd01EQXdOVEk1T1RBNE9EQTRPakUwTnpjMk9ERTJNVEk2TnpnNE5qUTRNRE0zT1RFek16RXkZD
p12
ssVdata
p13
(lp14
(dp15
Vtype
p16
VLOVE
p17
sVid
p18
V1440936049267378
p19
sVname
p20
VUmmama Khan
p21
sasVsummary
p22
(dp23
Vtotal_count
p24
I620
sVviewer_reaction
p25
VNONE
p26
sssg20
VTimeline Photos
p27
sVshares
p28
(dp29
Vcount
p30
I69
ssVlink
p31
Vhttps://www.facebook.com/wonderfulpakistan/photos/a.143285289439177.1073741828.143201606114212/198417473925958/?type=3
p32
sVcomments
p33
(dp34
g3
(dp35
g5
(dp36
g7
VMQZDZD
p37
sg9
VNQZDZD
p38
sssg13
(lp39
(dp40
Vcreated_time
p41
V2016-10-11T06:44:07+0000
p42
sVmessage
p43
VWonderful
p44
sVfrom
p45
(dp46
g20
VKamran Khan
p47
sg18
V1789850677937143
p48
ssg18
V198417473925958_198423387258700
p49
sa(dp50
g41
V2016-10-11T06:50:41+0000
p51
sg43
VDreamland \U0001f60d
p52
sg45
(dp53
g20
VCelina Ahmad
p54
sg18
V10154137066053523
p55
ssg18
V198417473925958_198425007258538
p56
sa(dp57
g41
V2016-10-11T07:06:01+0000
p58
sg43
V\U0001f60d\U0001f60d\U0001f60d
p59
sg45
(dp60
g20
VPakeeza Khan
p61
sg18
V1753438804936062
p62
ssg18
V198417473925958_198431433924562
p63
sa(dp64
g41
V2016-10-11T06:43:53+0000
p65
sg43
VNice
p66
sg45
(dp67
g20
VKamran Khan
p68
sg18
V1789850677937143
p69
ssg18
V198417473925958_198423330592039
p70
sa(dp71
g41
V2016-10-11T11:13:38+0000
p72
sg43
VGood
p73
sg45
(dp74
g20
VBetaaj Khans
p75
sg18
V241471432935090
p76
ssg18
V198417473925958_198525723915133
p77
sassg41
V2016-10-11T06:34:48+0000
p78
sg43
VAttabad Lake, Hunza, Gilgit-Baltistan. (Photo by Umair Adeeb)
p79
sg16
Vphoto
p80
sg18
V143201606114212_198417473925958
p81
s.