(dp0
Vreactions
p1
(dp2
Vpaging
p3
(dp4
Vcursors
p5
(dp6
Vafter
p7
VTVRBd01EQTJNREV3TnpFMU5USXpPakUwTnpjME1qZA3dPVFE2TWpVME1EazJNVFl4TXc9PQZDZD
p8
sVbefore
p9
VTVRBd01EQTJNREV3TnpFMU5USXpPakUwTnpjME1qZA3dPVFE2TWpVME1EazJNVFl4TXc9PQZDZD
p10
ssVnext
p11
Vhttps://graph.facebook.com/v2.6/143201606114212_194191144348591/reactions?access_token=599965930180946%7C575aa5390a4589483de7f8cf99702788&summary=true&limit=1&after=TVRBd01EQTJNREV3TnpFMU5USXpPakUwTnpjME1qZA3dPVFE2TWpVME1EazJNVFl4TXc9PQZDZD
p12
ssVdata
p13
(lp14
(dp15
Vtype
p16
VLIKE
p17
sVid
p18
V563035770573442
p19
sVname
p20
VReehan Ali Chandio
p21
sasVsummary
p22
(dp23
Vtotal_count
p24
I884
sVviewer_reaction
p25
VNONE
p26
sssg20
VTimeline Photos
p27
sVshares
p28
(dp29
Vcount
p30
I127
ssVlink
p31
Vhttps://www.facebook.com/wonderfulpakistan/photos/a.143285289439177.1073741828.143201606114212/194191144348591/?type=3
p32
sVcomments
p33
(dp34
g3
(dp35
g5
(dp36
g7
VMQZDZD
p37
sg9
VNgZDZD
p38
sssg13
(lp39
(dp40
Vcreated_time
p41
V2016-10-04T17:01:20+0000
p42
sVmessage
p43
VMesmerizing scene
p44
sVfrom
p45
(dp46
g20
VFazal Ur Rehman
p47
sg18
V188610041590131
p48
ssg18
V194191144348591_194410847659954
p49
sa(dp50
g41
V2016-10-05T17:57:09+0000
p51
sg43
VBeautiful.
p52
sg45
(dp53
g20
VShamima Shahjehan
p54
sg18
V193206401086446
p55
ssg18
V194191144348591_195027154264990
p56
sa(dp57
g41
V2016-10-04T16:20:09+0000
p58
sg43
VSo beautiful view
p59
sg45
(dp60
g20
VIdress Khan
p61
sg18
V1818356405116807
p62
ssg18
V194191144348591_194392787661760
p63
sa(dp64
g41
V2016-10-05T10:26:47+0000
p65
sg43
VWonderful pakistan so beautiful    pakistan .thinks
p66
sg45
(dp67
g20
VAdeel Ahmaf
p68
sg18
V213511902404876
p69
ssg18
V194191144348591_194787090955663
p70
sa(dp71
g41
V2016-10-05T00:52:18+0000
p72
sg43
V\U0001f61c i\U0001f49d like\U0001f623 your\U0001f62a photo\u000a\u000a:* Ap BhT Yaaaad Aty Ho :P >> Wonderful Pakistan\u000a:D Wednesday : 5 - October - 2016\u000a:3 Jani Like BaCk B Kia Kro Wonderful Pakistan\u000a-_- like And Comment Late >> 44 minute :D 0 Sec :v \u000a  :|] Post liked by >> Aryan Khan\u000a  :|] BOT Powered By  B| SUMIT KUMAR B|  <3 For Personal And VIP BOT Site Contact On Whatsapp >> +919534701051\u000aBOT Site >> sumitbot.blogspot,com
p73
sg45
(dp74
g20
VAryan Khan
p75
sg18
V1805001056437494
p76
ssg18
V194191144348591_194597420974630
p77
sassg41
V2016-10-04T16:08:19+0000
p78
sg43
VMushkpuri Hotel in winters, Nathiagali. (Photo by Abrar Cheema)
p79
sg16
Vphoto
p80
sg18
V143201606114212_194191144348591
p81
s.