(dp0
Vreactions
p1
(dp2
Vpaging
p3
(dp4
Vcursors
p5
(dp6
Vafter
p7
VTVRBd01EQXhOemsxTWpJNU1ETTJPakUwTnpjMk9EQTVPVE02TWpVME1EazJNVFl4TXc9PQZDZD
p8
sVbefore
p9
VTVRBd01EQXhOemsxTWpJNU1ETTJPakUwTnpjMk9EQTVPVE02TWpVME1EazJNVFl4TXc9PQZDZD
p10
ssVnext
p11
Vhttps://graph.facebook.com/v2.6/143201606114212_196012000833172/reactions?access_token=599965930180946%7C575aa5390a4589483de7f8cf99702788&summary=true&limit=1&after=TVRBd01EQXhOemsxTWpJNU1ETTJPakUwTnpjMk9EQTVPVE02TWpVME1EazJNVFl4TXc9PQZDZD
p12
ssVdata
p13
(lp14
(dp15
Vtype
p16
VLIKE
p17
sVid
p18
V1094446987291798
p19
sVname
p20
VMuzamil Soomro
p21
sasVsummary
p22
(dp23
Vtotal_count
p24
I1087
sVviewer_reaction
p25
VNONE
p26
sssg20
VTimeline Photos
p27
sVshares
p28
(dp29
Vcount
p30
I122
ssVlink
p31
Vhttps://www.facebook.com/wonderfulpakistan/photos/a.143285289439177.1073741828.143201606114212/196012000833172/?type=3
p32
sVcomments
p33
(dp34
g3
(dp35
g5
(dp36
g7
VMQZDZD
p37
sg9
VOQZDZD
p38
sssg13
(lp39
(dp40
Vcreated_time
p41
V2016-10-07T09:25:42+0000
p42
sVmessage
p43
VMashallah
p44
sVfrom
p45
(dp46
g20
VBetaaj Khans
p47
sg18
V241471432935090
p48
ssg18
V196012000833172_196060207495018
p49
sa(dp50
g41
V2016-10-07T07:51:49+0000
p51
sg43
VMashaallah
p52
sg45
(dp53
g20
VShamima Shahjehan
p54
sg18
V193206401086446
p55
ssg18
V196012000833172_196026517498387
p56
sa(dp57
g41
V2016-10-07T09:48:06+0000
p58
sg43
V\u0645\u0627\u0634\u0627\u0621\u0627\u0644\u0644\u06c1
p59
sg45
(dp60
g20
VIftikhar Ahmad Shah
p61
sg18
V190433818073129
p62
ssg18
V196012000833172_196066174161088
p63
sa(dp64
g41
V2016-10-08T09:11:38+0000
p65
sg43
VMash Allah
p66
sg45
(dp67
g20
VNazir Baloshi
p68
sg18
V1884661685095612
p69
ssg18
V196012000833172_196604630773909
p70
sa(dp71
g41
V2016-10-07T07:22:23+0000
p72
sg43
VVery beautiful. ....
p73
sg45
(dp74
g20
VFarhan Shah
p75
sg18
V396935173976777
p76
ssg18
V196012000833172_196014827499556
p77
sa(dp78
g41
V2016-10-07T08:41:03+0000
p79
sg43
VAmazing
p80
sg45
(dp81
g20
VFaisal Awan
p82
sg18
V401619520226440
p83
ssg18
V196012000833172_196046450829727
p84
sa(dp85
g41
V2016-10-07T15:03:06+0000
p86
sg43
VSo beautiful
p87
sg45
(dp88
g20
VZaree Shahid
p89
sg18
V1811466319100120
p90
ssg18
V196012000833172_196182404149465
p91
sa(dp92
g41
V2016-10-07T07:18:08+0000
p93
sg43
V<3
p94
sg45
(dp95
g20
VTalha Hussain Khan
p96
sg18
V554834374714982
p97
ssg18
V196012000833172_196012424166463
p98
sa(dp99
g41
V2016-10-07T07:38:00+0000
p100
sg43
VZoya ShAikh
p101
sg45
(dp102
g20
VMuhammad Khan
p103
sg18
V1069897499794420
p104
ssg18
V196012000833172_196023744165331
p105
sassg41
V2016-10-07T07:17:28+0000
p106
sg43
VFaisal Masjid, Islamabad. (Photo by Ali Awais)
p107
sg16
Vphoto
p108
sg18
V143201606114212_196012000833172
p109
s.