(dp0
Vreactions
p1
(dp2
Vpaging
p3
(dp4
Vcursors
p5
(dp6
Vafter
p7
VTVRBd01EQTBOVGMwTkRFNU1UWTFPakUwTnpZANE9EWTRNekk2TWpVME1EazJNVFl4TXc9PQZDZD
p8
sVbefore
p9
VTVRBd01EQTBOVGMwTkRFNU1UWTFPakUwTnpZANE9EWTRNekk2TWpVME1EazJNVFl4TXc9PQZDZD
p10
ssVnext
p11
Vhttps://graph.facebook.com/v2.6/143201606114212_194673557633683/reactions?access_token=599965930180946%7C575aa5390a4589483de7f8cf99702788&summary=true&limit=1&after=TVRBd01EQTBOVGMwTkRFNU1UWTFPakUwTnpZANE9EWTRNekk2TWpVME1EazJNVFl4TXc9PQZDZD
p12
ssVdata
p13
(lp14
(dp15
Vtype
p16
VLIKE
p17
sVid
p18
V680149282147546
p19
sVname
p20
VA Shah Harifal
p21
sasVsummary
p22
(dp23
Vtotal_count
p24
I757
sVviewer_reaction
p25
VNONE
p26
sssg20
VTimeline Photos
p27
sVshares
p28
(dp29
Vcount
p30
I149
ssVlink
p31
Vhttps://www.facebook.com/wonderfulpakistan/photos/a.143285289439177.1073741828.143201606114212/194673557633683/?type=3
p32
sVcomments
p33
(dp34
g3
(dp35
g5
(dp36
g7
VMQZDZD
p37
sg9
VNQZDZD
p38
sssg13
(lp39
(dp40
Vcreated_time
p41
V2016-10-06T08:04:25+0000
p42
sVmessage
p43
V\u0645\u06cc\u0631\u0627 \u062f\u06cc\u0633 \u0645\u06cc\u0631\u06cc \u062c\u0646\u062a
p44
sVfrom
p45
(dp46
g20
VIftikhar Ahmad Shah
p47
sg18
V190433818073129
p48
ssg18
V194673557633683_195369580897414
p49
sa(dp50
g41
V2016-10-05T18:15:27+0000
p51
sg43
VSubhan Allah
p52
sg45
(dp53
g20
VFarhat Saeed
p54
sg18
V532735336900252
p55
ssg18
V194673557633683_195033834264322
p56
sa(dp57
g41
V2016-10-05T17:01:43+0000
p58
sg43
VLook seem peaceful place.
p59
sg45
(dp60
g20
VSunrise Glory
p61
sg18
V1702854479988381
p62
ssg18
V194673557633683_195004984267207
p63
sa(dp64
g41
V2016-10-06T08:47:58+0000
p65
sg43
Vvery beautyful place
p66
sg45
(dp67
g20
VMuhammad Asif
p68
sg18
V1779603465639587
p69
ssg18
V194673557633683_195384090895963
p70
sassg41
V2016-10-05T16:58:02+0000
p71
sg43
VFairy Meadows, Gilgit-Baltistan. (Photo by Muhammad Raza)
p72
sg16
Vphoto
p73
sg18
V143201606114212_194673557633683
p74
s.