(dp0
Vreactions
p1
(dp2
Vpaging
p3
(dp4
Vcursors
p5
(dp6
Vafter
p7
VTVRBd01EQXdOVEk1T1RBNE9EQTRPakUwTnpjMk9ESTRPVE02TWpVME1EazJNVFl4TXc9PQZDZD
p8
sVbefore
p9
VTVRBd01EQXdOVEk1T1RBNE9EQTRPakUwTnpjMk9ESTRPVE02TWpVME1EazJNVFl4TXc9PQZDZD
p10
ssVnext
p11
Vhttps://graph.facebook.com/v2.6/143201606114212_196016537499385/reactions?access_token=599965930180946%7C575aa5390a4589483de7f8cf99702788&summary=true&limit=1&after=TVRBd01EQXdOVEk1T1RBNE9EQTRPakUwTnpjMk9ESTRPVE02TWpVME1EazJNVFl4TXc9PQZDZD
p12
ssVdata
p13
(lp14
(dp15
Vtype
p16
VLIKE
p17
sVid
p18
V1440936049267378
p19
sVname
p20
VUmmama Khan
p21
sasVsummary
p22
(dp23
Vtotal_count
p24
I917
sVviewer_reaction
p25
VNONE
p26
sssg20
VTimeline Photos
p27
sVshares
p28
(dp29
Vcount
p30
I139
ssVlink
p31
Vhttps://www.facebook.com/wonderfulpakistan/photos/a.143285289439177.1073741828.143201606114212/196016537499385/?type=3
p32
sVcomments
p33
(dp34
g3
(dp35
g5
(dp36
g7
VMQZDZD
p37
sg9
VNAZDZD
p38
sssg13
(lp39
(dp40
Vcreated_time
p41
V2016-10-07T12:13:40+0000
p42
sVmessage
p43
VBeautiful
p44
sVfrom
p45
(dp46
g20
VShamima Shahjehan
p47
sg18
V193206401086446
p48
ssg18
V196016537499385_196115667489472
p49
sa(dp50
g41
V2016-10-08T03:23:30+0000
p51
sg43
VMashallah
p52
sg45
(dp53
g20
VHamza Sheikh Abbasi
p54
sg18
V200195660424159
p55
ssg18
V196016537499385_196462387454800
p56
sa(dp57
g41
V2016-10-07T16:59:15+0000
p58
sg43
VVery Beautiful view place.
p59
sg45
(dp60
g20
VAtta Khan Bangash
p61
sg18
V277252839336017
p62
ssg18
V196016537499385_196221374145568
p63
sa(dp64
g41
V2016-10-08T05:13:56+0000
p65
sg43
VAllah ki shaan
p66
sg45
(dp67
g20
VAbdullah Zahid
p68
sg18
V141953922940636
p69
ssg18
V196016537499385_196508897450149
p70
sassg41
V2016-10-07T11:35:38+0000
p71
sg43
VAttabad Lake, Upper Hunza, Gilgit-Baltistan.
p72
sg16
Vphoto
p73
sg18
V143201606114212_196016537499385
p74
s.