(dp0
Vreactions
p1
(dp2
Vpaging
p3
(dp4
Vcursors
p5
(dp6
Vafter
p7
VTVRBd01EQTRORGczTURNMk16QTNPakUwTnpjNE1qWTBNREE2TWpVME1EazJNVFl4TXc9PQZDZD
p8
sVbefore
p9
VTVRBd01EQTRORGczTURNMk16QTNPakUwTnpjNE1qWTBNREE2TWpVME1EazJNVFl4TXc9PQZDZD
p10
ssVnext
p11
Vhttps://graph.facebook.com/v2.6/143201606114212_207206233047082/reactions?access_token=599965930180946%7C575aa5390a4589483de7f8cf99702788&limit=1&after=TVRBd01EQTRORGczTURNMk16QTNPakUwTnpjNE1qWTBNREE2TWpVME1EazJNVFl4TXc9PQZDZD
p12
ssVdata
p13
(lp14
(dp15
Vtype
p16
VLIKE
p17
sVid
p18
V1635957730030446
p19
sVname
p20
VNaveed Ullah
p21
sassg20
VTimeline Photos
p22
sVshares
p23
(dp24
Vcount
p25
I74
ssVlink
p26
Vhttps://www.facebook.com/wonderfulpakistan/photos/a.143285289439177.1073741828.143201606114212/207206233047082/?type=3
p27
sVcomments
p28
(dp29
g3
(dp30
g5
(dp31
g7
VMQZDZD
p32
sg9
VNwZDZD
p33
sssg13
(lp34
(dp35
Vcreated_time
p36
V2016-10-25T15:06:16+0000
p37
sVmessage
p38
VMy dream land
p39
sVfrom
p40
(dp41
g20
VKareem Bakhsh
p42
sg18
V192611254518946
p43
ssg18
V207206233047082_207552946345744
p44
sa(dp45
g36
V2016-10-25T14:21:40+0000
p46
sg38
VWonderful view
p47
sg40
(dp48
g20
VSunrise Glory
p49
sg18
V1702854479988381
p50
ssg18
V207206233047082_207534763014229
p51
sa(dp52
g36
V2016-10-25T18:12:56+0000
p53
sg38
VNice\U0001f60d
p54
sg40
(dp55
g20
VBetaaj Khans
p56
sg18
V241471432935090
p57
ssg18
V207206233047082_207624733005232
p58
sa(dp59
g36
V2016-10-25T19:26:13+0000
p60
sg38
VSplendid \u2764
p61
sg40
(dp62
g20
VAneeqa Hassan
p63
sg18
V1630323493659960
p64
ssg18
V207206233047082_207661216334917
p65
sa(dp66
g36
V2016-10-25T23:24:49+0000
p67
sg38
VBeautiful
p68
sg40
(dp69
g20
VSu Shin Chen
p70
sg18
V217597881985822
p71
ssg18
V207206233047082_207761289658243
p72
sa(dp73
g36
V2016-10-25T13:39:19+0000
p74
sg38
VPakistan zinda baad...
p75
sg40
(dp76
g20
VAami Yaar
p77
sg18
V664736653675980
p78
ssg18
V207206233047082_207519739682398
p79
sa(dp80
g36
V2016-10-25T14:36:19+0000
p81
sg38
V\u0100bdu\u0142 M\u0101n\u0101n
p82
sg40
(dp83
g20
VMian Amir Abbas
p84
sg18
V1138199656270793
p85
ssg18
V207206233047082_207538623013843
p86
sassg36
V2016-10-25T13:37:53+0000
p87
sg38
VSwat Valley, KPK. (Photo by Jan Alam)
p88
sg16
Vphoto
p89
sg18
V143201606114212_207206233047082
p90
s.