(dp0
Vreactions
p1
(dp2
Vpaging
p3
(dp4
Vcursors
p5
(dp6
Vafter
p7
VTVRBd01EQXdOVEk1T1RBNE9EQTRPakUwTnpjMk9ESXhNams2TWpVME1EazJNVFl4TXc9PQZDZD
p8
sVbefore
p9
VTVRBd01EQXdOVEk1T1RBNE9EQTRPakUwTnpjMk9ESXhNams2TWpVME1EazJNVFl4TXc9PQZDZD
p10
ssVnext
p11
Vhttps://graph.facebook.com/v2.6/143201606114212_196020174165688/reactions?access_token=599965930180946%7C575aa5390a4589483de7f8cf99702788&summary=true&limit=1&after=TVRBd01EQXdOVEk1T1RBNE9EQTRPakUwTnpjMk9ESXhNams2TWpVME1EazJNVFl4TXc9PQZDZD
p12
ssVdata
p13
(lp14
(dp15
Vtype
p16
VLIKE
p17
sVid
p18
V1440936049267378
p19
sVname
p20
VUmmama Khan
p21
sasVsummary
p22
(dp23
Vtotal_count
p24
I862
sVviewer_reaction
p25
VNONE
p26
sssg20
VTimeline Photos
p27
sVshares
p28
(dp29
Vcount
p30
I144
ssVlink
p31
Vhttps://www.facebook.com/wonderfulpakistan/photos/a.143285289439177.1073741828.143201606114212/196020174165688/?type=3
p32
sVcomments
p33
(dp34
g3
(dp35
g5
(dp36
g7
VMQZDZD
p37
sg9
VMQZDZD
p38
sssg13
(lp39
(dp40
Vcreated_time
p41
V2016-10-07T18:04:28+0000
p42
sVmessage
p43
VJust Love It.
p44
sVfrom
p45
(dp46
g20
VSaman Murtaza
p47
sg18
V1560615850901817
p48
ssg18
V196020174165688_196239604143745
p49
sassg41
V2016-10-07T17:41:59+0000
p50
sg43
VKhaplu, Gilgit Baltistan. (Photo by Qammer Wazir Photography)
p51
sg16
Vphoto
p52
sg18
V143201606114212_196020174165688
p53
s.