(dp0
Vreactions
p1
(dp2
Vpaging
p3
(dp4
Vcursors
p5
(dp6
Vafter
p7
VTVRBd01EQTJOell3TnpFMU1qSTJPakUwTnpjeU5ERTROemc2TWpVME1EazJNVFl4TXc9PQZDZD
p8
sVbefore
p9
VTVRBd01EQTJOell3TnpFMU1qSTJPakUwTnpjeU5ERTROemc2TWpVME1EazJNVFl4TXc9PQZDZD
p10
ssVnext
p11
Vhttps://graph.facebook.com/v2.6/143201606114212_193701537730885/reactions?access_token=599965930180946%7C575aa5390a4589483de7f8cf99702788&summary=true&limit=1&after=TVRBd01EQTJOell3TnpFMU1qSTJPakUwTnpjeU5ERTROemc2TWpVME1EazJNVFl4TXc9PQZDZD
p12
ssVdata
p13
(lp14
(dp15
Vtype
p16
VLIKE
p17
sVid
p18
V1874265406142132
p19
sVname
p20
VAamir Saeed
p21
sasVsummary
p22
(dp23
Vtotal_count
p24
I21
sVviewer_reaction
p25
VNONE
p26
sssg20
VPakistani Diet Plan to Lose 5kg Weight in a Week
p27
sVlink
p28
Vhttp://www.wonderfulpoint.com/2015/09/pakistani-diet-plan-to-lose-5kg-weight.html
p29
sVcreated_time
p30
V2016-10-03T17:37:00+0000
p31
sVmessage
p32
VPakistani Diet Plan to Lose 5kg Weight in a Week
p33
sg16
Vlink
p34
sg18
V143201606114212_193701537730885
p35
s.