(dp0
Vreactions
p1
(dp2
Vpaging
p3
(dp4
Vcursors
p5
(dp6
Vafter
p7
VTVRBd01EQTRPREEyTmpnMU5UWTNPakUwTnpjME5EZA3lOelE2TWpVME1EazJNVFl4TXc9PQZDZD
p8
sVbefore
p9
VTVRBd01EQTRPREEyTmpnMU5UWTNPakUwTnpjME5EZA3lOelE2TWpVME1EazJNVFl4TXc9PQZDZD
p10
ssVnext
p11
Vhttps://graph.facebook.com/v2.6/143201606114212_203266263441079/reactions?access_token=599965930180946%7C575aa5390a4589483de7f8cf99702788&limit=1&after=TVRBd01EQTRPREEyTmpnMU5UWTNPakUwTnpjME5EZA3lOelE2TWpVME1EazJNVFl4TXc9PQZDZD
p12
ssVdata
p13
(lp14
(dp15
Vtype
p16
VLIKE
p17
sVid
p18
V1610741945896013
p19
sVname
p20
VQasim Malik
p21
sassg20
VTimeline Photos
p22
sVshares
p23
(dp24
Vcount
p25
I41
ssVlink
p26
Vhttps://www.facebook.com/wonderfulpakistan/photos/a.143285289439177.1073741828.143201606114212/203266263441079/?type=3
p27
sVcreated_time
p28
V2016-10-19T04:02:54+0000
p29
sVmessage
p30
VCliff Diving in Arabian Sea, Charna Island, Karachi. (Photo by Khurram Saeed Khan)
p31
sg16
Vphoto
p32
sg18
V143201606114212_203266263441079
p33
s.