(dp0
Vreactions
p1
(dp2
Vpaging
p3
(dp4
Vcursors
p5
(dp6
Vafter
p7
VTVRBd01EQTFOVFl3TURNeE5EUTJPakUwTnpjNE9UZAzJNVFE2TWpVME1EazJNVFl4TXc9PQZDZD
p8
sVbefore
p9
VTVRBd01EQTFOVFl3TURNeE5EUTJPakUwTnpjNE9UZAzJNVFE2TWpVME1EazJNVFl4TXc9PQZDZD
p10
ssVnext
p11
Vhttps://graph.facebook.com/v2.6/143201606114212_211318412635864/reactions?access_token=599965930180946%7C575aa5390a4589483de7f8cf99702788&limit=1&after=TVRBd01EQTFOVFl3TURNeE5EUTJPakUwTnpjNE9UZAzJNVFE2TWpVME1EazJNVFl4TXc9PQZDZD
p12
ssVdata
p13
(lp14
(dp15
Vtype
p16
VLIKE
p17
sVid
p18
V532407073621289
p19
sVname
p20
VChaudhary Awais Altaf
p21
sassg20
VTimeline Photos
p22
sVshares
p23
(dp24
Vcount
p25
I20
ssVlink
p26
Vhttps://www.facebook.com/wonderfulpakistan/photos/a.143285289439177.1073741828.143201606114212/211318412635864/?type=3
p27
sVcomments
p28
(dp29
g3
(dp30
g5
(dp31
g7
VMQZDZD
p32
sg9
VMQZDZD
p33
sssg13
(lp34
(dp35
Vcreated_time
p36
V2016-10-31T04:29:47+0000
p37
sVmessage
p38
VGood Morning Pakistan from upper Michigan
p39
sVfrom
p40
(dp41
g20
VAnn Smith
p42
sg18
V1134346919980145
p43
ssg18
V211318412635864_211322615968777
p44
sassg36
V2016-10-31T04:13:46+0000
p45
sg38
VFoggy Morning in Lahore, today.
p46
sg16
Vphoto
p47
sg18
V143201606114212_211318412635864
p48
s.