(dp0
Vreactions
p1
(dp2
Vpaging
p3
(dp4
Vcursors
p5
(dp6
Vafter
p7
VTVRBd01EQTRORGczTURNMk16QTNPakUwTnpjNE1qWTFNREk2TWpVME1EazJNVFl4TXc9PQZDZD
p8
sVbefore
p9
VTVRBd01EQTRORGczTURNMk16QTNPakUwTnpjNE1qWTFNREk2TWpVME1EazJNVFl4TXc9PQZDZD
p10
ssVnext
p11
Vhttps://graph.facebook.com/v2.6/143201606114212_205427246558314/reactions?access_token=599965930180946%7C575aa5390a4589483de7f8cf99702788&limit=1&after=TVRBd01EQTRORGczTURNMk16QTNPakUwTnpjNE1qWTFNREk2TWpVME1EazJNVFl4TXc9PQZDZD
p12
ssVdata
p13
(lp14
(dp15
Vtype
p16
VLIKE
p17
sVid
p18
V1635957730030446
p19
sVname
p20
VNaveed Ullah
p21
sassg20
VTimeline Photos
p22
sVshares
p23
(dp24
Vcount
p25
I352
ssVlink
p26
Vhttps://www.facebook.com/wonderfulpakistan/photos/a.143285289439177.1073741828.143201606114212/205427246558314/?type=3
p27
sVcomments
p28
(dp29
g3
(dp30
g5
(dp31
g7
VNAZDZD
p32
sg9
VMTMZD
p33
sssg13
(lp34
(dp35
Vcreated_time
p36
V2016-10-22T11:40:25+0000
p37
sVmessage
p38
VOld or new pic ?
p39
sVfrom
p40
(dp41
g20
V\u0100bdu\u0142 M\u0101n\u0101n
p42
sg18
V861807047294751
p43
ssg18
V205427246558314_205455889888783
p44
sa(dp45
g36
V2016-10-22T15:19:41+0000
p46
sg38
VWant to go again
p47
sg40
(dp48
g20
VNina Sharif
p49
sg18
V2106251666267724
p50
ssg18
V205427246558314_205588686542170
p51
sa(dp52
g36
V2016-10-22T13:08:49+0000
p53
sg38
VWaw :)
p54
sg40
(dp55
g20
VMuhammad Hakim
p56
sg18
V1164223246970003
p57
ssg18
V205427246558314_205508946550144
p58
sa(dp59
g36
V2016-10-22T16:20:19+0000
p60
sg38
VZabardast
p61
sg40
(dp62
g20
VShamima Shahjehan
p63
sg18
V193206401086446
p64
ssg18
V205427246558314_205622619872110
p65
sa(dp66
g36
V2016-10-22T11:21:04+0000
p67
sg38
VWo nice
p68
sg40
(dp69
g20
VBatool Batool
p70
sg18
V646924092144424
p71
ssg18
V205427246558314_205448163222889
p72
sa(dp73
g36
V2016-10-23T17:36:46+0000
p74
sg38
VWow
p75
sg40
(dp76
g20
VAzam Khan
p77
sg18
V231381303946787
p78
ssg18
V205427246558314_206320649802307
p79
sa(dp80
g36
V2016-10-22T20:55:26+0000
p81
sg38
VBohat khubsurat
p82
sg40
(dp83
g20
VKhurram Rajpoot
p84
sg18
V1681067665555874
p85
ssg18
V205427246558314_205745256526513
p86
sa(dp87
g36
V2016-10-22T17:49:40+0000
p88
sg38
VMuhammad Tufail\u000aSa d khyal d?
p89
sg40
(dp90
g20
VFaisal Hayat
p91
sg18
V2149513781939822
p92
ssg18
V205427246558314_205664649867907
p93
sa(dp94
g36
V2016-10-22T11:39:30+0000
p95
sg38
V\u0100bdu\u0142 M\u0101n\u0101n o god
p96
sg40
(dp97
g20
VMian Amir Abbas
p98
sg18
V1138199656270793
p99
ssg18
V205427246558314_205455126555526
p100
sassg36
V2016-10-22T10:51:34+0000
p101
sg38
VSharda, Neelam Valley, Azad Kashmir.
p102
sg16
Vphoto
p103
sg18
V143201606114212_205427246558314
p104
s.