(dp0
Vreactions
p1
(dp2
Vpaging
p3
(dp4
Vcursors
p5
(dp6
Vafter
p7
VTVRBd01EQTJNREV3TnpFMU5USXpPakUwTnpjME1qZA3dNVEk2TWpVME1EazJNVFl4TXc9PQZDZD
p8
sVbefore
p9
VTVRBd01EQTJNREV3TnpFMU5USXpPakUwTnpjME1qZA3dNVEk2TWpVME1EazJNVFl4TXc9PQZDZD
p10
ssVnext
p11
Vhttps://graph.facebook.com/v2.6/143201606114212_194674194300286/reactions?access_token=599965930180946%7C575aa5390a4589483de7f8cf99702788&summary=true&limit=1&after=TVRBd01EQTJNREV3TnpFMU5USXpPakUwTnpjME1qZA3dNVEk2TWpVME1EazJNVFl4TXc9PQZDZD
p12
ssVdata
p13
(lp14
(dp15
Vtype
p16
VLIKE
p17
sVid
p18
V563035770573442
p19
sVname
p20
VReehan Ali Chandio
p21
sasVsummary
p22
(dp23
Vtotal_count
p24
I1933
sVviewer_reaction
p25
VNONE
p26
sssg20
VTimeline Photos
p27
sVshares
p28
(dp29
Vcount
p30
I384
ssVlink
p31
Vhttps://www.facebook.com/wonderfulpakistan/photos/a.143285289439177.1073741828.143201606114212/194674194300286/?type=3
p32
sVcomments
p33
(dp34
g3
(dp35
g5
(dp36
g7
VMQZDZD
p37
sg9
VMjAZD
p38
sssg13
(lp39
(dp40
Vcreated_time
p41
V2016-10-05T21:42:38+0000
p42
sVmessage
p43
VLvly view awesome..... My most favourite place... Aksar sham ko yha ja k beth jati ti me..... Thandi hawa roshniya or tanhaii <3
p44
sVfrom
p45
(dp46
g20
VMaRyam Asif
p47
sg18
V1609671936000466
p48
ssg18
V194674194300286_195118264255879
p49
sa(dp50
g41
V2016-10-06T10:04:00+0000
p51
sg43
VMasha Allah
p52
sg45
(dp53
g20
VSajid Sahil
p54
sg18
V225407014547887
p55
ssg18
V194674194300286_195427590891613
p56
sa(dp57
g41
V2016-10-06T04:07:08+0000
p58
sg43
VBeautiful view
p59
sg45
(dp60
g20
VIdress Khan
p61
sg18
V1818356405116807
p62
ssg18
V194674194300286_195277300906642
p63
sa(dp64
g41
V2016-10-08T09:22:38+0000
p65
sg43
VVery nice
p66
sg45
(dp67
g20
VWaheed Irshad
p68
sg18
V577700189087984
p69
ssg18
V194674194300286_196609747440064
p70
sa(dp71
g41
V2016-10-06T07:49:29+0000
p72
sg43
VBeautiful
p73
sg45
(dp74
g20
VDukhter Amirullah Kaker
p75
sg18
V1668006846824228
p76
ssg18
V194674194300286_195363807564658
p77
sa(dp78
g41
V2016-10-06T15:00:34+0000
p79
sg43
VVery nice
p80
sg45
(dp81
g20
VAslam Muhammad
p82
sg18
V333242563708247
p83
ssg18
V194674194300286_195600950874277
p84
sa(dp85
g41
V2016-10-06T09:19:30+0000
p86
sg43
VI love it
p87
sg45
(dp88
g20
VSanwal Fayaz
p89
sg18
V186517831802487
p90
ssg18
V194674194300286_195407654226940
p91
sa(dp92
g41
V2016-10-06T04:37:35+0000
p93
sg43
VWowoo beauti fuull place
p94
sg45
(dp95
g20
VGulnaz Aslam
p96
sg18
V403467976707575
p97
ssg18
V194674194300286_195289964238709
p98
sa(dp99
g41
V2016-10-06T09:25:01+0000
p100
sg43
VMashallah
p101
sg45
(dp102
g20
VHamza Sheikh Abbasi
p103
sg18
V200195660424159
p104
ssg18
V194674194300286_195409840893388
p105
sa(dp106
g41
V2016-10-06T05:21:57+0000
p107
sg43
VPretty sight
p108
sg45
(dp109
g20
VMuhammad Ali Ali
p110
sg18
V183491528774001
p111
ssg18
V194674194300286_195304480903924
p112
sa(dp113
g41
V2016-10-06T11:48:45+0000
p114
sg43
VWao zabardast.
p115
sg45
(dp116
g20
VAoun Uzair Khan
p117
sg18
V196245837486107
p118
ssg18
V194674194300286_195485474219158
p119
sa(dp120
g41
V2016-10-06T14:38:27+0000
p121
sg43
VMy fvrt view
p122
sg45
(dp123
g20
VMalik Asad
p124
sg18
V1111876405565241
p125
ssg18
V194674194300286_195587217542317
p126
sa(dp127
g41
V2016-10-06T10:57:23+0000
p128
sg43
VYa kashmis k prince ne pakistanio ko bohut chode the
p129
sg45
(dp130
g20
VSagar Mahanty
p131
sg18
V616119178589707
p132
ssg18
V194674194300286_195451194222586
p133
sa(dp134
g41
V2016-10-06T04:02:38+0000
p135
sg43
V
p136
sg45
(dp137
g20
VAsif Ali
p138
sg18
V2151963971694405
p139
ssg18
V194674194300286_195274084240297
p140
sa(dp141
g41
V2016-10-06T14:43:22+0000
p142
sg43
VAmazing
p143
sg45
(dp144
g20
VHamza Aslam
p145
sg18
V210418626059555
p146
ssg18
V194674194300286_195590790875293
p147
sa(dp148
g41
V2016-10-06T12:17:58+0000
p149
sg43
VSo beautiful place
p150
sg45
(dp151
g20
VSoraj Soraj
p152
sg18
V216299668798841
p153
ssg18
V194674194300286_195502430884129
p154
sa(dp155
g41
V2016-10-06T04:02:59+0000
p156
sg43
VBeautifully place
p157
sg45
(dp158
g20
VAsif Ali
p159
sg18
V2151963971694405
p160
ssg18
V194674194300286_195275044240201
p161
sa(dp162
g41
V2016-10-06T07:14:53+0000
p163
sg43
VBeauti of Pakistan
p164
sg45
(dp165
g20
VIftikhar Ahmad Shah
p166
sg18
V190433818073129
p167
ssg18
V194674194300286_195352110899161
p168
sa(dp169
g41
V2016-10-06T12:57:50+0000
p170
sg43
VBiutifull Pakistan
p171
sg45
(dp172
g20
VMaroof Khan Khattak
p173
sg18
V1683850318592141
p174
ssg18
V194674194300286_195525744215131
p175
sa(dp176
g41
V2016-10-06T11:03:10+0000
p177
sg43
VBeautiful pakistan.
p178
sg45
(dp179
g20
VShamima Shahjehan
p180
sg18
V193206401086446
p181
ssg18
V194674194300286_195454554222250
p182
sassg41
V2016-10-05T18:57:11+0000
p183
sg43
VBahrain, Swat Valley, KPK. (Photo by Akbar Ali Asif)
p184
sg16
Vphoto
p185
sg18
V143201606114212_194674194300286
p186
s.