(dp0
Vreactions
p1
(dp2
Vpaging
p3
(dp4
Vcursors
p5
(dp6
Vafter
p7
VTVRBd01EQXhOemsxTWpJNU1ETTJPakUwTnpjMk9EQTROakk2TWpVME1EazJNVFl4TXc9PQZDZD
p8
sVbefore
p9
VTVRBd01EQXhOemsxTWpJNU1ETTJPakUwTnpjMk9EQTROakk2TWpVME1EazJNVFl4TXc9PQZDZD
p10
ssVnext
p11
Vhttps://graph.facebook.com/v2.6/143201606114212_196532304114475/reactions?access_token=599965930180946%7C575aa5390a4589483de7f8cf99702788&summary=true&limit=1&after=TVRBd01EQXhOemsxTWpJNU1ETTJPakUwTnpjMk9EQTROakk2TWpVME1EazJNVFl4TXc9PQZDZD
p12
ssVdata
p13
(lp14
(dp15
Vtype
p16
VLIKE
p17
sVid
p18
V1094446987291798
p19
sVname
p20
VMuzamil Soomro
p21
sasVsummary
p22
(dp23
Vtotal_count
p24
I497
sVviewer_reaction
p25
VNONE
p26
sssg20
VTimeline Photos
p27
sVshares
p28
(dp29
Vcount
p30
I56
ssVlink
p31
Vhttps://www.facebook.com/wonderfulpakistan/photos/a.143285289439177.1073741828.143201606114212/196532304114475/?type=3
p32
sVcomments
p33
(dp34
g3
(dp35
g5
(dp36
g7
VMQZDZD
p37
sg9
VMQZDZD
p38
sssg13
(lp39
(dp40
Vcreated_time
p41
V2016-10-09T02:40:47+0000
p42
sVmessage
p43
VNic wazer
p44
sVfrom
p45
(dp46
g20
VWaseem Abbas
p47
sg18
V335347270175868
p48
ssg18
V196532304114475_197100894057616
p49
sassg41
V2016-10-08T10:30:58+0000
p50
sg43
VMysterious Rocks near Near Khaplu Bridge, Gilgit-Baltistan. (Photo by Qammer Wazir Photography)
p51
sg16
Vphoto
p52
sg18
V143201606114212_196532304114475
p53
s.