(dp0
Vreactions
p1
(dp2
Vpaging
p3
(dp4
Vcursors
p5
(dp6
Vafter
p7
VTVRBd01ERXpPVGd5TkRBek1qQTBPakUwTnpjMk56WTVNREk2TnpnNE5qUTRNRE0zT1RFek16RXkZD
p8
sVbefore
p9
VTVRBd01ERXpPVGd5TkRBek1qQTBPakUwTnpjMk56WTVNREk2TnpnNE5qUTRNRE0zT1RFek16RXkZD
p10
ssVnext
p11
Vhttps://graph.facebook.com/v2.6/143201606114212_194669737634065/reactions?access_token=599965930180946%7C575aa5390a4589483de7f8cf99702788&summary=true&limit=1&after=TVRBd01ERXpPVGd5TkRBek1qQTBPakUwTnpjMk56WTVNREk2TnpnNE5qUTRNRE0zT1RFek16RXkZD
p12
ssVdata
p13
(lp14
(dp15
Vtype
p16
VLOVE
p17
sVid
p18
V115153402294073
p19
sVname
p20
VInam Ul Haq
p21
sasVsummary
p22
(dp23
Vtotal_count
p24
I310
sVviewer_reaction
p25
VNONE
p26
sssg20
VTimeline Photos
p27
sVshares
p28
(dp29
Vcount
p30
I12
ssVlink
p31
Vhttps://www.facebook.com/wonderfulpakistan/photos/a.143285289439177.1073741828.143201606114212/194669737634065/?type=3
p32
sVcomments
p33
(dp34
g3
(dp35
g5
(dp36
g7
VMQZDZD
p37
sg9
VMgZDZD
p38
sssg13
(lp39
(dp40
Vcreated_time
p41
V2016-10-06T12:25:10+0000
p42
sVmessage
p43
VBeautiful
p44
sVfrom
p45
(dp46
g20
VShamima Shahjehan
p47
sg18
V193206401086446
p48
ssg18
V194669737634065_195504740883898
p49
sa(dp50
g41
V2016-10-28T17:49:13+0000
p51
sg43
Vpakistan is really a pak  land
p52
sg45
(dp53
g20
VInam Ul Haq
p54
sg18
V115153402294073
p55
ssg18
V194669737634065_209545822813123
p56
sassg41
V2016-10-05T07:52:32+0000
p57
sg43
VRawal Lake, Islamabad. (Photo by Ambreen Arbab)
p58
sg16
Vphoto
p59
sg18
V143201606114212_194669737634065
p60
s.