(dp0
Vreactions
p1
(dp2
Vpaging
p3
(dp4
Vcursors
p5
(dp6
Vafter
p7
VTVRBd01EQTVNREE0TlRZAeU9EUXhPakUwTnpjek1qYzJNRFk2TWpVME1EazJNVFl4TXc9PQZDZD
p8
sVbefore
p9
VTVRBd01EQTVNREE0TlRZAeU9EUXhPakUwTnpjek1qYzJNRFk2TWpVME1EazJNVFl4TXc9PQZDZD
p10
ssVnext
p11
Vhttps://graph.facebook.com/v2.6/143201606114212_193363127764726/reactions?access_token=599965930180946%7C575aa5390a4589483de7f8cf99702788&summary=true&limit=1&after=TVRBd01EQTVNREE0TlRZAeU9EUXhPakUwTnpjek1qYzJNRFk2TWpVME1EazJNVFl4TXc9PQZDZD
p12
ssVdata
p13
(lp14
(dp15
Vtype
p16
VLIKE
p17
sVid
p18
V1681370778839858
p19
sVname
p20
VMureed Mureed Mureed Abbas
p21
sasVsummary
p22
(dp23
Vtotal_count
p24
I1277
sVviewer_reaction
p25
VNONE
p26
sssg20
VTimeline Photos
p27
sVshares
p28
(dp29
Vcount
p30
I92
ssVlink
p31
Vhttps://www.facebook.com/wonderfulpakistan/photos/a.143285289439177.1073741828.143201606114212/193363127764726/?type=3
p32
sVcomments
p33
(dp34
g3
(dp35
g5
(dp36
g7
VMQZDZD
p37
sg9
VNAZDZD
p38
sssg13
(lp39
(dp40
Vcreated_time
p41
V2016-10-03T14:34:25+0000
p42
sVmessage
p43
VVery nice
p44
sVfrom
p45
(dp46
g20
VAslam Muhammad
p47
sg18
V333242563708247
p48
ssg18
V193363127764726_193705261063846
p49
sa(dp50
g41
V2016-10-03T14:59:20+0000
p51
sg43
VMashaallah.
p52
sg45
(dp53
g20
VShamima Shahjehan
p54
sg18
V193206401086446
p55
ssg18
V193363127764726_193720341062338
p56
sa(dp57
g41
V2016-10-03T15:24:52+0000
p58
sg43
Vwow nice
p59
sg45
(dp60
g20
VSaqib Khan
p61
sg18
V157568448040285
p62
ssg18
V193363127764726_193731437727895
p63
sa(dp64
g41
V2016-10-03T15:32:18+0000
p65
sg43
VMa xan kia tu.
p66
sg45
(dp67
g20
VIrshad Ahmad
p68
sg18
V1667679393545216
p69
ssg18
V193363127764726_193733554394350
p70
sassg41
V2016-10-03T14:15:24+0000
p71
sg43
VSunset view at Badshahi Masjid, Lahore. (Photo by Muhammad Ashar Photography)
p72
sg16
Vphoto
p73
sg18
V143201606114212_193363127764726
p74
s.