(dp0
Vreactions
p1
(dp2
Vpaging
p3
(dp4
Vcursors
p5
(dp6
Vafter
p7
VTVRBd01EQXhOemsxTWpJNU1ETTJPakUwTnpjMk9EQTNOalk2TWpVME1EazJNVFl4TXc9PQZDZD
p8
sVbefore
p9
VTVRBd01EQXhOemsxTWpJNU1ETTJPakUwTnpjMk9EQTNOalk2TWpVME1EazJNVFl4TXc9PQZDZD
p10
ssVnext
p11
Vhttps://graph.facebook.com/v2.6/143201606114212_196536904114015/reactions?access_token=599965930180946%7C575aa5390a4589483de7f8cf99702788&summary=true&limit=1&after=TVRBd01EQXhOemsxTWpJNU1ETTJPakUwTnpjMk9EQTNOalk2TWpVME1EazJNVFl4TXc9PQZDZD
p12
ssVdata
p13
(lp14
(dp15
Vtype
p16
VLIKE
p17
sVid
p18
V1094446987291798
p19
sVname
p20
VMuzamil Soomro
p21
sasVsummary
p22
(dp23
Vtotal_count
p24
I385
sVviewer_reaction
p25
VNONE
p26
sssg20
VTimeline Photos
p27
sVshares
p28
(dp29
Vcount
p30
I48
ssVlink
p31
Vhttps://www.facebook.com/wonderfulpakistan/photos/a.143285289439177.1073741828.143201606114212/196536904114015/?type=3
p32
sVcomments
p33
(dp34
g3
(dp35
g5
(dp36
g7
VMQZDZD
p37
sg9
VNAZDZD
p38
sssg13
(lp39
(dp40
Vcreated_time
p41
V2016-10-09T07:30:42+0000
p42
sVmessage
p43
VBeautiful
p44
sVfrom
p45
(dp46
g20
VRiaz Hussain Akhtar
p47
sg18
V322857831422218
p48
ssg18
V196536904114015_197212660713106
p49
sa(dp50
g41
V2016-10-09T03:55:59+0000
p51
sg43
V
p52
sg45
(dp53
g20
VQmar Rahman
p54
sg18
V1803596356563908
p55
ssg18
V196536904114015_197129547388084
p56
sa(dp57
g41
V2016-10-08T19:48:25+0000
p58
sg43
VSo beautiful
p59
sg45
(dp60
g20
VFazal Ur Rehman
p61
sg18
V188610041590131
p62
ssg18
V196536904114015_196946084073097
p63
sa(dp64
g41
V2016-10-09T03:55:51+0000
p65
sg43
VOld is old
p66
sg45
(dp67
g20
VQmar Rahman
p68
sg18
V1803596356563908
p69
ssg18
V196536904114015_197129514054754
p70
sassg41
V2016-10-08T17:43:08+0000
p71
sg43
VAlmost 200 year old Wooden House in Leepa Valley, Azad Kashmir. (Photo by Noman Subhani)
p72
sg16
Vphoto
p73
sg18
V143201606114212_196536904114015
p74
s.