(dp0
Vreactions
p1
(dp2
Vpaging
p3
(dp4
Vcursors
p5
(dp6
Vafter
p7
VTVRBd01EQTFPREV4T1RZAek1ESTFPakUwTnpZAME1UUTROemM2TWpVME1EazJNVFl4TXc9PQZDZD
p8
sVbefore
p9
VTVRBd01EQTFPREV4T1RZAek1ESTFPakUwTnpZAME1UUTROemM2TWpVME1EazJNVFl4TXc9PQZDZD
p10
ssVnext
p11
Vhttps://graph.facebook.com/v2.6/143201606114212_193361441098228/reactions?access_token=599965930180946%7C575aa5390a4589483de7f8cf99702788&summary=true&limit=1&after=TVRBd01EQTFPREV4T1RZAek1ESTFPakUwTnpZAME1UUTROemM2TWpVME1EazJNVFl4TXc9PQZDZD
p12
ssVdata
p13
(lp14
(dp15
Vtype
p16
VLIKE
p17
sVid
p18
V593651667505227
p19
sVname
p20
VAbdulhanan Tariq
p21
sasVsummary
p22
(dp23
Vtotal_count
p24
I1213
sVviewer_reaction
p25
VNONE
p26
sssg20
VTimeline Photos
p27
sVshares
p28
(dp29
Vcount
p30
I185
ssVlink
p31
Vhttps://www.facebook.com/wonderfulpakistan/photos/a.143285289439177.1073741828.143201606114212/193361441098228/?type=3
p32
sVcomments
p33
(dp34
g3
(dp35
g5
(dp36
g7
VMQZDZD
p37
sg9
VNgZDZD
p38
sssg13
(lp39
(dp40
Vcreated_time
p41
V2016-10-04T04:37:23+0000
p42
sVmessage
p43
VMasha Allah very beautiful Pakistan
p44
sVfrom
p45
(dp46
g20
VAhmed Qureshi
p47
sg18
V214688392295821
p48
ssg18
V193361441098228_194077994359906
p49
sa(dp50
g41
V2016-10-03T10:16:11+0000
p51
sg43
VIts in my hometown thesil choa saiden shah \u000aKhandoa
p52
sg45
(dp53
g20
V\u0631\u0627\u062c\u0647 \u062d\u0633\u06cc\u0628 \u0633\u0631\u0648\u0631 \u062c\u0646\u062c\u0648\u0639\u0647
p54
sg18
V671614749679328
p55
ssg18
V193361441098228_193543074413398
p56
sa(dp57
g41
V2016-10-03T13:53:51+0000
p58
sg43
VBeautiful.
p59
sg45
(dp60
g20
VShamima Shahjehan
p61
sg18
V193206401086446
p62
ssg18
V193361441098228_193681321066240
p63
sa(dp64
g41
V2016-10-03T12:21:33+0000
p65
sg43
VVery nice
p66
sg45
(dp67
g20
VAslam Muhammad
p68
sg18
V333242563708247
p69
ssg18
V193361441098228_193618631072509
p70
sa(dp71
g41
V2016-10-03T09:45:40+0000
p72
sg43
VHammad Ali ye kidr hai
p73
sg45
(dp74
g20
VMohsin Javed
p75
sg18
V621135071399932
p76
ssg18
V193361441098228_193525304415175
p77
sa(dp78
g41
V2016-10-04T01:02:03+0000
p79
sg43
VLovely Pakistan
p80
sg45
(dp81
g20
VFazal Ur Rehman
p82
sg18
V188610041590131
p83
ssg18
V193361441098228_193980107703028
p84
sassg41
V2016-10-03T09:09:16+0000
p85
sg43
VSwaik Lake, Kalar Kahar. (Photo by Usman Sharif)
p86
sg16
Vphoto
p87
sg18
V143201606114212_193361441098228
p88
s.