(dp0
Vreactions
p1
(dp2
Vpaging
p3
(dp4
Vcursors
p5
(dp6
Vafter
p7
VTVRBd01EQTBOVGMwTkRFNU1UWTFPakUwTnpZANE9EWTVOalU2TWpVME1EazJNVFl4TXc9PQZDZD
p8
sVbefore
p9
VTVRBd01EQTBOVGMwTkRFNU1UWTFPakUwTnpZANE9EWTVOalU2TWpVME1EazJNVFl4TXc9PQZDZD
p10
ssVnext
p11
Vhttps://graph.facebook.com/v2.6/143201606114212_194193251015047/reactions?access_token=599965930180946%7C575aa5390a4589483de7f8cf99702788&summary=true&limit=1&after=TVRBd01EQTBOVGMwTkRFNU1UWTFPakUwTnpZANE9EWTVOalU2TWpVME1EazJNVFl4TXc9PQZDZD
p12
ssVdata
p13
(lp14
(dp15
Vtype
p16
VLIKE
p17
sVid
p18
V680149282147546
p19
sVname
p20
VA Shah Harifal
p21
sasVsummary
p22
(dp23
Vtotal_count
p24
I862
sVviewer_reaction
p25
VNONE
p26
sssg20
VTimeline Photos
p27
sVshares
p28
(dp29
Vcount
p30
I168
ssVlink
p31
Vhttps://www.facebook.com/wonderfulpakistan/photos/a.143285289439177.1073741828.143201606114212/194193251015047/?type=3
p32
sVcomments
p33
(dp34
g3
(dp35
g5
(dp36
g7
VMQZDZD
p37
sg9
VNgZDZD
p38
sssg13
(lp39
(dp40
Vcreated_time
p41
V2016-10-04T17:20:55+0000
p42
sVmessage
p43
VFascinating land!
p44
sVfrom
p45
(dp46
g20
VLal Hussain
p47
sg18
V323720737997287
p48
ssg18
V194193251015047_194422534325452
p49
sa(dp50
g41
V2016-10-05T16:18:04+0000
p51
sg43
VSubkhanallah
p52
sg45
(dp53
g20
VShafqat Khan
p54
sg18
V744002739098705
p55
ssg18
V194193251015047_194983887602650
p56
sa(dp57
g41
V2016-10-04T19:00:27+0000
p58
sg43
VBeautiful view
p59
sg45
(dp60
g20
VIdress Khan
p61
sg18
V1818356405116807
p62
ssg18
V194193251015047_194462840988088
p63
sa(dp64
g41
V2016-10-04T17:24:05+0000
p65
sg43
V\U0001f49a\U0001f49b\u2764
p66
sg45
(dp67
g20
VPakeeza Khan
p68
sg18
V1753438804936062
p69
ssg18
V194193251015047_194423294325376
p70
sa(dp71
g41
V2016-10-04T17:27:13+0000
p72
sg43
V\u2661
p73
sg45
(dp74
g20
VMuhammad Khan
p75
sg18
V1069897499794420
p76
ssg18
V194193251015047_194424117658627
p77
sa(dp78
g41
V2016-10-04T18:47:46+0000
p79
sg43
VTanzim Shuvon Chowdhury
p80
sg45
(dp81
g20
VIman Fatima
p82
sg18
V207593229679289
p83
ssg18
V194193251015047_194458727655166
p84
sassg41
V2016-10-04T17:14:35+0000
p85
sg43
VFairy Meadows, Gilgit-Baltistan. (Photo by Munib Sheikh)
p86
sg16
Vphoto
p87
sg18
V143201606114212_194193251015047
p88
s.