(dp0
Vreactions
p1
(dp2
Vpaging
p3
(dp4
Vcursors
p5
(dp6
Vafter
p7
VTVRBd01EQTVNREE0TlRZAeU9EUXhPakUwTnpjek1qYzJNVEk2TWpVME1EazJNVFl4TXc9PQZDZD
p8
sVbefore
p9
VTVRBd01EQTVNREE0TlRZAeU9EUXhPakUwTnpjek1qYzJNVEk2TWpVME1EazJNVFl4TXc9PQZDZD
p10
ssVnext
p11
Vhttps://graph.facebook.com/v2.6/143201606114212_193362004431505/reactions?access_token=599965930180946%7C575aa5390a4589483de7f8cf99702788&summary=true&limit=1&after=TVRBd01EQTVNREE0TlRZAeU9EUXhPakUwTnpjek1qYzJNVEk2TWpVME1EazJNVFl4TXc9PQZDZD
p12
ssVdata
p13
(lp14
(dp15
Vtype
p16
VLIKE
p17
sVid
p18
V1681370778839858
p19
sVname
p20
VMureed Mureed Mureed Abbas
p21
sasVsummary
p22
(dp23
Vtotal_count
p24
I1965
sVviewer_reaction
p25
VNONE
p26
sssg20
VTimeline Photos
p27
sVshares
p28
(dp29
Vcount
p30
I347
ssVlink
p31
Vhttps://www.facebook.com/wonderfulpakistan/photos/a.143285289439177.1073741828.143201606114212/193362004431505/?type=3
p32
sVcomments
p33
(dp34
g3
(dp35
g5
(dp36
g7
VMgZDZD
p37
sg9
VMTQZD
p38
sssg13
(lp39
(dp40
Vcreated_time
p41
V2016-10-04T02:05:37+0000
p42
sVmessage
p43
V\u062e\u0648\u0628\u0635\u0648\u0631\u062a\u06cc \u06a9\u06cc \u0627\u0646\u062a\u0647\u0627 \u0646\u0647\u06cc\u06ba \u0647\u06d2 \u000a\u0628\u0633 ! \u0627\u0645\u0646 \u0686\u0627\u0647\u0626\u06d2
p44
sVfrom
p45
(dp46
g20
VSher Ayaz Dawar Eppi
p47
sg18
V1796314100584785
p48
ssg18
V193362004431505_194010971033275
p49
sa(dp50
g41
V2016-10-03T13:52:02+0000
p51
sg43
VBeautiful place.
p52
sg45
(dp53
g20
VShamima Shahjehan
p54
sg18
V193206401086446
p55
ssg18
V193362004431505_193680157733023
p56
sa(dp57
g41
V2016-10-03T15:16:11+0000
p58
sg43
V\u0628\u06be\u0626\u062a \u062e\u0648\u0628\u0635\u0648\u0631\u062a \u06c1\u06d2
p59
sg45
(dp60
g20
VIshtiaq Khan
p61
sg18
V1667963150168765
p62
ssg18
V193362004431505_193728397728199
p63
sa(dp64
g41
V2016-10-03T19:10:10+0000
p65
sg43
VMashallah
p66
sg45
(dp67
g20
VHamza Sheikh Abbasi
p68
sg18
V200195660424159
p69
ssg18
V193362004431505_193844371049935
p70
sa(dp71
g41
V2016-10-03T18:01:45+0000
p72
sg43
VBeautiful
p73
sg45
(dp74
g20
VSajjad Abbasi
p75
sg18
V1727055807616883
p76
ssg18
V193362004431505_193810837719955
p77
sa(dp78
g41
V2016-10-03T13:17:23+0000
p79
sg43
VNice
p80
sg45
(dp81
g20
VHamid Sarwar
p82
sg18
V222689298151509
p83
ssg18
V193362004431505_193654954402210
p84
sa(dp85
g41
V2016-10-03T13:18:06+0000
p86
sg43
VBeautiful day
p87
sg45
(dp88
g20
VJehangir Azim
p89
sg18
V215230825576443
p90
ssg18
V193362004431505_193655217735517
p91
sa(dp92
g41
V2016-10-03T13:13:19+0000
p93
sg43
V\U0001f60d
p94
sg45
(dp95
g20
VBiLal RaAj
p96
sg18
V1852185038360092
p97
ssg18
V193362004431505_193653427735696
p98
sa(dp99
g41
V2016-10-04T06:44:18+0000
p100
sg43
VBeautiful
p101
sg45
(dp102
g20
VMaryam Doll
p103
sg18
V332441920456908
p104
ssg18
V193362004431505_194124797688559
p105
sa(dp106
g41
V2016-10-03T16:50:13+0000
p107
sg43
VA beautiful sight, I have visited it
p108
sg45
(dp109
g20
VAkram Ali
p110
sg18
V709356265882687
p111
ssg18
V193362004431505_193776527723386
p112
sa(dp113
g41
V2016-10-04T16:06:02+0000
p114
sg43
VNice
p115
sg45
(dp116
g20
VAsif Hussain
p117
sg18
V271850306549598
p118
ssg18
V193362004431505_194386077662431
p119
sa(dp120
g41
V2016-10-03T22:59:00+0000
p121
sg43
VTanzim Shuvon Chowdhury .
p122
sg45
(dp123
g20
VIman Fatima
p124
sg18
V207593229679289
p125
ssg18
V193362004431505_193932184374487
p126
sa(dp127
g41
V2016-10-03T18:10:44+0000
p128
sg43
Vnice.pakistan kisi si kam hai
p129
sg45
(dp130
g20
VGhulam Muhammad Khan
p131
sg18
V195607604218818
p132
ssg18
V193362004431505_193813731052999
p133
sassg41
V2016-10-03T13:11:01+0000
p134
sg43
VShangrilla Resorts, Skardu, Gilgit-Baltistan. (Photo by Munib Sheikh)
p135
sg16
Vphoto
p136
sg18
V143201606114212_193362004431505
p137
s.