(dp0
Vreactions
p1
(dp2
Vpaging
p3
(dp4
Vcursors
p5
(dp6
Vafter
p7
VTVRBd01EQTRORGczTURNMk16QTNPakUwTnpjNE1qWTBPVEE2TWpVME1EazJNVFl4TXc9PQZDZD
p8
sVbefore
p9
VTVRBd01EQTRORGczTURNMk16QTNPakUwTnpjNE1qWTBPVEE2TWpVME1EazJNVFl4TXc9PQZDZD
p10
ssVnext
p11
Vhttps://graph.facebook.com/v2.6/143201606114212_206070569827315/reactions?access_token=599965930180946%7C575aa5390a4589483de7f8cf99702788&limit=1&after=TVRBd01EQTRORGczTURNMk16QTNPakUwTnpjNE1qWTBPVEE2TWpVME1EazJNVFl4TXc9PQZDZD
p12
ssVdata
p13
(lp14
(dp15
Vtype
p16
VLIKE
p17
sVid
p18
V1635957730030446
p19
sVname
p20
VNaveed Ullah
p21
sassg20
VTimeline Photos
p22
sVshares
p23
(dp24
Vcount
p25
I65
ssVlink
p26
Vhttps://www.facebook.com/wonderfulpakistan/photos/a.143285289439177.1073741828.143201606114212/206070569827315/?type=3
p27
sVcreated_time
p28
V2016-10-23T11:48:03+0000
p29
sVmessage
p30
VGhizer Valley, Gilgit-Baltistan
p31
sg16
Vphoto
p32
sg18
V143201606114212_206070569827315
p33
s.