(dp0
Vreactions
p1
(dp2
Vpaging
p3
(dp4
Vcursors
p5
(dp6
Vafter
p7
VTVRBd01ERXdOVFExTVRnd01qVTVPakUwTnpjMU1EYzNNalk2TnpnNE5qUTRNRE0zT1RFek16RXkZD
p8
sVbefore
p9
VTVRBd01ERXdOVFExTVRnd01qVTVPakUwTnpjMU1EYzNNalk2TnpnNE5qUTRNRE0zT1RFek16RXkZD
p10
ssVnext
p11
Vhttps://graph.facebook.com/v2.6/143201606114212_193701091064263/reactions?access_token=599965930180946%7C575aa5390a4589483de7f8cf99702788&summary=true&limit=1&after=TVRBd01ERXdOVFExTVRnd01qVTVPakUwTnpjMU1EYzNNalk2TnpnNE5qUTRNRE0zT1RFek16RXkZD
p12
ssVdata
p13
(lp14
(dp15
Vtype
p16
VLOVE
p17
sVid
p18
V349149088779928
p19
sVname
p20
VAoun DK
p21
sasVsummary
p22
(dp23
Vtotal_count
p24
I107
sVviewer_reaction
p25
VNONE
p26
sssg20
VA Village where Shia-Sunni are Offering Namaz in Same Masjid for 300 years
p27
sVshares
p28
(dp29
Vcount
p30
I16
ssVlink
p31
Vhttp://www.wonderfulpoint.com/2015/10/a-village-where-shia-sunni-are-offering.html
p32
sVcomments
p33
(dp34
g3
(dp35
g5
(dp36
g7
VMQZDZD
p37
sg9
VMwZDZD
p38
sssg13
(lp39
(dp40
Vcreated_time
p41
V2016-10-03T20:05:21+0000
p42
sVmessage
p43
VAppreciated  \U0001f44d\U0001f44d
p44
sVfrom
p45
(dp46
g20
VAneeqa Hassan
p47
sg18
V1630323493659960
p48
ssg18
V193701091064263_193868627714176
p49
sa(dp50
g41
V2016-10-04T16:45:52+0000
p51
sg43
VVery good
p52
sg45
(dp53
g20
VMalik Siddiq
p54
sg18
V1671547843158161
p55
ssg18
V193701091064263_194402437660795
p56
sa(dp57
g41
V2016-10-03T21:51:27+0000
p58
sg43
VWhat is meant  by namaz? Could you please explain to me?Thanks
p59
sg45
(dp60
g20
VTotok Suharso
p61
sg18
V186867838432923
p62
ssg18
V193701091064263_193908254376880
p63
sassg41
V2016-10-03T15:36:01+0000
p64
sg43
VA Village where Shia-Sunni are Offering Namaz in Same Masjid for 300 years
p65
sg16
Vlink
p66
sg18
V143201606114212_193701091064263
p67
s.