(dp0
Vreactions
p1
(dp2
Vpaging
p3
(dp4
Vcursors
p5
(dp6
Vafter
p7
VTVRBd01EQTRORGczTURNMk16QTNPakUwTnpjNE1qWTBNRGs2TWpVME1EazJNVFl4TXc9PQZDZD
p8
sVbefore
p9
VTVRBd01EQTRORGczTURNMk16QTNPakUwTnpjNE1qWTBNRGs2TWpVME1EazJNVFl4TXc9PQZDZD
p10
ssVnext
p11
Vhttps://graph.facebook.com/v2.6/143201606114212_207205959713776/reactions?access_token=599965930180946%7C575aa5390a4589483de7f8cf99702788&limit=1&after=TVRBd01EQTRORGczTURNMk16QTNPakUwTnpjNE1qWTBNRGs2TWpVME1EazJNVFl4TXc9PQZDZD
p12
ssVdata
p13
(lp14
(dp15
Vtype
p16
VLIKE
p17
sVid
p18
V1635957730030446
p19
sVname
p20
VNaveed Ullah
p21
sassg20
VTimeline Photos
p22
sVshares
p23
(dp24
Vcount
p25
I186
ssVlink
p26
Vhttps://www.facebook.com/wonderfulpakistan/photos/a.143285289439177.1073741828.143201606114212/207205959713776/?type=3
p27
sVcomments
p28
(dp29
g3
(dp30
g5
(dp31
g7
VMQZDZD
p32
sg9
VOAZDZD
p33
sssg13
(lp34
(dp35
Vcreated_time
p36
V2016-10-25T16:46:06+0000
p37
sVmessage
p38
V
p39
sVfrom
p40
(dp41
g20
VZeeshan Khan Shinwari
p42
sg18
V1771212503130485
p43
ssg18
V207205959713776_207594369674935
p44
sa(dp45
g36
V2016-10-25T09:39:26+0000
p46
sg38
VPeaceful place
p47
sg40
(dp48
g20
VSunrise Glory
p49
sg18
V1702854479988381
p50
ssg18
V207205959713776_207405686360470
p51
sa(dp52
g36
V2016-10-25T14:28:20+0000
p53
sg38
VSuch a place like heaven
p54
sg40
(dp55
g20
V\u0100bdu\u0142 M\u0101n\u0101n
p56
sg18
V861807047294751
p57
ssg18
V207205959713776_207536493014056
p58
sa(dp59
g36
V2016-10-26T09:24:02+0000
p60
sg38
VI like this swat kalam vally
p61
sg40
(dp62
g20
VJ\u0171\u015b\u0165 Bilal
p63
sg18
V1792815614299589
p64
ssg18
V207205959713776_207969502970755
p65
sa(dp66
g36
V2016-10-25T17:26:44+0000
p67
sg38
VMashaallah
p68
sg40
(dp69
g20
VShamima Shahjehan
p70
sg18
V193206401086446
p71
ssg18
V207205959713776_207610776339961
p72
sa(dp73
g36
V2016-10-26T17:26:53+0000
p74
sg38
VVerey nice
p75
sg40
(dp76
g20
VMazher Rana
p77
sg18
V1812277975709275
p78
ssg18
V207205959713776_208205839613788
p79
sa(dp80
g36
V2016-10-25T11:49:02+0000
p81
sg38
V\u0100bdu\u0142 M\u0101n\u0101n
p82
sg40
(dp83
g20
VMian Amir Abbas
p84
sg18
V1138199656270793
p85
ssg18
V207205959713776_207471609687211
p86
sa(dp87
g36
V2016-10-25T16:43:25+0000
p88
sg38
VMiss u Bahrain
p89
sg40
(dp90
g20
VZeeshan Khan Shinwari
p91
sg18
V1771212503130485
p92
ssg18
V207205959713776_207593439675028
p93
sassg36
V2016-10-25T09:36:28+0000
p94
sg38
VBahrain, Swat Valley, KPK. (Photo by Jan Alam)
p95
sg16
Vphoto
p96
sg18
V143201606114212_207205959713776
p97
s.