(dp0
Vreactions
p1
(dp2
Vpaging
p3
(dp4
Vcursors
p5
(dp6
Vafter
p7
VTVRBd01EQXdOVEk1T1RBNE9EQTRPakUwTnpjMk56ZA3hNRGM2TWpVME1EazJNVFl4TXc9PQZDZD
p8
sVbefore
p9
VTVRBd01EQXdOVEk1T1RBNE9EQTRPakUwTnpjMk56ZA3hNRGM2TWpVME1EazJNVFl4TXc9PQZDZD
p10
ssVnext
p11
Vhttps://graph.facebook.com/v2.6/143201606114212_201997123567993/reactions?access_token=599965930180946%7C575aa5390a4589483de7f8cf99702788&limit=1&after=TVRBd01EQXdOVEk1T1RBNE9EQTRPakUwTnpjMk56ZA3hNRGM2TWpVME1EazJNVFl4TXc9PQZDZD
p12
ssVdata
p13
(lp14
(dp15
Vtype
p16
VLIKE
p17
sVid
p18
V1440936049267378
p19
sVname
p20
VUmmama Khan
p21
sassg20
VTimeline Photos
p22
sVshares
p23
(dp24
Vcount
p25
I77
ssVlink
p26
Vhttps://www.facebook.com/wonderfulpakistan/photos/a.143285289439177.1073741828.143201606114212/201997123567993/?type=3
p27
sVcomments
p28
(dp29
g3
(dp30
g5
(dp31
g7
VMQZDZD
p32
sg9
VNQZDZD
p33
sssg13
(lp34
(dp35
Vcreated_time
p36
V2016-10-18T10:31:15+0000
p37
sVmessage
p38
VWao beautiful.
p39
sVfrom
p40
(dp41
g20
VShamima Shahjehan
p42
sg18
V193206401086446
p43
ssg18
V201997123567993_202778146823224
p44
sa(dp45
g36
V2016-10-18T11:04:01+0000
p46
sg38
V\u0645\u0627\u0634\u0627\u0627\u0644\u0644\u06c1 \u0628\u06c1\u062a \u062e\u0648\u0628\u0635\u0648\u0631\u062a \u0639\u0644\u0627\u0642\u06c1 \u06c1\u06d2
p47
sg40
(dp48
g20
VTahir Nazeer
p49
sg18
V2141271819431459
p50
ssg18
V201997123567993_202798450154527
p51
sa(dp52
g36
V2016-10-18T07:51:54+0000
p53
sg38
VSaif Mazhar foran challo yaha
p54
sg40
(dp55
g20
VNida Farrukh
p56
sg18
V10155229981787069
p57
ssg18
V201997123567993_202717900162582
p58
sa(dp59
g36
V2016-10-18T04:11:59+0000
p60
sg38
V\u0100bdu\u0142 M\u0101n\u0101n
p61
sg40
(dp62
g20
VMian Amir Abbas
p63
sg18
V1138199656270793
p64
ssg18
V201997123567993_202631523504553
p65
sa(dp66
g36
V2016-10-17T22:51:57+0000
p67
sg38
VMy butyfull Pakistan....
p68
sg40
(dp69
g20
VAami Yaar
p70
sg18
V664736653675980
p71
ssg18
V201997123567993_202501963517509
p72
sassg36
V2016-10-17T18:42:50+0000
p73
sg38
VSharda, Neelam Valley, Azad Kashmir. (Photo by Naveed Chaudhry)
p74
sg16
Vphoto
p75
sg18
V143201606114212_201997123567993
p76
s.