(dp0
Vreactions
p1
(dp2
Vpaging
p3
(dp4
Vcursors
p5
(dp6
Vafter
p7
VTVRBd01EQXdOVEk1T1RBNE9EQTRPakUwTnpjMk9ERTJNakE2TWpVME1EazJNVFl4TXc9PQZDZD
p8
sVbefore
p9
VTVRBd01EQXdOVEk1T1RBNE9EQTRPakUwTnpjMk9ERTJNakE2TWpVME1EazJNVFl4TXc9PQZDZD
p10
ssVnext
p11
Vhttps://graph.facebook.com/v2.6/143201606114212_198415680592804/reactions?access_token=599965930180946%7C575aa5390a4589483de7f8cf99702788&summary=true&limit=1&after=TVRBd01EQXdOVEk1T1RBNE9EQTRPakUwTnpjMk9ERTJNakE2TWpVME1EazJNVFl4TXc9PQZDZD
p12
ssVdata
p13
(lp14
(dp15
Vtype
p16
VLIKE
p17
sVid
p18
V1440936049267378
p19
sVname
p20
VUmmama Khan
p21
sasVsummary
p22
(dp23
Vtotal_count
p24
I1378
sVviewer_reaction
p25
VNONE
p26
sssg20
VTimeline Photos
p27
sVshares
p28
(dp29
Vcount
p30
I165
ssVlink
p31
Vhttps://www.facebook.com/wonderfulpakistan/photos/a.143285289439177.1073741828.143201606114212/198415680592804/?type=3
p32
sVcomments
p33
(dp34
g3
(dp35
g5
(dp36
g7
VMQZDZD
p37
sg9
VNgZDZD
p38
sssg13
(lp39
(dp40
Vcreated_time
p41
V2016-10-11T06:43:35+0000
p42
sVmessage
p43
VVery nice picture and stunning with blue Volkswagen.!!
p44
sVfrom
p45
(dp46
g20
VSunrise Glory
p47
sg18
V1702854479988381
p48
ssg18
V198415680592804_198423280592044
p49
sa(dp50
g41
V2016-10-12T02:06:38+0000
p51
sg43
VExcellent beauty
p52
sg45
(dp53
g20
VFazal Ur Rehman
p54
sg18
V188610041590131
p55
ssg18
V198415680592804_198872833880422
p56
sa(dp57
g41
V2016-10-11T14:59:32+0000
p58
sg43
VVery beautiful.
p59
sg45
(dp60
g20
VShamima Shahjehan
p61
sg18
V193206401086446
p62
ssg18
V198415680592804_198630207238018
p63
sa(dp64
g41
V2016-10-11T12:50:08+0000
p65
sg43
VKonsa sharda hai jo Murre mein hai
p66
sg45
(dp67
g20
VAsim Sharif
p68
sg18
V1538443226182400
p69
ssg18
V198415680592804_198565497244489
p70
sa(dp71
g41
V2016-10-11T07:05:59+0000
p72
sg43
V\u0100bdu\u0142 M\u0101n\u0101n
p73
sg45
(dp74
g20
VMian Amir Abbas
p75
sg18
V1138199656270793
p76
ssg18
V198415680592804_198431420591230
p77
sassg41
V2016-10-11T06:26:24+0000
p78
sg43
VAfter rain, Sharda, Islamabad. (Photo by Kamran Anwar)
p79
sg16
Vphoto
p80
sg18
V143201606114212_198415680592804
p81
s.