(dp0
Vreactions
p1
(dp2
Vpaging
p3
(dp4
Vcursors
p5
(dp6
Vafter
p7
VTVRBd01EQXpNRGcxT0RZAek9EWTJPakUwTnpjNE1EYzFOVEU2TWpVME1EazJNVFl4TXc9PQZDZD
p8
sVbefore
p9
VTVRBd01EQXpNRGcxT0RZAek9EWTJPakUwTnpjNE1EYzFOVEU2TWpVME1EazJNVFl4TXc9PQZDZD
p10
ssVnext
p11
Vhttps://graph.facebook.com/v2.6/143201606114212_209316336169405/reactions?access_token=599965930180946%7C575aa5390a4589483de7f8cf99702788&limit=1&after=TVRBd01EQXpNRGcxT0RZAek9EWTJPakUwTnpjNE1EYzFOVEU2TWpVME1EazJNVFl4TXc9PQZDZD
p12
ssVdata
p13
(lp14
(dp15
Vtype
p16
VLIKE
p17
sVid
p18
V1054713737974812
p19
sVname
p20
VBushi Malik
p21
sassg20
VBehind The Making of Most Breathtaking Cliff Edge Photos
p22
sVlink
p23
Vhttp://www.wonderfulpoint.com/2016/06/behind-of-making-most-breathtaking.html
p24
sVcreated_time
p25
V2016-10-28T10:38:27+0000
p26
sVmessage
p27
VReality exposed of these dangerous-looking pictures
p28
sg16
Vlink
p29
sg18
V143201606114212_209316336169405
p30
s.