(dp0
Vreactions
p1
(dp2
Vpaging
p3
(dp4
Vcursors
p5
(dp6
Vafter
p7
VTVRBd01EQTFPREV4T1RZAek1ESTFPakUwTnpZAME1UUTRNVEk2TWpVME1EazJNVFl4TXc9PQZDZD
p8
sVbefore
p9
VTVRBd01EQTFPREV4T1RZAek1ESTFPakUwTnpZAME1UUTRNVEk2TWpVME1EazJNVFl4TXc9PQZDZD
p10
ssVnext
p11
Vhttps://graph.facebook.com/v2.6/143201606114212_193701287730910/reactions?access_token=599965930180946%7C575aa5390a4589483de7f8cf99702788&summary=true&limit=1&after=TVRBd01EQTFPREV4T1RZAek1ESTFPakUwTnpZAME1UUTRNVEk2TWpVME1EazJNVFl4TXc9PQZDZD
p12
ssVdata
p13
(lp14
(dp15
Vtype
p16
VLIKE
p17
sVid
p18
V593651667505227
p19
sVname
p20
VAbdulhanan Tariq
p21
sasVsummary
p22
(dp23
Vtotal_count
p24
I63
sVviewer_reaction
p25
VNONE
p26
sssg20
V10 Personal Life Facts About General Raheel Sharif
p27
sVshares
p28
(dp29
Vcount
p30
I2
ssVlink
p31
Vhttp://www.wonderfulpoint.com/2016/06/raheel-sharif-facts.html
p32
sVcreated_time
p33
V2016-10-03T16:36:00+0000
p34
sVmessage
p35
V10 Personal Life Facts About General Raheel Sharif
p36
sg16
Vlink
p37
sg18
V143201606114212_193701287730910
p38
s.