(dp0
Vreactions
p1
(dp2
Vpaging
p3
(dp4
Vcursors
p5
(dp6
Vafter
p7
VTVRBd01ERXdNVFExTnpNeE9ESTBPakUwTnpZAM01Ua3hNVGc2TWpVME1EazJNVFl4TXc9PQZDZD
p8
sVbefore
p9
VTVRBd01ERXdNVFExTnpNeE9ESTBPakUwTnpZAM01Ua3hNVGc2TWpVME1EazJNVFl4TXc9PQZDZD
p10
ssVnext
p11
Vhttps://graph.facebook.com/v2.6/143201606114212_193358841098488/reactions?access_token=599965930180946%7C575aa5390a4589483de7f8cf99702788&summary=true&limit=1&after=TVRBd01ERXdNVFExTnpNeE9ESTBPakUwTnpZAM01Ua3hNVGc2TWpVME1EazJNVFl4TXc9PQZDZD
p12
ssVdata
p13
(lp14
(dp15
Vtype
p16
VLIKE
p17
sVid
p18
V352618741752981
p19
sVname
p20
VM Ashraf Joyia
p21
sasVsummary
p22
(dp23
Vtotal_count
p24
I1622
sVviewer_reaction
p25
VNONE
p26
sssg20
VTimeline Photos
p27
sVshares
p28
(dp29
Vcount
p30
I289
ssVlink
p31
Vhttps://www.facebook.com/wonderfulpakistan/photos/a.143285289439177.1073741828.143201606114212/193358841098488/?type=3
p32
sVcomments
p33
(dp34
g3
(dp35
g5
(dp36
g7
VMQZDZD
p37
sg9
VMgZDZD
p38
sssg13
(lp39
(dp40
Vcreated_time
p41
V2016-10-03T12:19:33+0000
p42
sVmessage
p43
VBeautiful.
p44
sVfrom
p45
(dp46
g20
VShamima Shahjehan
p47
sg18
V193206401086446
p48
ssg18
V193358841098488_193618037739235
p49
sa(dp50
g41
V2016-10-04T13:43:04+0000
p51
sg43
VMashallah
p52
sg45
(dp53
g20
VMuhammad Munir
p54
sg18
V1791184744472392
p55
ssg18
V193358841098488_194310564336649
p56
sassg41
V2016-10-03T08:08:25+0000
p57
sg43
VFaisal Masjid, Islamabad. (Photo by Haider Irfan)
p58
sg16
Vphoto
p59
sg18
V143201606114212_193358841098488
p60
s.