(dp0
Vreactions
p1
(dp2
Vpaging
p3
(dp4
Vcursors
p5
(dp6
Vafter
p7
VTVRBd01EQXdOVEk1T1RBNE9EQTRPakUwTnpjMk9ESXhNakE2TnpnNE5qUTRNRE0zT1RFek16RXkZD
p8
sVbefore
p9
VTVRBd01EQXdOVEk1T1RBNE9EQTRPakUwTnpjMk9ESXhNakE2TnpnNE5qUTRNRE0zT1RFek16RXkZD
p10
ssVnext
p11
Vhttps://graph.facebook.com/v2.6/143201606114212_196526030781769/reactions?access_token=599965930180946%7C575aa5390a4589483de7f8cf99702788&summary=true&limit=1&after=TVRBd01EQXdOVEk1T1RBNE9EQTRPakUwTnpjMk9ESXhNakE2TnpnNE5qUTRNRE0zT1RFek16RXkZD
p12
ssVdata
p13
(lp14
(dp15
Vtype
p16
VLOVE
p17
sVid
p18
V1440936049267378
p19
sVname
p20
VUmmama Khan
p21
sasVsummary
p22
(dp23
Vtotal_count
p24
I1445
sVviewer_reaction
p25
VNONE
p26
sssg20
VTimeline Photos
p27
sVshares
p28
(dp29
Vcount
p30
I231
ssVlink
p31
Vhttps://www.facebook.com/wonderfulpakistan/photos/a.143285289439177.1073741828.143201606114212/196526030781769/?type=3
p32
sVcomments
p33
(dp34
g3
(dp35
g5
(dp36
g7
VMQZDZD
p37
sg9
VMwZDZD
p38
sssg13
(lp39
(dp40
Vcreated_time
p41
V2016-10-08T14:26:11+0000
p42
sVmessage
p43
V
p44
sVfrom
p45
(dp46
g20
VShafqatullah Guraya
p47
sg18
V207891282980859
p48
ssg18
V196526030781769_196767510757621
p49
sa(dp50
g41
V2016-10-09T02:09:01+0000
p51
sg43
VVery beautiful
p52
sg45
(dp53
g20
VAslam Muhammad
p54
sg18
V333242563708247
p55
ssg18
V196526030781769_197089044058801
p56
sa(dp57
g41
V2016-10-08T12:13:48+0000
p58
sg43
VFarooq khan swat kho ba mane kana
p59
sg45
(dp60
g20
VKami Khan
p61
sg18
V1726323921025643
p62
ssg18
V196526030781769_196682514099454
p63
sassg41
V2016-10-08T08:10:33+0000
p64
sg43
VMadyan, Swat Valley, KPK. (Photo by Jan Alam)
p65
sg16
Vphoto
p66
sg18
V143201606114212_196526030781769
p67
s.