(dp0
Vreactions
p1
(dp2
Vpaging
p3
(dp4
Vcursors
p5
(dp6
Vafter
p7
VTVRBd01EQTFPVFF6TVRNeE1qRXpPakUwTnpjek1EQTVPVGs2TWpVME1EazJNVFl4TXc9PQZDZD
p8
sVbefore
p9
VTVRBd01EQTFPVFF6TVRNeE1qRXpPakUwTnpjek1EQTVPVGs2TWpVME1EazJNVFl4TXc9PQZDZD
p10
ssVnext
p11
Vhttps://graph.facebook.com/v2.6/143201606114212_193364487764590/reactions?access_token=599965930180946%7C575aa5390a4589483de7f8cf99702788&summary=true&limit=1&after=TVRBd01EQTFPVFF6TVRNeE1qRXpPakUwTnpjek1EQTVPVGs2TWpVME1EazJNVFl4TXc9PQZDZD
p12
ssVdata
p13
(lp14
(dp15
Vtype
p16
VLIKE
p17
sVid
p18
V576640622544037
p19
sVname
p20
VWaqar Ahmed
p21
sasVsummary
p22
(dp23
Vtotal_count
p24
I680
sVviewer_reaction
p25
VNONE
p26
sssg20
VTimeline Photos
p27
sVshares
p28
(dp29
Vcount
p30
I106
ssVlink
p31
Vhttps://www.facebook.com/wonderfulpakistan/photos/a.143285289439177.1073741828.143201606114212/193364487764590/?type=3
p32
sVcomments
p33
(dp34
g3
(dp35
g5
(dp36
g7
VMQZDZD
p37
sg9
VMQZDZD
p38
sssg13
(lp39
(dp40
Vcreated_time
p41
V2016-10-03T19:51:46+0000
p42
sVmessage
p43
VI hd bn there.
p44
sVfrom
p45
(dp46
g20
VNaureen Khan
p47
sg18
V1705936133061816
p48
ssg18
V193364487764590_193864491047923
p49
sassg41
V2016-10-03T18:20:45+0000
p50
sg43
VHiran Minar, Sheikhupura. (Photo by Muhammad Ashar)
p51
sg16
Vphoto
p52
sg18
V143201606114212_193364487764590
p53
s.