(dp0
Vreactions
p1
(dp2
Vpaging
p3
(dp4
Vcursors
p5
(dp6
Vafter
p7
VTVRBd01EQXdOVEk1T1RBNE9EQTRPakUwTnpjMk9ERXdNelU2TWpVME1EazJNVFl4TXc9PQZDZD
p8
sVbefore
p9
VTVRBd01EQXdOVEk1T1RBNE9EQTRPakUwTnpjMk9ERXdNelU2TWpVME1EazJNVFl4TXc9PQZDZD
p10
ssVnext
p11
Vhttps://graph.facebook.com/v2.6/143201606114212_201994756901563/reactions?access_token=599965930180946%7C575aa5390a4589483de7f8cf99702788&limit=1&after=TVRBd01EQXdOVEk1T1RBNE9EQTRPakUwTnpjMk9ERXdNelU2TWpVME1EazJNVFl4TXc9PQZDZD
p12
ssVdata
p13
(lp14
(dp15
Vtype
p16
VLIKE
p17
sVid
p18
V1440936049267378
p19
sVname
p20
VUmmama Khan
p21
sassg20
VTimeline Photos
p22
sVshares
p23
(dp24
Vcount
p25
I78
ssVlink
p26
Vhttps://www.facebook.com/wonderfulpakistan/photos/a.143285289439177.1073741828.143201606114212/201994756901563/?type=3
p27
sVcomments
p28
(dp29
g3
(dp30
g5
(dp31
g7
VMQZDZD
p32
sg9
VMwZDZD
p33
sssg13
(lp34
(dp35
Vcreated_time
p36
V2016-10-17T10:15:39+0000
p37
sVmessage
p38
VMindblowing
p39
sVfrom
p40
(dp41
g20
VIrfan Lala
p42
sg18
V1705945582959286
p43
ssg18
V201994756901563_202125163555189
p44
sa(dp45
g36
V2016-10-17T13:18:25+0000
p46
sg38
VBeautiful
p47
sg40
(dp48
g20
VFahmida Ashraf
p49
sg18
V337826419915130
p50
ssg18
V201994756901563_202227503544955
p51
sa(dp52
g36
V2016-10-17T18:12:28+0000
p53
sg38
VBeautiful.
p54
sg40
(dp55
g20
VShamima Shahjehan
p56
sg18
V193206401086446
p57
ssg18
V201994756901563_202388370195535
p58
sassg36
V2016-10-17T04:24:05+0000
p59
sg38
VGwadar, Balochistan. (Photo by Salman Khan)
p60
sg16
Vphoto
p61
sg18
V143201606114212_201994756901563
p62
s.