(dp0
Vreactions
p1
(dp2
Vpaging
p3
(dp4
Vcursors
p5
(dp6
Vafter
p7
VTVRBd01EQTNOamsyTkRVeU5qZA3pPakUwTnpjMU1ESXlPREU2TWpVME1EazJNVFl4TXc9PQZDZD
p8
sVbefore
p9
VTVRBd01EQTNOamsyTkRVeU5qZA3pPakUwTnpjMU1ESXlPREU2TWpVME1EazJNVFl4TXc9PQZDZD
p10
ssVnext
p11
Vhttps://graph.facebook.com/v2.6/296980867022926_1098804683507203/reactions?access_token=599965930180946%7C575aa5390a4589483de7f8cf99702788&limit=1&after=TVRBd01EQTNOamsyTkRVeU5qZA3pPakUwTnpjMU1ESXlPREU2TWpVME1EazJNVFl4TXc9PQZDZD
p12
ssVdata
p13
(lp14
(dp15
Vtype
p16
VLIKE
p17
sVid
p18
V1704549436478255
p19
sVname
p20
VAnne Hussain
p21
sassg20
VTimeline Photos
p22
sVshares
p23
(dp24
Vcount
p25
I66
ssVlink
p26
Vhttps://www.facebook.com/pakistanthebeautifull/photos/a.297140590340287.77749.296980867022926/1098804683507203/?type=3
p27
sVcomments
p28
(dp29
g3
(dp30
g5
(dp31
g7
VMQZDZD
p32
sg9
VNgZDZD
p33
sssg13
(lp34
(dp35
Vcreated_time
p36
V2016-10-18T10:00:17+0000
p37
sVmessage
p38
VChi ha copiato chi??
p39
sVfrom
p40
(dp41
g20
VMaria Grazia Senesi
p42
sg18
V995203917275264
p43
ssg18
V1098804683507203_1098826670171671
p44
sa(dp45
g36
V2016-10-19T01:27:50+0000
p46
sg38
VBeautiful :) <3
p47
sg40
(dp48
g20
VMorgan Hammett
p49
sg18
V1039400616147423
p50
ssg18
V1098804683507203_1099588343428837
p51
sa(dp52
g36
V2016-10-18T21:43:22+0000
p53
sg38
VMaryam A hello? possible?
p54
sg40
(dp55
g20
VAzka Shahid
p56
sg18
V10154693807188928
p57
ssg18
V1098804683507203_1099475276773477
p58
sa(dp59
g36
V2016-10-18T09:33:51+0000
p60
sg38
VGood
p61
sg40
(dp62
g20
VSyed Shahbaz Ali
p63
sg18
V1589595381369610
p64
ssg18
V1098804683507203_1098812800173058
p65
sa(dp66
g36
V2016-10-18T09:52:45+0000
p67
sg38
VMushfiq Hussain
p68
sg40
(dp69
g20
VRaafia Hussain
p70
sg18
V10207075547878177
p71
ssg18
V1098804683507203_1098822520172086
p72
sa(dp73
g36
V2016-10-18T13:12:00+0000
p74
sg38
VOsama Asghar
p75
sg40
(dp76
g20
VUmair Naeem Khan
p77
sg18
V1341844542494345
p78
ssg18
V1098804683507203_1098980826822922
p79
sassg36
V2016-10-18T09:21:17+0000
p80
sg38
VThis is not the China Wall . It is Wall of Sindh , Ranokot Fort , Sindh Province Pakistan .\u000aRanikot fort is the world's largest fort with a circumference of approximately 26 kilometres .
p81
sg16
Vphoto
p82
sg18
V296980867022926_1098804683507203
p83
s.