(dp0
Vreactions
p1
(dp2
Vpaging
p3
(dp4
Vcursors
p5
(dp6
Vafter
p7
VTVRBd01EQXlNVGt3TmpVek16TTVPakUwTnpjMU1URXdPVFE2TnpnNE5qUTRNRE0zT1RFek16RXkZD
p8
sVbefore
p9
VTVRBd01EQXlNVGt3TmpVek16TTVPakUwTnpjMU1URXdPVFE2TnpnNE5qUTRNRE0zT1RFek16RXkZD
p10
ssVnext
p11
Vhttps://graph.facebook.com/v2.6/296980867022926_1095203193867352/reactions?access_token=599965930180946%7C575aa5390a4589483de7f8cf99702788&limit=1&after=TVRBd01EQXlNVGt3TmpVek16TTVPakUwTnpjMU1URXdPVFE2TnpnNE5qUTRNRE0zT1RFek16RXkZD
p12
ssVdata
p13
(lp14
(dp15
Vtype
p16
VLOVE
p17
sVid
p18
V1161870593895951
p19
sVname
p20
VPetra von Antares
p21
sassg20
VTimeline Photos
p22
sVshares
p23
(dp24
Vcount
p25
I37
ssVlink
p26
Vhttps://www.facebook.com/pakistanthebeautifull/photos/a.297140590340287.77749.296980867022926/1095203193867352/?type=3
p27
sVcomments
p28
(dp29
g3
(dp30
g5
(dp31
g7
VMQZDZD
p32
sg9
VMQZDZD
p33
sssg13
(lp34
(dp35
Vcreated_time
p36
V2016-10-15T05:28:35+0000
p37
sVmessage
p38
V
p39
sVfrom
p40
(dp41
g20
VMorgan Hammett
p42
sg18
V1039400616147423
p43
ssg18
V1095203193867352_1095903007130704
p44
sassg36
V2016-10-14T12:13:20+0000
p45
sg38
VAmazing view of Passu cones from Karakoram Highway , Hunza Pakistan.     Photo credit: Muhammad Akram .
p46
sg16
Vphoto
p47
sg18
V296980867022926_1095203193867352
p48
s.