(dp0
Vreactions
p1
(dp2
Vpaging
p3
(dp4
Vcursors
p5
(dp6
Vafter
p7
VTVRBd01EQXpOakk1T1RVd016ZAzFPakUwTnpjMk9UVXdOVGc2TWpVME1EazJNVFl4TXc9PQZDZD
p8
sVbefore
p9
VTVRBd01EQXpOakk1T1RVd016ZAzFPakUwTnpjMk9UVXdOVGc2TWpVME1EazJNVFl4TXc9PQZDZD
p10
ssVnext
p11
Vhttps://graph.facebook.com/v2.6/296980867022926_1097713380283000/reactions?access_token=599965930180946%7C575aa5390a4589483de7f8cf99702788&limit=1&after=TVRBd01EQXpOakk1T1RVd016ZAzFPakUwTnpjMk9UVXdOVGc2TWpVME1EazJNVFl4TXc9PQZDZD
p12
ssVdata
p13
(lp14
(dp15
Vtype
p16
VLIKE
p17
sVid
p18
V902409709890019
p19
sVname
p20
VAhsan Ali
p21
sassg20
VTimeline Photos
p22
sVshares
p23
(dp24
Vcount
p25
I25
ssVlink
p26
Vhttps://www.facebook.com/pakistanthebeautifull/photos/a.297140590340287.77749.296980867022926/1097713380283000/?type=3
p27
sVcomments
p28
(dp29
g3
(dp30
g5
(dp31
g7
VMQZDZD
p32
sg9
VMgZDZD
p33
sssg13
(lp34
(dp35
Vcreated_time
p36
V2016-10-17T12:38:54+0000
p37
sVmessage
p38
V\u0410\u043b\u0435\u043a\u0441\u0430\u043d\u0434\u0440\u0430 \u043f\u043e\u0434\u043d\u043e\u0436\u0458\u0435\u0442\u043e \u043d\u0430 \u041d\u0430\u043d\u0433\u0430 \u041f\u0430\u0440\u0431\u0430\u0442 \u26fa\U0001f600\U0001f31e\U0001f44c
p39
sVfrom
p40
(dp41
g20
V\u0410\u043d\u0434\u0440\u0435\u0458 \u041c\u0438\u043d\u0447\u0435\u0432\u0441\u043a\u0438
p42
sg18
V1743490169248141
p43
ssg18
V1097713380283000_1097888003598871
p44
sa(dp45
g36
V2016-10-17T08:11:45+0000
p46
sg38
V
p47
sg40
(dp48
g20
VMorgan Hammett
p49
sg18
V1039400616147423
p50
ssg18
V1097713380283000_1097727720281566
p51
sassg36
V2016-10-17T07:42:40+0000
p52
sg38
VBeautiful view of Nanga Parbat from fairy meadows, Pakistan
p53
sg16
Vphoto
p54
sg18
V296980867022926_1097713380283000
p55
s.