(dp0
Vreactions
p1
(dp2
Vpaging
p3
(dp4
Vcursors
p5
(dp6
Vafter
p7
VTVRBd01EQTBNelV5T1RJd056TTNPakUwTnpZAME5EY3dPVFE2TWpVME1EazJNVFl4TXc9PQZDZD
p8
sVbefore
p9
VTVRBd01EQTBNelV5T1RJd056TTNPakUwTnpZAME5EY3dPVFE2TWpVME1EazJNVFl4TXc9PQZDZD
p10
ssVnext
p11
Vhttps://graph.facebook.com/v2.6/296980867022926_1085507128170292/reactions?access_token=599965930180946%7C575aa5390a4589483de7f8cf99702788&summary=true&limit=1&after=TVRBd01EQTBNelV5T1RJd056TTNPakUwTnpZAME5EY3dPVFE2TWpVME1EazJNVFl4TXc9PQZDZD
p12
ssVdata
p13
(lp14
(dp15
Vtype
p16
VLIKE
p17
sVid
p18
V712101912278233
p19
sVname
p20
VAng Mui Im
p21
sasVsummary
p22
(dp23
Vtotal_count
p24
I333
sVviewer_reaction
p25
VNONE
p26
sssg20
VTimeline Photos
p27
sVshares
p28
(dp29
Vcount
p30
I33
ssVlink
p31
Vhttps://www.facebook.com/pakistanthebeautifull/photos/a.297140590340287.77749.296980867022926/1085507128170292/?type=3
p32
sVcomments
p33
(dp34
g3
(dp35
g5
(dp36
g7
VMgZDZD
p37
sg9
VNAZDZD
p38
sssg13
(lp39
(dp40
Vcreated_time
p41
V2016-10-03T10:24:18+0000
p42
sVmessage
p43
V
p44
sVfrom
p45
(dp46
g20
VMorgan Hammett
p47
sg18
V1039400616147423
p48
ssg18
V1085507128170292_1085529131501425
p49
sa(dp50
g41
V2016-10-03T09:57:53+0000
p51
sg43
VWonderful
p52
sg45
(dp53
g20
VFahad Iqbal
p54
sg18
V1184071321673655
p55
ssg18
V1085507128170292_1085520224835649
p56
sa(dp57
g41
V2016-10-03T10:08:17+0000
p58
sg43
VBaintha Brakk
p59
sg45
(dp60
g20
VNo Siesta
p61
sg18
V1972781969615022
p62
ssg18
V1085507128170292_1085523288168676
p63
sassg41
V2016-10-03T09:24:32+0000
p64
sg43
VThe Ogre l  (7285 m) Karakoram Pakistan
p65
sg16
Vphoto
p66
sg18
V296980867022926_1085507128170292
p67
s.