(dp0
Vreactions
p1
(dp2
Vpaging
p3
(dp4
Vcursors
p5
(dp6
Vafter
p7
VTVRBd01EQXdNVGc0TkRJek56azJPakUwTnpjd09EUTBOVEk2TWpVME1EazJNVFl4TXc9PQZDZD
p8
sVbefore
p9
VTVRBd01EQXdNVGc0TkRJek56azJPakUwTnpjd09EUTBOVEk2TWpVME1EazJNVFl4TXc9PQZDZD
p10
ssVnext
p11
Vhttps://graph.facebook.com/v2.6/296980867022926_1085561384831533/reactions?access_token=599965930180946%7C575aa5390a4589483de7f8cf99702788&summary=true&limit=1&after=TVRBd01EQXdNVGc0TkRJek56azJPakUwTnpjd09EUTBOVEk2TWpVME1EazJNVFl4TXc9PQZDZD
p12
ssVdata
p13
(lp14
(dp15
Vtype
p16
VLIKE
p17
sVid
p18
V1532798756736390
p19
sVname
p20
VDiego Giavino
p21
sasVsummary
p22
(dp23
Vtotal_count
p24
I276
sVviewer_reaction
p25
VNONE
p26
sssg20
VTimeline Photos
p27
sVshares
p28
(dp29
Vcount
p30
I26
ssVlink
p31
Vhttps://www.facebook.com/pakistanthebeautifull/photos/a.297140590340287.77749.296980867022926/1085561384831533/?type=3
p32
sVcomments
p33
(dp34
g3
(dp35
g5
(dp36
g7
VMQZDZD
p37
sg9
VMQZDZD
p38
sssg13
(lp39
(dp40
Vcreated_time
p41
V2016-10-03T22:01:53+0000
p42
sVmessage
p43
VI've been there, it's a beautiful place \U0001f3d4
p44
sVfrom
p45
(dp46
g20
VTomas Bohm
p47
sg18
V10108416846074870
p48
ssg18
V1085561384831533_1085951724792499
p49
sassg41
V2016-10-03T11:25:56+0000
p50
sg43
VMorning view of Snow Lake from inside the camp . Pakistan .\u000aSnow Lake is located 16,000 feet (4,877 m) above sea level, and is approximately 10 miles (16 km) wide .
p51
sg16
Vphoto
p52
sg18
V296980867022926_1085561384831533
p53
s.