(dp0
Vreactions
p1
(dp2
Vpaging
p3
(dp4
Vcursors
p5
(dp6
Vafter
p7
VTVRBd01ERXhOVFV6TVRVMk16WXdPakUwTnpVNU5UYzFPREk2TWpVME1EazJNVFl4TXc9PQZDZD
p8
sVbefore
p9
VTVRBd01ERXhOVFV6TVRVMk16WXdPakUwTnpVNU5UYzFPREk2TWpVME1EazJNVFl4TXc9PQZDZD
p10
ssVnext
p11
Vhttps://graph.facebook.com/v2.6/296980867022926_1086337274753944/reactions?access_token=599965930180946%7C575aa5390a4589483de7f8cf99702788&summary=true&limit=1&after=TVRBd01ERXhOVFV6TVRVMk16WXdPakUwTnpVNU5UYzFPREk2TWpVME1EazJNVFl4TXc9PQZDZD
p12
ssVdata
p13
(lp14
(dp15
Vtype
p16
VLIKE
p17
sVid
p18
V279412475787189
p19
sVname
p20
VAmir Xohna
p21
sasVsummary
p22
(dp23
Vtotal_count
p24
I220
sVviewer_reaction
p25
VNONE
p26
sssg20
VTimeline Photos
p27
sVshares
p28
(dp29
Vcount
p30
I14
ssVlink
p31
Vhttps://www.facebook.com/pakistanthebeautifull/photos/a.297140590340287.77749.296980867022926/1086337274753944/?type=3
p32
sVcomments
p33
(dp34
g3
(dp35
g5
(dp36
g7
VMQZDZD
p37
sg9
VMQZDZD
p38
sssg13
(lp39
(dp40
Vcreated_time
p41
V2016-10-04T21:32:06+0000
p42
sVmessage
p43
V
p44
sVfrom
p45
(dp46
g20
VMorgan Hammett
p47
sg18
V1039400616147423
p48
ssg18
V1086337274753944_1086743491379989
p49
sassg41
V2016-10-04T11:52:23+0000
p50
sg43
VBeautiful view of Shimshal white horn , Shimshal valley , Pakistan
p51
sg16
Vphoto
p52
sg18
V296980867022926_1086337274753944
p53
s.