(dp0
Vreactions
p1
(dp2
Vpaging
p3
(dp4
Vcursors
p5
(dp6
Vafter
p7
VTVRBd01EQXhPRGMxTVRFek5ERTJPakUwTnpjM05qRTFOREE2TWpVME1EazJNVFl4TXc9PQZDZD
p8
sVbefore
p9
VTVRBd01EQXhPRGMxTVRFek5ERTJPakUwTnpjM05qRTFOREE2TWpVME1EazJNVFl4TXc9PQZDZD
p10
ssVnext
p11
Vhttps://graph.facebook.com/v2.6/296980867022926_1100051950049143/reactions?access_token=599965930180946%7C575aa5390a4589483de7f8cf99702788&limit=1&after=TVRBd01EQXhPRGMxTVRFek5ERTJPakUwTnpjM05qRTFOREE2TWpVME1EazJNVFl4TXc9PQZDZD
p12
ssVdata
p13
(lp14
(dp15
Vtype
p16
VLIKE
p17
sVid
p18
V1265038103568681
p19
sVname
p20
VBlanche Hiver
p21
sassg20
VTimeline Photos
p22
sVshares
p23
(dp24
Vcount
p25
I33
ssVlink
p26
Vhttps://www.facebook.com/pakistanthebeautifull/photos/a.297140590340287.77749.296980867022926/1100051950049143/?type=3
p27
sVcomments
p28
(dp29
g3
(dp30
g5
(dp31
g7
VMQZDZD
p32
sg9
VMgZDZD
p33
sssg13
(lp34
(dp35
Vcreated_time
p36
V2016-10-20T06:16:55+0000
p37
sVmessage
p38
V
p39
sVfrom
p40
(dp41
g20
VMorgan Hammett
p42
sg18
V1039400616147423
p43
ssg18
V1100051950049143_1100600496660955
p44
sa(dp45
g36
V2016-10-19T16:02:57+0000
p46
sg38
VCalista Ocean
p47
sg40
(dp48
g20
VJames Highfill
p49
sg18
V10209839797203943
p50
ssg18
V1100051950049143_1100087200045618
p51
sassg36
V2016-10-19T15:13:03+0000
p52
sg38
VAmazing view ofTrango Towers ,   the largest cliffs and most challenging rock climbing in the world , Karakoram Pakistan .\u000a\u000aPhoto credit : Steve Razzetti .
p53
sg16
Vphoto
p54
sg18
V296980867022926_1100051950049143
p55
s.