(dp0
Vreactions
p1
(dp2
Vpaging
p3
(dp4
Vcursors
p5
(dp6
Vafter
p7
VTVRBd01ERXdNVFkwT1RBMU16UTJPakUwTnpjeU5EQXdOams2TWpVME1EazJNVFl4TXc9PQZDZD
p8
sVbefore
p9
VTVRBd01ERXdNVFkwT1RBMU16UTJPakUwTnpjeU5EQXdOams2TWpVME1EazJNVFl4TXc9PQZDZD
p10
ssVnext
p11
Vhttps://graph.facebook.com/v2.6/296980867022926_1093872600667078/reactions?access_token=599965930180946%7C575aa5390a4589483de7f8cf99702788&limit=1&after=TVRBd01ERXdNVFkwT1RBMU16UTJPakUwTnpjeU5EQXdOams2TWpVME1EazJNVFl4TXc9PQZDZD
p12
ssVdata
p13
(lp14
(dp15
Vtype
p16
VLIKE
p17
sVid
p18
V344613032554191
p19
sVname
p20
VHancy Rehan Tanha
p21
sassVshares
p22
(dp23
Vcount
p24
I73
ssVlink
p25
Vhttps://www.facebook.com/pakistanthebeautifull/videos/1093872600667078/
p26
sVcomments
p27
(dp28
g3
(dp29
g5
(dp30
g7
VMQZDZD
p31
sg9
VNAZDZD
p32
sssg13
(lp33
(dp34
Vcreated_time
p35
V2016-10-13T09:07:26+0000
p36
sVmessage
p37
VI'm not totally sure, but I think this was the end of this year's K2 climbing season. This avalanche probably destroyed and flattened Camp 3, where teams had stockpiled equipment for the summit attempt. \u000aThe avalanche didn't cause any fatality down below, but the teams aborted their attempts after climbing up and finding their equipment destroyed.
p38
sVfrom
p39
(dp40
g20
VVarrun Var
p41
sg18
V1466518323389931
p42
ssg18
V1093872600667078_1093886267332378
p43
sa(dp44
g35
V2016-10-14T05:01:51+0000
p45
sg37
Vvery risky and scary but advantureous
p46
sg39
(dp47
g20
VAshok Duvadi
p48
sg18
V1489443801082741
p49
ssg18
V1093872600667078_1094910947229910
p50
sa(dp51
g35
V2016-10-13T19:49:30+0000
p52
sg37
VUnbelievable!!!!!
p53
sg39
(dp54
g20
VIfrah Akram
p55
sg18
V10157482998285121
p56
ssg18
V1093872600667078_1094401687280836
p57
sa(dp58
g35
V2016-10-13T11:28:09+0000
p59
sg37
VSimone Leitner
p60
sg39
(dp61
g20
VEhsan Kalantari
p62
sg18
V10202222487041752
p63
ssg18
V1093872600667078_1094010957319909
p64
sassg35
V2016-10-13T08:47:18+0000
p65
sg37
VWatch Huge Avalanche from K2 coming towards camps of climbers , Don,t know what happened next .
p66
sg16
Vvideo
p67
sg18
V296980867022926_1093872600667078
p68
s.