(dp0
Vreactions
p1
(dp2
Vpaging
p3
(dp4
Vcursors
p5
(dp6
Vafter
p7
VTVRBd01EQXhNems1TkRVME5EYzNPakUwTnpjNE16VTFORGs2TWpVME1EazJNVFl4TXc9PQZDZD
p8
sVbefore
p9
VTVRBd01EQXhNems1TkRVME5EYzNPakUwTnpjNE16VTFORGs2TWpVME1EazJNVFl4TXc9PQZDZD
p10
ssVnext
p11
Vhttps://graph.facebook.com/v2.6/296980867022926_1106533836067621/reactions?access_token=599965930180946%7C575aa5390a4589483de7f8cf99702788&limit=1&after=TVRBd01EQXhNems1TkRVME5EYzNPakUwTnpjNE16VTFORGs2TWpVME1EazJNVFl4TXc9PQZDZD
p12
ssVdata
p13
(lp14
(dp15
Vtype
p16
VLIKE
p17
sVid
p18
V1225901590799811
p19
sVname
p20
VMian Mansha
p21
sassg20
VTimeline Photos
p22
sVshares
p23
(dp24
Vcount
p25
I26
ssVlink
p26
Vhttps://www.facebook.com/pakistanthebeautifull/photos/a.297140590340287.77749.296980867022926/1106533836067621/?type=3
p27
sVcomments
p28
(dp29
g3
(dp30
g5
(dp31
g7
VMQZDZD
p32
sg9
VNQZDZD
p33
sssg13
(lp34
(dp35
Vcreated_time
p36
V2016-10-27T03:45:12+0000
p37
sVmessage
p38
V
p39
sVfrom
p40
(dp41
g20
VMorgan Hammett
p42
sg18
V1039400616147423
p43
ssg18
V1106533836067621_1107209159333422
p44
sa(dp45
g36
V2016-10-27T08:26:38+0000
p46
sg38
VRupal?
p47
sg40
(dp48
g20
VWell Done Pete
p49
sg18
V10207867421623144
p50
ssg18
V1106533836067621_1107433032644368
p51
sa(dp52
g36
V2016-10-27T03:26:49+0000
p53
sg38
VWinter???
p54
sg40
(dp55
g20
VSirbaz Khan
p56
sg18
V1131174766918563
p57
ssg18
V1106533836067621_1107199832667688
p58
sa(dp59
g36
V2016-10-26T19:38:17+0000
p60
sg38
VHelena Nassall future you ?
p61
sg40
(dp62
g20
VLucas Paashuis
p63
sg18
V10153761332781307
p64
ssg18
V1106533836067621_1106853452702326
p65
sa(dp66
g36
V2016-10-26T18:52:46+0000
p67
sg38
V\u0410\u043b\u0435\u043a\u0441\u0430\u043d\u0434\u0440\u0430 zoom
p68
sg40
(dp69
g20
V\u0410\u043d\u0434\u0440\u0435\u0458 \u041c\u0438\u043d\u0447\u0435\u0432\u0441\u043a\u0438
p70
sg18
V1743490169248141
p71
ssg18
V1106533836067621_1106796899374648
p72
sassg36
V2016-10-26T14:44:06+0000
p73
sg38
V4 climbers (  in the red circle  ) on the Nanga Parbat Expedition ( 8126 m ) , Himalaya Pakistan .
p74
sg16
Vphoto
p75
sg18
V296980867022926_1106533836067621
p76
s.