(dp0
Vreactions
p1
(dp2
Vpaging
p3
(dp4
Vcursors
p5
(dp6
Vafter
p7
VTVRBd01EQXdOamMyTWpFMk5URTRPakUwTnpjNE5ESTBNVFU2TWpVME1EazJNVFl4TXc9PQZDZD
p8
sVbefore
p9
VTVRBd01EQXdOamMyTWpFMk5URTRPakUwTnpjNE5ESTBNVFU2TWpVME1EazJNVFl4TXc9PQZDZD
p10
ssVnext
p11
Vhttps://graph.facebook.com/v2.6/296980867022926_1103602536360751/reactions?access_token=599965930180946%7C575aa5390a4589483de7f8cf99702788&limit=1&after=TVRBd01EQXdOamMyTWpFMk5URTRPakUwTnpjNE5ESTBNVFU2TWpVME1EazJNVFl4TXc9PQZDZD
p12
ssVdata
p13
(lp14
(dp15
Vtype
p16
VLIKE
p17
sVid
p18
V1327926110573250
p19
sVname
p20
VShahrukh Ghaznavi
p21
sassg20
VTimeline Photos
p22
sVshares
p23
(dp24
Vcount
p25
I36
ssVlink
p26
Vhttps://www.facebook.com/pakistanthebeautifull/photos/a.297140590340287.77749.296980867022926/1103602536360751/?type=3
p27
sVcomments
p28
(dp29
g3
(dp30
g5
(dp31
g7
VMQZDZD
p32
sg9
VNwZDZD
p33
sssg13
(lp34
(dp35
Vcreated_time
p36
V2016-10-28T22:48:34+0000
p37
sVmessage
p38
Vab kaise ja sakte hai kiya roads open hote hai
p39
sVfrom
p40
(dp41
g20
VAhsan Ali
p42
sg18
V902409709890019
p43
ssg18
V1103602536360751_1109046435816361
p44
sa(dp45
g36
V2016-10-24T06:34:49+0000
p46
sg38
VSo beautiful and so awesome :)
p47
sg40
(dp48
g20
VMorgan Hammett
p49
sg18
V1039400616147423
p50
ssg18
V1103602536360751_1104219919632346
p51
sa(dp52
g36
V2016-10-23T15:21:04+0000
p53
sg38
VKhunjerab pass. 4733 mos
p54
sg40
(dp55
g20
VMilo Mardones
p56
sg18
V10153814689676205
p57
ssg18
V1103602536360751_1103658163021855
p58
sa(dp59
g36
V2016-10-24T07:00:28+0000
p60
sg38
VAwesome...
p61
sg40
(dp62
g20
VMac Yukon
p63
sg18
V309047656145533
p64
ssg18
V1103602536360751_1104233202964351
p65
sa(dp66
g36
V2016-10-28T04:08:36+0000
p67
sg38
Vso beautifull
p68
sg40
(dp69
g20
VHabibullah Malik
p70
sg18
V1629415460691314
p71
ssg18
V1103602536360751_1108237759230562
p72
sa(dp73
g36
V2016-10-23T15:38:59+0000
p74
sg38
VIts the stat of winter every thing will be with
p75
sg40
(dp76
g20
VKhan Shahbaz Khan
p77
sg18
V1778063375791691
p78
ssg18
V1103602536360751_1103668346354170
p79
sa(dp80
g36
V2016-10-23T14:20:07+0000
p81
sg38
VMuhammad Usman Siddiqui Syed Hassam Ali Shah ab chaltay hain \U0001f602
p82
sg40
(dp83
g20
VAbdul Moiz
p84
sg18
V1215187045191727
p85
ssg18
V1103602536360751_1103617593025912
p86
sassg36
V2016-10-23T14:01:45+0000
p87
sg38
VSnow land , A recent picture of border between China & Pakistan .
p88
sg16
Vphoto
p89
sg18
V296980867022926_1103602536360751
p90
s.