(dp0
Vreactions
p1
(dp2
Vpaging
p3
(dp4
Vcursors
p5
(dp6
Vafter
p7
VTVRBd01EQTRNRGt5TmpBME1EVTFPakUwTnpZAM05UYzNOelU2TWpVME1EazJNVFl4TXc9PQZDZD
p8
sVbefore
p9
VTVRBd01EQTRNRGt5TmpBME1EVTFPakUwTnpZAM05UYzNOelU2TWpVME1EazJNVFl4TXc9PQZDZD
p10
ssVnext
p11
Vhttps://graph.facebook.com/v2.6/296980867022926_1090525081001830/reactions?access_token=599965930180946%7C575aa5390a4589483de7f8cf99702788&limit=1&after=TVRBd01EQTRNRGt5TmpBME1EVTFPakUwTnpZAM05UYzNOelU2TWpVME1EazJNVFl4TXc9PQZDZD
p12
ssVdata
p13
(lp14
(dp15
Vtype
p16
VLIKE
p17
sVid
p18
V1826549424291460
p19
sVname
p20
VJawad Khan
p21
sassg20
VTimeline Photos
p22
sVshares
p23
(dp24
Vcount
p25
I45
ssVlink
p26
Vhttps://www.facebook.com/pakistanthebeautifull/photos/a.297140590340287.77749.296980867022926/1090525081001830/?type=3
p27
sVcomments
p28
(dp29
g3
(dp30
g5
(dp31
g7
VMQZDZD
p32
sg9
VMwZDZD
p33
sssg13
(lp34
(dp35
Vcreated_time
p36
V2016-10-09T23:58:21+0000
p37
sVmessage
p38
V
p39
sVfrom
p40
(dp41
g20
VMorgan Hammett
p42
sg18
V1039400616147423
p43
ssg18
V1090525081001830_1090791307641874
p44
sa(dp45
g36
V2016-10-10T18:20:33+0000
p46
sg38
VGreat <3
p47
sg40
(dp48
g20
VThe beauty of the Tatra Mountains
p49
sg18
V205293676289404
p50
ssg18
V1090525081001830_1091350164252655
p51
sa(dp52
g36
V2016-10-10T12:47:00+0000
p53
sg38
VAmazing of world
p54
sg40
(dp55
g20
VWahyu Setyaningrum
p56
sg18
V1196069107122060
p57
ssg18
V1090525081001830_1091170930937245
p58
sassg36
V2016-10-09T16:22:20+0000
p59
sg38
VAmazing view of rock towers from Nangma Valley GB - Pakistan\u000a\u000aPhoto by : Mark Gould
p60
sg16
Vphoto
p61
sg18
V296980867022926_1090525081001830
p62
s.