(dp0
Vreactions
p1
(dp2
Vpaging
p3
(dp4
Vcursors
p5
(dp6
Vafter
p7
VTVRnME16QXlPREU1T1RveE5EYzNOell4TWprd09qSTFOREE1TmpFMk1UTT0ZD
p8
sVbefore
p9
VTVRnME16QXlPREU1T1RveE5EYzNOell4TWprd09qSTFOREE1TmpFMk1UTT0ZD
p10
ssVnext
p11
Vhttps://graph.facebook.com/v2.6/296980867022926_1102536939800644/reactions?access_token=599965930180946%7C575aa5390a4589483de7f8cf99702788&limit=1&after=TVRnME16QXlPREU1T1RveE5EYzNOell4TWprd09qSTFOREE1TmpFMk1UTT0ZD
p12
ssVdata
p13
(lp14
(dp15
Vtype
p16
VLIKE
p17
sVid
p18
V10205777422555113
p19
sVname
p20
VAzadeh Hamedi
p21
sassg20
VTimeline Photos
p22
sVshares
p23
(dp24
Vcount
p25
I95
ssVlink
p26
Vhttps://www.facebook.com/pakistanthebeautifull/photos/a.297140590340287.77749.296980867022926/1102536939800644/?type=3
p27
sVcomments
p28
(dp29
g3
(dp30
g5
(dp31
g7
VMQZDZD
p32
sg9
VOAZDZD
p33
sssg13
(lp34
(dp35
Vcreated_time
p36
V2016-10-22T09:37:37+0000
p37
sVmessage
p38
VWhoa, falling into one of such crevasses, the guy's going to emerge in America.
p39
sVfrom
p40
(dp41
g20
VQuah Cheow Chye
p42
sg18
V1135903029864664
p43
ssg18
V1102536939800644_1102542813133390
p44
sa(dp45
g36
V2016-10-23T16:56:00+0000
p46
sg38
VYikes!
p47
sg40
(dp48
g20
VNancy Elliott
p49
sg18
V10210843704593034
p50
ssg18
V1102536939800644_1103733446347660
p51
sa(dp52
g36
V2016-10-22T20:07:38+0000
p53
sg38
VOmg..amazing
p54
sg40
(dp55
g20
VJenny Hussain
p56
sg18
V1234631546604084
p57
ssg18
V1102536939800644_1102934623094209
p58
sa(dp59
g36
V2016-10-26T07:06:47+0000
p60
sg38
VAmAziNg
p61
sg40
(dp62
g20
VSaiQa Rajput
p63
sg18
V292913534440987
p64
ssg18
V1102536939800644_1106192242768447
p65
sa(dp66
g36
V2016-10-23T02:57:44+0000
p67
sg38
VRespect
p68
sg40
(dp69
g20
VBrent Holloway
p70
sg18
V1257988924243256
p71
ssg18
V1102536939800644_1103161983071473
p72
sa(dp73
g36
V2016-10-22T12:50:21+0000
p74
sg38
VSergio Sandoval vea esto xD
p75
sg40
(dp76
g20
VRubencho Alvaguer
p77
sg18
V10209554713418364
p78
ssg18
V1102536939800644_1102672563120415
p79
sa(dp80
g36
V2016-10-24T17:17:08+0000
p81
sg38
VMehak Sheikh lets do this?
p82
sg40
(dp83
g20
VSana Latif
p84
sg18
V10210376684309432
p85
ssg18
V1102536939800644_1104581456262859
p86
sa(dp87
g36
V2016-10-22T16:44:13+0000
p88
sg38
VZeeshan Masood
p89
sg40
(dp90
g20
VShahroze Malik
p91
sg18
V1480706181956179
p92
ssg18
V1102536939800644_1102824313105240
p93
sassg36
V2016-10-22T09:24:20+0000
p94
sg38
VAdventure of Karakoram Expedition Pakistan.
p95
sg16
Vphoto
p96
sg18
V296980867022926_1102536939800644
p97
s.