(dp0
Vreactions
p1
(dp2
Vpaging
p3
(dp4
Vcursors
p5
(dp6
Vafter
p7
VTVRBd01EQTRNRGt5TmpBME1EVTFPakUwTnpZAM05UYzNPREU2TWpVME1EazJNVFl4TXc9PQZDZD
p8
sVbefore
p9
VTVRBd01EQTRNRGt5TmpBME1EVTFPakUwTnpZAM05UYzNPREU2TWpVME1EazJNVFl4TXc9PQZDZD
p10
ssVnext
p11
Vhttps://graph.facebook.com/v2.6/296980867022926_1090238434363828/reactions?access_token=599965930180946%7C575aa5390a4589483de7f8cf99702788&summary=true&limit=1&after=TVRBd01EQTRNRGt5TmpBME1EVTFPakUwTnpZAM05UYzNPREU2TWpVME1EazJNVFl4TXc9PQZDZD
p12
ssVdata
p13
(lp14
(dp15
Vtype
p16
VLIKE
p17
sVid
p18
V1826549424291460
p19
sVname
p20
VJawad Khan
p21
sasVsummary
p22
(dp23
Vtotal_count
p24
I284
sVviewer_reaction
p25
VNONE
p26
sssg20
VTimeline Photos
p27
sVshares
p28
(dp29
Vcount
p30
I51
ssVlink
p31
Vhttps://www.facebook.com/pakistanthebeautifull/photos/a.297140590340287.77749.296980867022926/1090238434363828/?type=3
p32
sVcomments
p33
(dp34
g3
(dp35
g5
(dp36
g7
VMQZDZD
p37
sg9
VMwZDZD
p38
sssg13
(lp39
(dp40
Vcreated_time
p41
V2016-10-09T23:59:24+0000
p42
sVmessage
p43
VWow pakistan,i love u with all my heart,amazing picture :)
p44
sVfrom
p45
(dp46
g20
VMorgan Hammett
p47
sg18
V1039400616147423
p48
ssg18
V1090238434363828_1090791640975174
p49
sa(dp50
g41
V2016-10-09T08:56:22+0000
p51
sg43
VBeautiful
p52
sg45
(dp53
g20
VBilal Khan
p54
sg18
V1090049167727273
p55
ssg18
V1090238434363828_1090276511026687
p56
sa(dp57
g41
V2016-10-09T16:40:12+0000
p58
sg43
VLucky sheep!  I hope they are appreciating this amazing scenery\U0001f603
p59
sg45
(dp60
g20
VMegan Barritt
p61
sg18
V10209324498287378
p62
ssg18
V1090238434363828_1090536657667339
p63
sassg41
V2016-10-09T07:30:13+0000
p64
sg43
VBeautiful Dudipatsar Lake , Upper Kaghan valley - Pakistan .
p65
sg16
Vphoto
p66
sg18
V296980867022926_1090238434363828
p67
s.