(dp0
Vreactions
p1
(dp2
Vpaging
p3
(dp4
Vcursors
p5
(dp6
Vafter
p7
VTlRBMk5qY3lPREV3T2pFME56YzRNekEwT1RjNk56ZAzROalE0TURNM09URXpNekV5
p8
sVbefore
p9
VTlRBMk5qY3lPREV3T2pFME56YzRNekEwT1RjNk56ZAzROalE0TURNM09URXpNekV5
p10
ssVnext
p11
Vhttps://graph.facebook.com/v2.6/296980867022926_1109676785753326/reactions?access_token=599965930180946%7C575aa5390a4589483de7f8cf99702788&limit=1&after=TlRBMk5qY3lPREV3T2pFME56YzRNekEwT1RjNk56ZAzROalE0TURNM09URXpNekV5
p12
ssVdata
p13
(lp14
(dp15
Vtype
p16
VLOVE
p17
sVid
p18
V10153786336527811
p19
sVname
p20
V\u0645\u062d\u0633\u0646 \u0622\u0641\u0631\u06cc\u062f\u06cc
p21
sassg20
VTimeline Photos
p22
sVshares
p23
(dp24
Vcount
p25
I41
ssVlink
p26
Vhttps://www.facebook.com/pakistanthebeautifull/photos/a.297140590340287.77749.296980867022926/1109676785753326/?type=3
p27
sVcomments
p28
(dp29
g3
(dp30
g5
(dp31
g7
VMQZDZD
p32
sg9
VMwZDZD
p33
sssg13
(lp34
(dp35
Vcreated_time
p36
V2016-10-29T15:54:19+0000
p37
sVmessage
p38
Vmehrab
p39
sVfrom
p40
(dp41
g20
VMehrab Aftab
p42
sg18
V126848714456952
p43
ssg18
V1109676785753326_1109789579075380
p44
sa(dp45
g36
V2016-10-29T14:52:49+0000
p46
sg38
VM+x+
p47
sg40
(dp48
g20
VMehrab Aftab
p49
sg18
V126848714456952
p50
ssg18
V1109676785753326_1109757375745267
p51
sa(dp52
g36
V2016-10-29T18:00:20+0000
p53
sg38
VDave Summers follow this page.  Amazing images coming out of Pakistan.
p54
sg40
(dp55
g20
VAnthony Mic McClaren
p56
sg18
V10153970200859109
p57
ssg18
V1109676785753326_1109888532398818
p58
sassg36
V2016-10-29T12:57:12+0000
p59
sg38
VImazing view of K2 from plane (with  elevation of 28,251 feet ) the 2nd highest mountain in the world , Karakoram - pakistan
p60
sg16
Vphoto
p61
sg18
V296980867022926_1109676785753326
p62
s.