(dp0
Vreactions
p1
(dp2
Vpaging
p3
(dp4
Vcursors
p5
(dp6
Vafter
p7
VTVRBd01ERXlOekU0TVRVd016TTFPakUwTnpjNE5EVTVORGc2TWpVME1EazJNVFl4TXc9PQZDZD
p8
sVbefore
p9
VTVRBd01ERXlOekU0TVRVd016TTFPakUwTnpjNE5EVTVORGc2TWpVME1EazJNVFl4TXc9PQZDZD
p10
ssVnext
p11
Vhttps://graph.facebook.com/v2.6/296980867022926_1100971783290493/reactions?access_token=599965930180946%7C575aa5390a4589483de7f8cf99702788&limit=1&after=TVRBd01ERXlOekU0TVRVd016TTFPakUwTnpjNE5EVTVORGc2TWpVME1EazJNVFl4TXc9PQZDZD
p12
ssVdata
p13
(lp14
(dp15
Vtype
p16
VLIKE
p17
sVid
p18
V211595392607731
p19
sVname
p20
VRasim Hadi Khan
p21
sassg20
VTimeline Photos
p22
sVshares
p23
(dp24
Vcount
p25
I19
ssVlink
p26
Vhttps://www.facebook.com/pakistanthebeautifull/photos/a.297140590340287.77749.296980867022926/1100971783290493/?type=3
p27
sVcomments
p28
(dp29
g3
(dp30
g5
(dp31
g7
VMQZDZD
p32
sg9
VMgZDZD
p33
sssg13
(lp34
(dp35
Vcreated_time
p36
V2016-10-20T17:49:27+0000
p37
sVmessage
p38
V
p39
sVfrom
p40
(dp41
g20
VAdrianan Nancy Hidalgo
p42
sg18
V884216898381098
p43
ssg18
V1100971783290493_1101001663287505
p44
sa(dp45
g36
V2016-10-20T17:41:50+0000
p46
sg38
V\U0001f600\U0001f600\U0001f600\U0001f600
p47
sg40
(dp48
g20
VJosef Gartner
p49
sg18
V1343768382323236
p50
ssg18
V1100971783290493_1100997406621264
p51
sassg36
V2016-10-20T16:44:58+0000
p52
sg38
VA climber towards the camp 3 on Gasherbrum II or K4,  the 13th highest mountain in the world at 8,035 metres (26,362 ft) - Pakistan .
p53
sg16
Vphoto
p54
sg18
V296980867022926_1100971783290493
p55
s.