(dp0
Vreactions
p1
(dp2
Vpaging
p3
(dp4
Vcursors
p5
(dp6
Vafter
p7
VTmpBd09EZA3hOVEl4T2pFME56Y3pOelEzTVRnNk1qVTBNRGsyTVRZAeE13PT0ZD
p8
sVbefore
p9
VTmpBd09EZA3hOVEl4T2pFME56Y3pOelEzTVRnNk1qVTBNRGsyTVRZAeE13PT0ZD
p10
ssVnext
p11
Vhttps://graph.facebook.com/v2.6/296980867022926_1091936420860696/reactions?access_token=599965930180946%7C575aa5390a4589483de7f8cf99702788&limit=1&after=TmpBd09EZA3hOVEl4T2pFME56Y3pOelEzTVRnNk1qVTBNRGsyTVRZAeE13PT0ZD
p12
ssVdata
p13
(lp14
(dp15
Vtype
p16
VLIKE
p17
sVid
p18
V10154729392061522
p19
sVname
p20
VGafyn Glyn Owen
p21
sassVshares
p22
(dp23
Vcount
p24
I40
ssVlink
p25
Vhttps://www.facebook.com/pakistanthebeautifull/videos/1091936420860696/
p26
sVcomments
p27
(dp28
g3
(dp29
g5
(dp30
g7
VMQZDZD
p31
sg9
VMwZDZD
p32
sssg13
(lp33
(dp34
Vcreated_time
p35
V2016-10-12T16:49:24+0000
p36
sVmessage
p37
VIt's not a bride peak it's broad peak
p38
sVfrom
p39
(dp40
g20
VKhuram Chauhan
p41
sg18
V721333214687220
p42
ssg18
V1091936420860696_1093222200732118
p43
sa(dp44
g35
V2016-10-11T10:08:28+0000
p45
sg37
VFaizan Liaquat
p46
sg39
(dp47
g20
VAmar Iqbal
p48
sg18
V1503920009625058
p49
ssg18
V1091936420860696_1091967140857624
p50
sa(dp51
g35
V2016-10-11T16:42:47+0000
p52
sg37
VPetz Thomas
p53
sg39
(dp54
g20
VViktoria Kuprian
p55
sg18
V10206021839139600
p56
ssg18
V1091936420860696_1092228260831512
p57
sassg35
V2016-10-11T09:22:50+0000
p58
sg37
VDavid Lama expedition of Chogolisa or Bride Peak ( 25148 ft ) Karakoram Pakistan .
p59
sg16
Vvideo
p60
sg18
V296980867022926_1091936420860696
p61
s.