(dp0
Vreactions
p1
(dp2
Vpaging
p3
(dp4
Vcursors
p5
(dp6
Vafter
p7
VTVRBd01EQTBNelV5T1RJd056TTNPakUwTnpZAME5EY3dOekU2TWpVME1EazJNVFl4TXc9PQZDZD
p8
sVbefore
p9
VTVRBd01EQTBNelV5T1RJd056TTNPakUwTnpZAME5EY3dOekU2TWpVME1EazJNVFl4TXc9PQZDZD
p10
ssVnext
p11
Vhttps://graph.facebook.com/v2.6/296980867022926_1088053917915613/reactions?access_token=599965930180946%7C575aa5390a4589483de7f8cf99702788&summary=true&limit=1&after=TVRBd01EQTBNelV5T1RJd056TTNPakUwTnpZAME5EY3dOekU2TWpVME1EazJNVFl4TXc9PQZDZD
p12
ssVdata
p13
(lp14
(dp15
Vtype
p16
VLIKE
p17
sVid
p18
V712101912278233
p19
sVname
p20
VAng Mui Im
p21
sasVsummary
p22
(dp23
Vtotal_count
p24
I125
sVviewer_reaction
p25
VNONE
p26
sssg20
VTimeline Photos
p27
sVshares
p28
(dp29
Vcount
p30
I7
ssVlink
p31
Vhttps://www.facebook.com/pakistanthebeautifull/photos/a.297140590340287.77749.296980867022926/1088053917915613/?type=3
p32
sVcomments
p33
(dp34
g3
(dp35
g5
(dp36
g7
VMQZDZD
p37
sg9
VNQZDZD
p38
sssg13
(lp39
(dp40
Vcreated_time
p41
V2016-10-06T11:00:59+0000
p42
sVmessage
p43
VFarrukh Jamil l told u about that place
p44
sVfrom
p45
(dp46
g20
VErum Farrukh
p47
sg18
V507372176139158
p48
ssg18
V1088053917915613_1088057257915279
p49
sa(dp50
g41
V2016-10-06T22:35:59+0000
p51
sg43
V
p52
sg45
(dp53
g20
VMorgan Hammett
p54
sg18
V1039400616147423
p55
ssg18
V1088053917915613_1088436977877307
p56
sa(dp57
g41
V2016-10-06T19:41:51+0000
p58
sg43
Vits monkey face more then a lion\u000awhat do you say?
p59
sg45
(dp60
g20
VZeshan Ali
p61
sg18
V1489437561083199
p62
ssg18
V1088053917915613_1088355954552076
p63
sa(dp64
g41
V2016-10-06T14:46:49+0000
p65
sg43
Vlion face?? monkey face !!
p66
sg45
(dp67
g20
VMatteo Spiri
p68
sg18
V10208966567978624
p69
ssg18
V1088053917915613_1088179031236435
p70
sa(dp71
g41
V2016-10-06T12:04:22+0000
p72
sg43
VPrecious Stone ye kahan tha
p73
sg45
(dp74
g20
VAmar Iqbal
p75
sg18
V1503920009625058
p76
ssg18
V1088053917915613_1088087227912282
p77
sassg41
V2016-10-06T10:50:57+0000
p78
sg43
VLion face Mountain .  Urak  Valley , near Hanna Lake , Balochistan - Pakistan .\u000a\u000aFoto by : Danial Shah .
p79
sg16
Vphoto
p80
sg18
V296980867022926_1088053917915613
p81
s.