(dp0
Vreactions
p1
(dp2
Vpaging
p3
(dp4
Vcursors
p5
(dp6
Vafter
p7
VTVRFeE5EVXpPREEwTkRveE5EYzFPRFl4T0RZAM09qSTFOREE1TmpFMk1UTT0ZD
p8
sVbefore
p9
VTVRFeE5EVXpPREEwTkRveE5EYzFPRFl4T0RZAM09qSTFOREE1TmpFMk1UTT0ZD
p10
ssVnext
p11
Vhttps://graph.facebook.com/v2.6/296980867022926_1084144081639930/reactions?access_token=599965930180946%7C575aa5390a4589483de7f8cf99702788&summary=true&limit=1&after=TVRFeE5EVXpPREEwTkRveE5EYzFPRFl4T0RZAM09qSTFOREE1TmpFMk1UTT0ZD
p12
ssVdata
p13
(lp14
(dp15
Vtype
p16
VLIKE
p17
sVid
p18
V10207182841585428
p19
sVname
p20
VMohammad Mafi
p21
sasVsummary
p22
(dp23
Vtotal_count
p24
I679
sVviewer_reaction
p25
VNONE
p26
sssg20
VTimeline Photos
p27
sVshares
p28
(dp29
Vcount
p30
I58
ssVlink
p31
Vhttps://www.facebook.com/pakistanthebeautifull/photos/a.297140590340287.77749.296980867022926/1084144081639930/?type=3
p32
sVcomments
p33
(dp34
g3
(dp35
g5
(dp36
g7
VMQZDZD
p37
sg9
VMTMZD
p38
sssg13
(lp39
(dp40
Vcreated_time
p41
V2016-10-02T03:49:21+0000
p42
sVmessage
p43
VThat's in the death zone
p44
sVfrom
p45
(dp46
g20
VSheldon James
p47
sg18
V10153778276311652
p48
ssg18
V1084144081639930_1084524744935197
p49
sa(dp50
g41
V2016-10-02T02:59:10+0000
p51
sg43
VSo awesome :)
p52
sg45
(dp53
g20
VMorgan Hammett
p54
sg18
V1039400616147423
p55
ssg18
V1084144081639930_1084495601604778
p56
sa(dp57
g41
V2016-10-02T08:26:06+0000
p58
sg43
VRupal wand?
p59
sg45
(dp60
g20
VWell Done Pete
p61
sg18
V10207867421623144
p62
ssg18
V1084144081639930_1084678368253168
p63
sa(dp64
g41
V2016-10-01T18:26:16+0000
p65
sg43
Vthis Man got Balls !!!!!! n 1 Daniele Nardi !!
p66
sg45
(dp67
g20
VMatteo Spiri
p68
sg18
V10208966567978624
p69
ssg18
V1084144081639930_1084205614967110
p70
sa(dp71
g41
V2016-10-02T06:43:58+0000
p72
sg43
VWell done
p73
sg45
(dp74
g20
VAsad Awan
p75
sg18
V1312608498763077
p76
ssg18
V1084144081639930_1084633128257692
p77
sa(dp78
g41
V2016-10-01T17:02:42+0000
p79
sg43
VGrande Daniele
p80
sg45
(dp81
g20
VFabio Caruso
p82
sg18
V10207369721857152
p83
ssg18
V1084144081639930_1084155978305407
p84
sa(dp85
g41
V2016-10-01T17:17:28+0000
p86
sg43
VNice pic \U0001f600
p87
sg45
(dp88
g20
VJosef Gartner
p89
sg18
V1343768382323236
p90
ssg18
V1084144081639930_1084163591637979
p91
sa(dp92
g41
V2016-10-01T17:04:17+0000
p93
sg43
VAlessandro petit trek?
p94
sg45
(dp95
g20
VOlivier Sorel-Desrochers
p96
sg18
V10154211175648742
p97
ssg18
V1084144081639930_1084156728305332
p98
sa(dp99
g41
V2016-10-02T15:05:28+0000
p100
sg43
VAwesome, i had visited base camp 2 of Nanga Parbat  3 years before
p101
sg45
(dp102
g20
VImran Nazir
p103
sg18
V1588040954838201
p104
ssg18
V1084144081639930_1084911978229807
p105
sa(dp106
g41
V2016-10-01T16:59:27+0000
p107
sg43
VKiller :P\u000aSyed Zeeshan Irfan Majeed Sanaullah Channa Subhan Nasir
p108
sg45
(dp109
g20
VMuhammad Saad
p110
sg18
V1292264740817446
p111
ssg18
V1084144081639930_1084153911638947
p112
sa(dp113
g41
V2016-10-01T17:03:58+0000
p114
sg43
VBaburiko
p115
sg45
(dp116
g20
VIlgar Alishli
p117
sg18
V1446171358745715
p118
ssg18
V1084144081639930_1084156534972018
p119
sa(dp120
g41
V2016-10-02T09:00:59+0000
p121
sg43
VMuhammad Arsalan
p122
sg45
(dp123
g20
VNAeem AFridi
p124
sg18
V982729941873762
p125
ssg18
V1084144081639930_1084691904918481
p126
sa(dp127
g41
V2016-10-03T01:02:42+0000
p128
sg43
VOsama Anjum
p129
sg45
(dp130
g20
VNabeel Anjum
p131
sg18
V10157726903810445
p132
ssg18
V1084144081639930_1085282111526127
p133
sassg41
V2016-10-01T16:46:26+0000
p134
sg43
VA climber Daniele Nardi climbing Nanga Parbat also known as killer mountain 8,126 m (26,660 ft) , Himalaya range of Pakistan .
p135
sg16
Vphoto
p136
sg18
V296980867022926_1084144081639930
p137
s.