(dp0
Vreactions
p1
(dp2
Vpaging
p3
(dp4
Vcursors
p5
(dp6
Vafter
p7
VTVRBd01EQXhOekV5T0RnNU56VXlPakUwTnpjM056RXdOalk2TWpVME1EazJNVFl4TXc9PQZDZD
p8
sVbefore
p9
VTVRBd01EQXhOekV5T0RnNU56VXlPakUwTnpjM056RXdOalk2TWpVME1EazJNVFl4TXc9PQZDZD
p10
ssVnext
p11
Vhttps://graph.facebook.com/v2.6/296980867022926_1107490422638629/reactions?access_token=599965930180946%7C575aa5390a4589483de7f8cf99702788&limit=1&after=TVRBd01EQXhOekV5T0RnNU56VXlPakUwTnpjM056RXdOalk2TWpVME1EazJNVFl4TXc9PQZDZD
p12
ssVdata
p13
(lp14
(dp15
Vtype
p16
VLIKE
p17
sVid
p18
V1208602442540174
p19
sVname
p20
VImran Nomi
p21
sassg20
VTimeline Photos
p22
sVshares
p23
(dp24
Vcount
p25
I18
ssVlink
p26
Vhttps://www.facebook.com/pakistanthebeautifull/photos/a.297140590340287.77749.296980867022926/1107490422638629/?type=3
p27
sVcomments
p28
(dp29
g3
(dp30
g5
(dp31
g7
VMQZDZD
p32
sg9
VMgZDZD
p33
sssg13
(lp34
(dp35
Vcreated_time
p36
V2016-10-28T09:51:37+0000
p37
sVmessage
p38
VThis bridge was designed and supervised by NESPAK Pakistan. Beautiful bridge
p39
sVfrom
p40
(dp41
g20
VZeeshan Khurshid
p42
sg18
V610240459145615
p43
ssg18
V1107490422638629_1108476849206653
p44
sa(dp45
g36
V2016-10-28T12:18:15+0000
p46
sg38
VHello,do you need a Canada working visa with a 2 years guaranteed working permit? I am Waqas from Canada consultancy. Kindly note that applicant must have up to 2 years working experience in the field of work. Available work are salesperson, Security, Accountant, Drivers and Cook at Walmart superstore. Kindly message me now for more information to apply.
p47
sg40
(dp48
g20
VRehman Waqas UL
p49
sg18
V134328330372313
p50
ssg18
V1107490422638629_1108586332529038
p51
sassg36
V2016-10-27T09:33:57+0000
p52
sg38
VBeauty of Muzafarabad , Kashmir Pakistan
p53
sg16
Vphoto
p54
sg18
V296980867022926_1107490422638629
p55
s.