(dp0
Vreactions
p1
(dp2
Vpaging
p3
(dp4
Vcursors
p5
(dp6
Vafter
p7
VTVRBd01EQTJOREk1TWpnMk16azVPakUwTnpjeU1EQTROREU2TWpVME1EazJNVFl4TXc9PQZDZD
p8
sVbefore
p9
VTVRBd01EQTJOREk1TWpnMk16azVPakUwTnpjeU1EQTROREU2TWpVME1EazJNVFl4TXc9PQZDZD
p10
ssVnext
p11
Vhttps://graph.facebook.com/v2.6/296980867022926_1087935734594098/reactions?access_token=599965930180946%7C575aa5390a4589483de7f8cf99702788&summary=true&limit=1&after=TVRBd01EQTJOREk1TWpnMk16azVPakUwTnpjeU1EQTROREU2TWpVME1EazJNVFl4TXc9PQZDZD
p12
ssVdata
p13
(lp14
(dp15
Vtype
p16
VLIKE
p17
sVid
p18
V2136272739930348
p19
sVname
p20
VAslam Faridi
p21
sasVsummary
p22
(dp23
Vtotal_count
p24
I312
sVviewer_reaction
p25
VNONE
p26
sssg20
VTimeline Photos
p27
sVshares
p28
(dp29
Vcount
p30
I32
ssVlink
p31
Vhttps://www.facebook.com/pakistanthebeautifull/photos/a.297140590340287.77749.296980867022926/1087935734594098/?type=3
p32
sVcomments
p33
(dp34
g3
(dp35
g5
(dp36
g7
VMQZDZD
p37
sg9
VNAZDZD
p38
sssg13
(lp39
(dp40
Vcreated_time
p41
V2016-10-06T08:04:24+0000
p42
sVmessage
p43
V
p44
sVfrom
p45
(dp46
g20
VMorgan Hammett
p47
sg18
V1039400616147423
p48
ssg18
V1087935734594098_1087965697924435
p49
sa(dp50
g41
V2016-10-06T07:08:57+0000
p51
sg43
VNice
p52
sg45
(dp53
g20
VSardar M Pak
p54
sg18
V183633188759918
p55
ssg18
V1087935734594098_1087940644593607
p56
sa(dp57
g41
V2016-10-06T15:24:22+0000
p58
sg43
VCalista Ocean
p59
sg45
(dp60
g20
VJames Highfill
p61
sg18
V10209839797203943
p62
ssg18
V1087935734594098_1088200677900937
p63
sa(dp64
g41
V2016-10-06T11:10:41+0000
p65
sg43
V"Switzerland of the Orient"
p66
sg45
(dp67
g20
VAndrei Raftopol
p68
sg18
V390144747983732
p69
ssg18
V1087935734594098_1088060411248297
p70
sassg41
V2016-10-06T07:05:44+0000
p71
sg43
VBeautiful Karakoram Highway , GB , Pakistan
p72
sg16
Vphoto
p73
sg18
V296980867022926_1087935734594098
p74
s.