(dp0
Vreactions
p1
(dp2
Vpaging
p3
(dp4
Vcursors
p5
(dp6
Vafter
p7
VTVRBd01EQTBNelV5T1RJd056TTNPakUwTnpZAek56azJPREk2TWpVME1EazJNVFl4TXc9PQZDZD
p8
sVbefore
p9
VTVRBd01EQTBNelV5T1RJd056TTNPakUwTnpZAek56azJPREk2TWpVME1EazJNVFl4TXc9PQZDZD
p10
ssVnext
p11
Vhttps://graph.facebook.com/v2.6/296980867022926_1086992068021798/reactions?access_token=599965930180946%7C575aa5390a4589483de7f8cf99702788&summary=true&limit=1&after=TVRBd01EQTBNelV5T1RJd056TTNPakUwTnpZAek56azJPREk2TWpVME1EazJNVFl4TXc9PQZDZD
p12
ssVdata
p13
(lp14
(dp15
Vtype
p16
VLIKE
p17
sVid
p18
V712101912278233
p19
sVname
p20
VAng Mui Im
p21
sasVsummary
p22
(dp23
Vtotal_count
p24
I269
sVviewer_reaction
p25
VNONE
p26
sssg20
VTimeline Photos
p27
sVshares
p28
(dp29
Vcount
p30
I34
ssVlink
p31
Vhttps://www.facebook.com/pakistanthebeautifull/photos/a.297140590340287.77749.296980867022926/1086992068021798/?type=3
p32
sVcomments
p33
(dp34
g3
(dp35
g5
(dp36
g7
VMQZDZD
p37
sg9
VOAZDZD
p38
sssg13
(lp39
(dp40
Vcreated_time
p41
V2016-10-05T04:47:15+0000
p42
sVmessage
p43
VToo beautiful :)
p44
sVfrom
p45
(dp46
g20
VMorgan Hammett
p47
sg18
V1039400616147423
p48
ssg18
V1086992068021798_1087000461354292
p49
sa(dp50
g41
V2016-10-05T07:52:48+0000
p51
sg43
V\U0001f60d\U0001f60d\U0001f60d
p52
sg45
(dp53
g20
VPiter Bikerforever Fox
p54
sg18
V1071297202960801
p55
ssg18
V1086992068021798_1087074331346905
p56
sa(dp57
g41
V2016-10-05T16:01:40+0000
p58
sg43
VBeautiful
p59
sg45
(dp60
g20
VSarwat Farid
p61
sg18
V1828150517470843
p62
ssg18
V1086992068021798_1087344604653211
p63
sa(dp64
g41
V2016-10-05T10:27:52+0000
p65
sg43
Vbeautiful
p66
sg45
(dp67
g20
VEid Amon
p68
sg18
V1808944726044035
p69
ssg18
V1086992068021798_1087149394672732
p70
sa(dp71
g41
V2016-10-06T01:47:52+0000
p72
sg43
VWow!!! Beautiful
p73
sg45
(dp74
g20
VNaheed Omar
p75
sg18
V10208015244276359
p76
ssg18
V1086992068021798_1087767157944289
p77
sa(dp78
g41
V2016-10-05T16:01:44+0000
p79
sg43
VBeautiful
p80
sg45
(dp81
g20
VSarwat Farid
p82
sg18
V1828150517470843
p83
ssg18
V1086992068021798_1087344641319874
p84
sa(dp85
g41
V2016-10-05T18:12:37+0000
p86
sg43
VSo beautiful
p87
sg45
(dp88
g20
VTalat Tariq
p89
sg18
V1802930159986799
p90
ssg18
V1086992068021798_1087500634637608
p91
sa(dp92
g41
V2016-10-05T11:36:14+0000
p93
sg43
VJust return from seven day tour to hunza \U0001f601
p94
sg45
(dp95
g20
VFawaz Shakil Faruqi
p96
sg18
V1144151922335765
p97
ssg18
V1086992068021798_1087176781336660
p98
sassg41
V2016-10-05T04:28:08+0000
p99
sg43
VAerial view of Karakoram Highway and Passu cones , GB , Pakistan .
p100
sg16
Vphoto
p101
sg18
V296980867022926_1086992068021798
p102
s.