(dp0
Vreactions
p1
(dp2
Vpaging
p3
(dp4
Vcursors
p5
(dp6
Vafter
p7
VTVRBd01EQTFNamczT0RNNE56WTRPakUwTnpjNE9USTJOalk2TWpVME1EazJNVFl4TXc9PQZDZD
p8
sVbefore
p9
VTVRBd01EQTFNamczT0RNNE56WTRPakUwTnpjNE9USTJOalk2TWpVME1EazJNVFl4TXc9PQZDZD
p10
ssVnext
p11
Vhttps://graph.facebook.com/v2.6/296980867022926_1109839549070383/reactions?access_token=599965930180946%7C575aa5390a4589483de7f8cf99702788&limit=1&after=TVRBd01EQTFNamczT0RNNE56WTRPakUwTnpjNE9USTJOalk2TWpVME1EazJNVFl4TXc9PQZDZD
p12
ssVdata
p13
(lp14
(dp15
Vtype
p16
VLIKE
p17
sVid
p18
V586781101508146
p19
sVname
p20
VSaddamhussain Saddamhussain
p21
sassg20
VTimeline Photos
p22
sVshares
p23
(dp24
Vcount
p25
I12
ssVlink
p26
Vhttps://www.facebook.com/pakistanthebeautifull/photos/a.297140590340287.77749.296980867022926/1109839549070383/?type=3
p27
sVcomments
p28
(dp29
g3
(dp30
g5
(dp31
g7
VMQZDZD
p32
sg9
VMgZDZD
p33
sssg13
(lp34
(dp35
Vcreated_time
p36
V2016-10-29T17:14:33+0000
p37
sVmessage
p38
VStunning!
p39
sVfrom
p40
(dp41
g20
VAnne Hussain
p42
sg18
V1704549436478255
p43
ssg18
V1109839549070383_1109850262402645
p44
sa(dp45
g36
V2016-10-29T17:35:25+0000
p46
sg38
VWow
p47
sg40
(dp48
g20
VSyed Shahbaz Ali
p49
sg18
V1589595381369610
p50
ssg18
V1109839549070383_1109867282400943
p51
sassg36
V2016-10-29T17:00:05+0000
p52
sg38
VHeli over great Trango Tower , Karakoram Pakistan .
p53
sg16
Vphoto
p54
sg18
V296980867022926_1109839549070383
p55
s.