(dp0
Vreactions
p1
(dp2
Vpaging
p3
(dp4
Vcursors
p5
(dp6
Vafter
p7
VTVRBd01EQXpOakk1T1RVd016ZAzFPakUwTnpjMk9UVXdOalk2TWpVME1EazJNVFl4TXc9PQZDZD
p8
sVbefore
p9
VTVRBd01EQXpOakk1T1RVd016ZAzFPakUwTnpjMk9UVXdOalk2TWpVME1EazJNVFl4TXc9PQZDZD
p10
ssVnext
p11
Vhttps://graph.facebook.com/v2.6/296980867022926_1097034120350926/reactions?access_token=599965930180946%7C575aa5390a4589483de7f8cf99702788&limit=1&after=TVRBd01EQXpOakk1T1RVd016ZAzFPakUwTnpjMk9UVXdOalk2TWpVME1EazJNVFl4TXc9PQZDZD
p12
ssVdata
p13
(lp14
(dp15
Vtype
p16
VLIKE
p17
sVid
p18
V902409709890019
p19
sVname
p20
VAhsan Ali
p21
sassg20
VTimeline Photos
p22
sVshares
p23
(dp24
Vcount
p25
I16
ssVlink
p26
Vhttps://www.facebook.com/pakistanthebeautifull/photos/a.297140590340287.77749.296980867022926/1097034120350926/?type=3
p27
sVcomments
p28
(dp29
g3
(dp30
g5
(dp31
g7
VMQZDZD
p32
sg9
VMgZDZD
p33
sssg13
(lp34
(dp35
Vcreated_time
p36
V2016-10-16T12:39:06+0000
p37
sVmessage
p38
VNot the best place to be in a fever!
p39
sVfrom
p40
(dp41
g20
VNiall Annan
p42
sg18
V10154621048968373
p43
ssg18
V1097034120350926_1097049937016011
p44
sa(dp45
g36
V2016-10-16T16:38:26+0000
p46
sg38
V\u0410\u043b\u0435\u043a\u0441\u0430\u043d\u0434\u0440\u0430 topliccko
p47
sg40
(dp48
g20
V\u0410\u043d\u0434\u0440\u0435\u0458 \u041c\u0438\u043d\u0447\u0435\u0432\u0441\u043a\u0438
p49
sg18
V1743490169248141
p50
ssg18
V1097034120350926_1097195113668160
p51
sassg36
V2016-10-16T12:11:41+0000
p52
sg38
VA climber in fever  at almost 7000m on Link sar Peak - Pakistan .
p53
sg16
Vphoto
p54
sg18
V296980867022926_1097034120350926
p55
s.