(dp0
Vreactions
p1
(dp2
Vpaging
p3
(dp4
Vcursors
p5
(dp6
Vafter
p7
VTVRBd01EQTRNRGt5TmpBME1EVTFPakUwTnpZAM05UYzNPVEE2TWpVME1EazJNVFl4TXc9PQZDZD
p8
sVbefore
p9
VTVRBd01EQTRNRGt5TmpBME1EVTFPakUwTnpZAM05UYzNPVEE2TWpVME1EazJNVFl4TXc9PQZDZD
p10
ssVnext
p11
Vhttps://graph.facebook.com/v2.6/296980867022926_1088938067827198/reactions?access_token=599965930180946%7C575aa5390a4589483de7f8cf99702788&summary=true&limit=1&after=TVRBd01EQTRNRGt5TmpBME1EVTFPakUwTnpZAM05UYzNPVEE2TWpVME1EazJNVFl4TXc9PQZDZD
p12
ssVdata
p13
(lp14
(dp15
Vtype
p16
VLIKE
p17
sVid
p18
V1826549424291460
p19
sVname
p20
VJawad Khan
p21
sasVsummary
p22
(dp23
Vtotal_count
p24
I254
sVviewer_reaction
p25
VNONE
p26
sssg20
VTimeline Photos
p27
sVshares
p28
(dp29
Vcount
p30
I34
ssVlink
p31
Vhttps://www.facebook.com/pakistanthebeautifull/photos/a.297140590340287.77749.296980867022926/1088938067827198/?type=3
p32
sVcomments
p33
(dp34
g3
(dp35
g5
(dp36
g7
VMQZDZD
p37
sg9
VMgZDZD
p38
sssg13
(lp39
(dp40
Vcreated_time
p41
V2016-10-11T19:06:22+0000
p42
sVmessage
p43
VSweet memories Tom Robyn?
p44
sVfrom
p45
(dp46
g20
VGunter Vanden Neucker
p47
sg18
V1790686977870141
p48
ssg18
V1088938067827198_1092317864155885
p49
sa(dp50
g41
V2016-10-08T02:05:17+0000
p51
sg43
VBump up the exposure on that pic Jeff. https://www.facebook.com/photo.php?fbid=10150999885977377&set=a.10150998564567377.412517.690227376&type=3&theater
p52
sg45
(dp53
g20
VBrad Jackson
p54
sg18
V10153496900437377
p55
ssg18
V1088938067827198_1089267341127604
p56
sassg41
V2016-10-07T16:39:51+0000
p57
sg43
VStunning view at Camp 3 on Spantic Peak , Karakoram  Pakistan .\u000a\u000aFoto by : Jef Houben
p58
sg16
Vphoto
p59
sg18
V296980867022926_1088938067827198
p60
s.