(dp0
Vreactions
p1
(dp2
Vpaging
p3
(dp4
Vcursors
p5
(dp6
Vafter
p7
VTVRBd01EQXhOelF4TVRJMU1ESTRPakUwTnpjek1USXpNalE2TWpVME1EazJNVFl4TXc9PQZDZD
p8
sVbefore
p9
VTVRBd01EQXhOelF4TVRJMU1ESTRPakUwTnpjek1USXpNalE2TWpVME1EazJNVFl4TXc9PQZDZD
p10
ssVnext
p11
Vhttps://graph.facebook.com/v2.6/296980867022926_1091850444202627/reactions?access_token=599965930180946%7C575aa5390a4589483de7f8cf99702788&limit=1&after=TVRBd01EQXhOelF4TVRJMU1ESTRPakUwTnpjek1USXpNalE2TWpVME1EazJNVFl4TXc9PQZDZD
p12
ssVdata
p13
(lp14
(dp15
Vtype
p16
VLIKE
p17
sVid
p18
V1180526322015394
p19
sVname
p20
VIrfan Ahmad Malik
p21
sassg20
VTimeline Photos
p22
sVshares
p23
(dp24
Vcount
p25
I11
ssVlink
p26
Vhttps://www.facebook.com/pakistanthebeautifull/photos/a.297140590340287.77749.296980867022926/1091850444202627/?type=3
p27
sVcomments
p28
(dp29
g3
(dp30
g5
(dp31
g7
VMQZDZD
p32
sg9
VMgZDZD
p33
sssg13
(lp34
(dp35
Vcreated_time
p36
V2016-10-11T07:13:22+0000
p37
sVmessage
p38
V
p39
sVfrom
p40
(dp41
g20
VMorgan Hammett
p42
sg18
V1039400616147423
p43
ssg18
V1091850444202627_1091884154199256
p44
sa(dp45
g36
V2016-10-11T06:40:05+0000
p46
sg38
VMorning! ..damn fucking cold out there!  Be safe!
p47
sg40
(dp48
g20
VParvulescu Claudiu Frantz
p49
sg18
V1346925925340824
p50
ssg18
V1091850444202627_1091869004200771
p51
sassg36
V2016-10-11T06:15:24+0000
p52
sg38
VGood Morning from Broad Peak ( 8051 m ) Karakoram - Pakistan .
p53
sg16
Vphoto
p54
sg18
V296980867022926_1091850444202627
p55
s.