(dp0
Vreactions
p1
(dp2
Vpaging
p3
(dp4
Vcursors
p5
(dp6
Vafter
p7
VTVRBd01ERXdNVFkwT1RBMU16UTJPakUwTnpjeU5EQXdOalU2TWpVME1EazJNVFl4TXc9PQZDZD
p8
sVbefore
p9
VTVRBd01ERXdNVFkwT1RBMU16UTJPakUwTnpjeU5EQXdOalU2TWpVME1EazJNVFl4TXc9PQZDZD
p10
ssVnext
p11
Vhttps://graph.facebook.com/v2.6/296980867022926_1095016230552715/reactions?access_token=599965930180946%7C575aa5390a4589483de7f8cf99702788&limit=1&after=TVRBd01ERXdNVFkwT1RBMU16UTJPakUwTnpjeU5EQXdOalU2TWpVME1EazJNVFl4TXc9PQZDZD
p12
ssVdata
p13
(lp14
(dp15
Vtype
p16
VLIKE
p17
sVid
p18
V344613032554191
p19
sVname
p20
VHancy Rehan Tanha
p21
sassg20
VTimeline Photos
p22
sVshares
p23
(dp24
Vcount
p25
I20
ssVlink
p26
Vhttps://www.facebook.com/pakistanthebeautifull/photos/a.297140590340287.77749.296980867022926/1095016230552715/?type=3
p27
sVcomments
p28
(dp29
g3
(dp30
g5
(dp31
g7
VMQZDZD
p32
sg9
VMQZDZD
p33
sssg13
(lp34
(dp35
Vcreated_time
p36
V2016-10-15T05:35:32+0000
p37
sVmessage
p38
V
p39
sVfrom
p40
(dp41
g20
VMorgan Hammett
p42
sg18
V1039400616147423
p43
ssg18
V1095016230552715_1095908967130108
p44
sassg36
V2016-10-14T07:31:03+0000
p45
sg38
VClimber passing through the Glacier stream at Concordia , Karakoram Pakistan\u000aPhoto By: David Kaszlikowski
p46
sg16
Vphoto
p47
sg18
V296980867022926_1095016230552715
p48
s.