(dp0
Vreactions
p1
(dp2
Vpaging
p3
(dp4
Vcursors
p5
(dp6
Vafter
p7
VTVRBd01EQXdORFF6TVRjeU9UQTFPakUwTnpjeU1EVTBNalk2TWpVME1EazJNVFl4TXc9PQZDZD
p8
sVbefore
p9
VTVRBd01EQXdORFF6TVRjeU9UQTFPakUwTnpjeU1EVTBNalk2TWpVME1EazJNVFl4TXc9PQZDZD
p10
ssVnext
p11
Vhttps://graph.facebook.com/v2.6/296980867022926_1085414928179512/reactions?access_token=599965930180946%7C575aa5390a4589483de7f8cf99702788&summary=true&limit=1&after=TVRBd01EQXdORFF6TVRjeU9UQTFPakUwTnpjeU1EVTBNalk2TWpVME1EazJNVFl4TXc9PQZDZD
p12
ssVdata
p13
(lp14
(dp15
Vtype
p16
VLIKE
p17
sVid
p18
V1306604932697600
p19
sVname
p20
VNasir Butt
p21
sasVsummary
p22
(dp23
Vtotal_count
p24
I230
sVviewer_reaction
p25
VNONE
p26
sssg20
VTimeline Photos
p27
sVshares
p28
(dp29
Vcount
p30
I19
ssVlink
p31
Vhttps://www.facebook.com/pakistanthebeautifull/photos/a.297140590340287.77749.296980867022926/1085414928179512/?type=3
p32
sVcomments
p33
(dp34
g3
(dp35
g5
(dp36
g7
VMQZDZD
p37
sg9
VMgZDZD
p38
sssg13
(lp39
(dp40
Vcreated_time
p41
V2016-10-03T07:20:53+0000
p42
sVmessage
p43
VMasha Allah
p44
sVfrom
p45
(dp46
g20
VAsma Farouk
p47
sg18
V1192267424139868
p48
ssg18
V1085414928179512_1085459618175043
p49
sa(dp50
g41
V2016-10-03T08:46:03+0000
p51
sg43
VBeautiful \u000aWould love to visit one day
p52
sg45
(dp53
g20
VAli Waheed
p54
sg18
V1604689836493314
p55
ssg18
V1085414928179512_1085495091504829
p56
sassg41
V2016-10-03T05:30:01+0000
p57
sg43
VDudipatsar lake , kaghan valley Pakistan .
p58
sg16
Vphoto
p59
sg18
V296980867022926_1085414928179512
p60
s.