(dp0
Vreactions
p1
(dp2
Vpaging
p3
(dp4
Vcursors
p5
(dp6
Vafter
p7
VTVRBd01EQTJPVEE0TlRVeE1qWTBPakUwTnpZAME5ESXhOek02TWpVME1EazJNVFl4TXc9PQZDZD
p8
sVbefore
p9
VTVRBd01EQTJPVEE0TlRVeE1qWTBPakUwTnpZAME5ESXhOek02TWpVME1EazJNVFl4TXc9PQZDZD
p10
ssVnext
p11
Vhttps://graph.facebook.com/v2.6/296980867022926_1087091254678546/reactions?access_token=599965930180946%7C575aa5390a4589483de7f8cf99702788&summary=true&limit=1&after=TVRBd01EQTJPVEE0TlRVeE1qWTBPakUwTnpZAME5ESXhOek02TWpVME1EazJNVFl4TXc9PQZDZD
p12
ssVdata
p13
(lp14
(dp15
Vtype
p16
VLIKE
p17
sVid
p18
V1768691463371122
p19
sVname
p20
VAli Sh
p21
sasVsummary
p22
(dp23
Vtotal_count
p24
I395
sVviewer_reaction
p25
VNONE
p26
sssg20
VTimeline Photos
p27
sVshares
p28
(dp29
Vcount
p30
I43
ssVlink
p31
Vhttps://www.facebook.com/pakistanthebeautifull/photos/a.297140590340287.77749.296980867022926/1087091254678546/?type=3
p32
sVcomments
p33
(dp34
g3
(dp35
g5
(dp36
g7
VMQZDZD
p37
sg9
VNQZDZD
p38
sssg13
(lp39
(dp40
Vcreated_time
p41
V2016-10-05T10:25:39+0000
p42
sVmessage
p43
Vso wonderful
p44
sVfrom
p45
(dp46
g20
VEid Amon
p47
sg18
V1808944726044035
p48
ssg18
V1087091254678546_1087148468006158
p49
sa(dp50
g41
V2016-10-06T04:32:38+0000
p51
sg43
VWow beautiful :)
p52
sg45
(dp53
g20
VMorgan Hammett
p54
sg18
V1039400616147423
p55
ssg18
V1087091254678546_1087849594602712
p56
sa(dp57
g41
V2016-10-05T09:25:17+0000
p58
sg43
VSooooo lovely
p59
sg45
(dp60
g20
VAfia Feya
p61
sg18
V1827365904166257
p62
ssg18
V1087091254678546_1087109794676692
p63
sa(dp64
g41
V2016-10-06T11:01:59+0000
p65
sg43
Vthis nature-wonder need include UNESCO !!
p66
sg45
(dp67
g20
VAndrei Raftopol
p68
sg18
V390144747983732
p69
ssg18
V1087091254678546_1088057767915228
p70
sa(dp71
g41
V2016-10-05T16:17:22+0000
p72
sg43
VBeautiful !!!
p73
sg45
(dp74
g20
VMargit Santer
p75
sg18
V1159866650773949
p76
ssg18
V1087091254678546_1087359607985044
p77
sassg41
V2016-10-05T08:45:55+0000
p78
sg43
VBatura Glacier, Karakoram Pakistan.         Photo credit: Dave Watson.
p79
sg16
Vphoto
p80
sg18
V296980867022926_1087091254678546
p81
s.