(dp0
Vreactions
p1
(dp2
Vpaging
p3
(dp4
Vcursors
p5
(dp6
Vafter
p7
VTVRBd01ERXdNVFkwT1RBMU16UTJPakUwTnpjeU5EQXdOalE2TWpVME1EazJNVFl4TXc9PQZDZD
p8
sVbefore
p9
VTVRBd01ERXdNVFkwT1RBMU16UTJPakUwTnpjeU5EQXdOalE2TWpVME1EazJNVFl4TXc9PQZDZD
p10
ssVnext
p11
Vhttps://graph.facebook.com/v2.6/296980867022926_1095090863878585/reactions?access_token=599965930180946%7C575aa5390a4589483de7f8cf99702788&limit=1&after=TVRBd01ERXdNVFkwT1RBMU16UTJPakUwTnpjeU5EQXdOalE2TWpVME1EazJNVFl4TXc9PQZDZD
p12
ssVdata
p13
(lp14
(dp15
Vtype
p16
VLIKE
p17
sVid
p18
V344613032554191
p19
sVname
p20
VHancy Rehan Tanha
p21
sassVshares
p22
(dp23
Vcount
p24
I36
ssVlink
p25
Vhttps://www.facebook.com/pakistanthebeautifull/videos/1095090863878585/
p26
sVcomments
p27
(dp28
g3
(dp29
g5
(dp30
g7
VMQZDZD
p31
sg9
VMQZDZD
p32
sssg13
(lp33
(dp34
Vcreated_time
p35
V2016-10-14T09:50:35+0000
p36
sVmessage
p37
VAmazing
p38
sVfrom
p39
(dp40
g20
VBilal Khan
p41
sg18
V1090049167727273
p42
ssg18
V1095090863878585_1095110907209914
p43
sassg35
V2016-10-14T09:45:48+0000
p44
sg37
VAmazing video of Skiing on the roof of the world , Karakoram Pakistan
p45
sg16
Vvideo
p46
sg18
V296980867022926_1095090863878585
p47
s.