(dp0
Vreactions
p1
(dp2
Vpaging
p3
(dp4
Vcursors
p5
(dp6
Vafter
p7
VTVRBd01EQXdOamMyTWpFMk5URTRPakUwTnpjNE5ESTNNVEE2TWpVME1EazJNVFl4TXc9PQZDZD
p8
sVbefore
p9
VTVRBd01EQXdOamMyTWpFMk5URTRPakUwTnpjNE5ESTNNVEE2TWpVME1EazJNVFl4TXc9PQZDZD
p10
ssVnext
p11
Vhttps://graph.facebook.com/v2.6/296980867022926_1098040630250275/reactions?access_token=599965930180946%7C575aa5390a4589483de7f8cf99702788&limit=1&after=TVRBd01EQXdOamMyTWpFMk5URTRPakUwTnpjNE5ESTNNVEE2TWpVME1EazJNVFl4TXc9PQZDZD
p12
ssVdata
p13
(lp14
(dp15
Vtype
p16
VLIKE
p17
sVid
p18
V1327926110573250
p19
sVname
p20
VShahrukh Ghaznavi
p21
sassg20
VTimeline Photos
p22
sVshares
p23
(dp24
Vcount
p25
I29
ssVlink
p26
Vhttps://www.facebook.com/pakistanthebeautifull/photos/a.297140590340287.77749.296980867022926/1098040630250275/?type=3
p27
sVcreated_time
p28
V2016-10-17T16:36:00+0000
p29
sVmessage
p30
VView of K2  from  Broad Peak base-camp , Karakoram Pakistan .\u000aPhoto by : Malte Hagge
p31
sg16
Vphoto
p32
sg18
V296980867022926_1098040630250275
p33
s.