(dp0
Vreactions
p1
(dp2
Vpaging
p3
(dp4
Vcursors
p5
(dp6
Vafter
p7
VTVRBd01EQXlNVGt3TmpVek16TTVPakUwTnpjNE5EZA3pOakE2TnpnNE5qUTRNRE0zT1RFek16RXkZD
p8
sVbefore
p9
VTVRBd01EQXlNVGt3TmpVek16TTVPakUwTnpjNE5EZA3pOakE2TnpnNE5qUTRNRE0zT1RFek16RXkZD
p10
ssVnext
p11
Vhttps://graph.facebook.com/v2.6/296980867022926_1106168682770803/reactions?access_token=599965930180946%7C575aa5390a4589483de7f8cf99702788&limit=1&after=TVRBd01EQXlNVGt3TmpVek16TTVPakUwTnpjNE5EZA3pOakE2TnpnNE5qUTRNRE0zT1RFek16RXkZD
p12
ssVdata
p13
(lp14
(dp15
Vtype
p16
VLOVE
p17
sVid
p18
V1161870593895951
p19
sVname
p20
VPetra von Antares
p21
sassg20
VTimeline Photos
p22
sVshares
p23
(dp24
Vcount
p25
I36
ssVlink
p26
Vhttps://www.facebook.com/pakistanthebeautifull/photos/a.297140590340287.77749.296980867022926/1106168682770803/?type=3
p27
sVcreated_time
p28
V2016-10-26T06:27:13+0000
p29
sVmessage
p30
VBreathtaking view of the Passu village and surrounding areas GB Pakistan \u000a\u000aPhoto By : Mathieu Paley, National Geographic .
p31
sg16
Vphoto
p32
sg18
V296980867022926_1106168682770803
p33
s.