(dp0
Vreactions
p1
(dp2
Vpaging
p3
(dp4
Vcursors
p5
(dp6
Vafter
p7
VTVRBd01EQXpOakk1T1RVd016ZAzFPakUwTnpjMk9UVXdOelU2TWpVME1EazJNVFl4TXc9PQZDZD
p8
sVbefore
p9
VTVRBd01EQXpOakk1T1RVd016ZAzFPakUwTnpjMk9UVXdOelU2TWpVME1EazJNVFl4TXc9PQZDZD
p10
ssVnext
p11
Vhttps://graph.facebook.com/v2.6/296980867022926_1096881993699472/reactions?access_token=599965930180946%7C575aa5390a4589483de7f8cf99702788&limit=1&after=TVRBd01EQXpOakk1T1RVd016ZAzFPakUwTnpjMk9UVXdOelU2TWpVME1EazJNVFl4TXc9PQZDZD
p12
ssVdata
p13
(lp14
(dp15
Vtype
p16
VLIKE
p17
sVid
p18
V902409709890019
p19
sVname
p20
VAhsan Ali
p21
sassg20
VTimeline Photos
p22
sVshares
p23
(dp24
Vcount
p25
I52
ssVlink
p26
Vhttps://www.facebook.com/pakistanthebeautifull/photos/a.297140590340287.77749.296980867022926/1096881993699472/?type=3
p27
sVcomments
p28
(dp29
g3
(dp30
g5
(dp31
g7
VMQZDZD
p32
sg9
VNAZDZD
p33
sssg13
(lp34
(dp35
Vcreated_time
p36
V2016-10-16T16:40:17+0000
p37
sVmessage
p38
VNice
p39
sVfrom
p40
(dp41
g20
VMuskaan Ali
p42
sg18
V353440874995879
p43
ssg18
V1096881993699472_1097195843668087
p44
sa(dp45
g36
V2016-10-16T08:27:18+0000
p46
sg38
VWell Pakistan The Beautiful  no words whatsoever that's soo sooo amazing :)
p47
sg40
(dp48
g20
VMorgan Hammett
p49
sg18
V1039400616147423
p50
ssg18
V1096881993699472_1096909800363358
p51
sa(dp52
g36
V2016-10-16T10:42:57+0000
p53
sg38
VWow Anusheh Atif Malyka Sheryar Sheikh
p54
sg40
(dp55
g20
VAyesha Hussain Khan
p56
sg18
V10207202414208310
p57
ssg18
V1096881993699472_1096987020355636
p58
sa(dp59
g36
V2016-10-16T13:44:15+0000
p60
sg38
VCalista Ocean
p61
sg40
(dp62
g20
VJames Highfill
p63
sg18
V10209839797203943
p64
ssg18
V1096881993699472_1097089463678725
p65
sassg36
V2016-10-16T07:33:52+0000
p66
sg38
VStunning view of Glacier stream at Concordia , Karakoram Pakistan\u000aPhoto By: David Kaszlikowski
p67
sg16
Vphoto
p68
sg18
V296980867022926_1096881993699472
p69
s.