(dp0
Vreactions
p1
(dp2
Vpaging
p3
(dp4
Vcursors
p5
(dp6
Vafter
p7
VTVRBd01ERXpOek0yTlRrM01qazBPakUwTnpjMU16UTFNekU2TWpVME1EazJNVFl4TXc9PQZDZD
p8
sVbefore
p9
VTVRBd01ERXpOek0yTlRrM01qazBPakUwTnpjMU16UTFNekU2TWpVME1EazJNVFl4TXc9PQZDZD
p10
ssVnext
p11
Vhttps://graph.facebook.com/v2.6/296980867022926_1104399492947722/reactions?access_token=599965930180946%7C575aa5390a4589483de7f8cf99702788&limit=1&after=TVRBd01ERXpOek0yTlRrM01qazBPakUwTnpjMU16UTFNekU2TWpVME1EazJNVFl4TXc9PQZDZD
p12
ssVdata
p13
(lp14
(dp15
Vtype
p16
VLIKE
p17
sVid
p18
V145747109226508
p19
sVname
p20
VMuhammed Aslam
p21
sassg20
VTimeline Photos
p22
sVshares
p23
(dp24
Vcount
p25
I10
ssVlink
p26
Vhttps://www.facebook.com/pakistanthebeautifull/photos/a.297140590340287.77749.296980867022926/1104399492947722/?type=3
p27
sVcomments
p28
(dp29
g3
(dp30
g5
(dp31
g7
VMQZDZD
p32
sg9
VMQZDZD
p33
sssg13
(lp34
(dp35
Vcreated_time
p36
V2016-10-24T18:45:07+0000
p37
sVmessage
p38
VI think they r on Gasherbrum I, Gasherbrum II and Gasherbrum III can b seen in the back ground far away...
p39
sVfrom
p40
(dp41
g20
VMuhammad Haris Saleem
p42
sg18
V1204087939601969
p43
ssg18
V1104399492947722_1104632736257731
p44
sassg36
V2016-10-24T12:06:09+0000
p45
sg38
VExpedition of Gasheberum II ,  the 13th highest mountain in the world at 8,035 metres (26,362 ft) - Pakistan .
p46
sg16
Vphoto
p47
sg18
V296980867022926_1104399492947722
p48
s.