(dp0
Vreactions
p1
(dp2
Vpaging
p3
(dp4
Vcursors
p5
(dp6
Vafter
p7
VTVRBd01EQTJPVFk1TXpBd01UYzJPakUwTnpjMU5EY3hNelU2TnpnNE5qUTRNRE0zT1RFek16RXkZD
p8
sVbefore
p9
VTVRBd01EQTJPVFk1TXpBd01UYzJPakUwTnpjMU5EY3hNelU2TnpnNE5qUTRNRE0zT1RFek16RXkZD
p10
ssVnext
p11
Vhttps://graph.facebook.com/v2.6/296980867022926_1105359236185081/reactions?access_token=599965930180946%7C575aa5390a4589483de7f8cf99702788&limit=1&after=TVRBd01EQTJPVFk1TXpBd01UYzJPakUwTnpjMU5EY3hNelU2TnpnNE5qUTRNRE0zT1RFek16RXkZD
p12
ssVdata
p13
(lp14
(dp15
Vtype
p16
VWOW
p17
sVid
p18
V1803600023215624
p19
sVname
p20
VDipak Basak
p21
sassg20
VTimeline Photos
p22
sVshares
p23
(dp24
Vcount
p25
I19
ssVlink
p26
Vhttps://www.facebook.com/pakistanthebeautifull/photos/a.297140590340287.77749.296980867022926/1105359236185081/?type=3
p27
sVcomments
p28
(dp29
g3
(dp30
g5
(dp31
g7
VMQZDZD
p32
sg9
VMwZDZD
p33
sssg13
(lp34
(dp35
Vcreated_time
p36
V2016-10-25T12:56:40+0000
p37
sVmessage
p38
VBest ever shot
p39
sVfrom
p40
(dp41
g20
VQasim Khan
p42
sg18
V10201864006279907
p43
ssg18
V1105359236185081_1105405096180495
p44
sa(dp45
g36
V2016-10-28T04:09:40+0000
p46
sg38
Vso beautiful
p47
sg40
(dp48
g20
VHabibullah Malik
p49
sg18
V1629415460691314
p50
ssg18
V1105359236185081_1108238242563847
p51
sa(dp52
g36
V2016-10-25T17:40:26+0000
p53
sg38
VDon't know about it being called Ogre.  It looks more like skull mountain :-D.  Fantastic photo.
p54
sg40
(dp55
g20
VNigel Howorth
p56
sg18
V1613768918917138
p57
ssg18
V1105359236185081_1105628929491445
p58
sassg36
V2016-10-25T11:28:44+0000
p59
sg38
VAmazing night view of Ogre (7310m) Karakoram Pakistan .\u000a\u000aPhoto by : Dave Hancock
p60
sg16
Vphoto
p61
sg18
V296980867022926_1105359236185081
p62
s.