(dp0
Vreactions
p1
(dp2
Vpaging
p3
(dp4
Vcursors
p5
(dp6
Vafter
p7
VTVRBd01EQXdNRGM1T1RFM09EUXdPakUwTnpjM05qTTJOREU2TWpVME1EazJNVFl4TXc9PQZDZD
p8
sVbefore
p9
VTVRBd01EQXdNRGM1T1RFM09EUXdPakUwTnpjM05qTTJOREU2TWpVME1EazJNVFl4TXc9PQZDZD
p10
ssVnext
p11
Vhttps://graph.facebook.com/v2.6/296980867022926_1092747250779613/reactions?access_token=599965930180946%7C575aa5390a4589483de7f8cf99702788&limit=1&after=TVRBd01EQXdNRGM1T1RFM09EUXdPakUwTnpjM05qTTJOREU2TWpVME1EazJNVFl4TXc9PQZDZD
p12
ssVdata
p13
(lp14
(dp15
Vtype
p16
VLIKE
p17
sVid
p18
V1354807617865222
p19
sVname
p20
VLily Kolovska
p21
sassg20
VPakistan The Beautiful's cover photo
p22
sVshares
p23
(dp24
Vcount
p25
I119
ssVlink
p26
Vhttps://www.facebook.com/pakistanthebeautifull/photos/a.323098724411140.83597.296980867022926/603330566387953/?type=3
p27
sVcomments
p28
(dp29
g3
(dp30
g5
(dp31
g7
VMQZDZD
p32
sg9
VMTIZD
p33
sssg13
(lp34
(dp35
Vcreated_time
p36
V2014-01-31T12:13:16+0000
p37
sVmessage
p38
VDear Pakistani\u201ds like my page, im a teenager who travels in his beautiful Tehsil Kahuta, trying to explore and promote the unseen beauty of my beautiful Pakistan , AND I SUPPOSE TO UPLOAD STUFF THAT PROVE A GOOD IMAGE OF PAKISTAN AND AS THE PAGE IS ALL ABOUT\u2026\u2026\u2026\u2026\u2026. https://www.facebook.com/pages/Explore-the-unseen-beauty-of-Tehsil-Kahuta/479557878818489
p39
sVfrom
p40
(dp41
g20
VNauman Kiani
p42
sg18
V1151145291643824
p43
ssg18
V603330566387953_1820985
p44
sa(dp45
g36
V2014-01-31T17:28:25+0000
p46
sg38
VCross process
p47
sg40
(dp48
g20
VRehan Akhtar
p49
sg18
V10211002962375881
p50
ssg18
V603330566387953_1821396
p51
sa(dp52
g36
V2014-08-17T18:39:35+0000
p53
sg38
VStunning
p54
sg40
(dp55
g20
VWajeeha Nasir
p56
sg18
V10157666620095287
p57
ssg18
V603330566387953_692840477436961
p58
sa(dp59
g36
V2014-03-02T01:15:58+0000
p60
sg38
VThis is great. Opportunity availed in time.
p61
sg40
(dp62
g20
VSma Jilanee
p63
sg18
V10154419565308780
p64
ssg18
V603330566387953_1868661
p65
sa(dp66
g36
V2014-02-01T08:22:50+0000
p67
sg38
VNice photo.
p68
sg40
(dp69
g20
VBahrian Noor Talawang
p70
sg18
V1160323120722284
p71
ssg18
V603330566387953_1822383
p72
sa(dp73
g36
V2014-01-31T15:17:54+0000
p74
sg38
VPakistan me khobsortii ki koi kamii nahii
p75
sg40
(dp76
g20
VAsma Syal
p77
sg18
V1123744941044127
p78
ssg18
V603330566387953_1821233
p79
sa(dp80
g36
V2014-01-31T15:17:05+0000
p81
sg38
VSuperb Shot
p82
sg40
(dp83
g20
VAsma Syal
p84
sg18
V1123744941044127
p85
ssg18
V603330566387953_1821230
p86
sa(dp87
g36
V2014-01-31T11:55:38+0000
p88
sg38
Vsubuhanallah. Mashallah a great shot.
p89
sg40
(dp90
g20
VFauzia Khan
p91
sg18
V10154046233754157
p92
ssg18
V603330566387953_1820942
p93
sa(dp94
g36
V2016-10-13T03:59:29+0000
p95
sg38
VStunning view : Roof of the world!
p96
sg40
(dp97
g20
V\u0645\u062d\u0633\u0646 \u0622\u0641\u0631\u06cc\u062f\u06cc
p98
sg18
V10153786336527811
p99
ssg18
V603330566387953_1093643474023324
p100
sa(dp101
g36
V2016-10-12T22:57:21+0000
p102
sg38
V
p103
sg40
(dp104
g20
VMorgan Hammett
p105
sg18
V1039400616147423
p106
ssg18
V603330566387953_1093457580708580
p107
sa(dp108
g36
V2014-02-01T07:53:08+0000
p109
sg38
VSubhan Allah so beautiful
p110
sg40
(dp111
g20
VTariq Moghul
p112
sg18
V676251852554318
p113
ssg18
V603330566387953_1822363
p114
sassg36
V2016-10-12T08:58:44+0000
p115
sg38
VMoon over Pir Panjal range, Himalayan region. Pakistan.\u000a\u000aFoto credit : Taariq Haneef .
p116
sg16
Vphoto
p117
sg18
V296980867022926_1092747250779613
p118
s.