(dp0
Vreactions
p1
(dp2
Vpaging
p3
(dp4
Vcursors
p5
(dp6
Vafter
p7
VTVRBd01EQXpOakk1T1RVd016ZAzFPakUwTnpjMk9UVXhNRGs2TWpVME1EazJNVFl4TXc9PQZDZD
p8
sVbefore
p9
VTVRBd01EQXpOakk1T1RVd016ZAzFPakUwTnpjMk9UVXhNRGs2TWpVME1EazJNVFl4TXc9PQZDZD
p10
ssVnext
p11
Vhttps://graph.facebook.com/v2.6/296980867022926_1095945090459829/reactions?access_token=599965930180946%7C575aa5390a4589483de7f8cf99702788&limit=1&after=TVRBd01EQXpOakk1T1RVd016ZAzFPakUwTnpjMk9UVXhNRGs2TWpVME1EazJNVFl4TXc9PQZDZD
p12
ssVdata
p13
(lp14
(dp15
Vtype
p16
VLIKE
p17
sVid
p18
V902409709890019
p19
sVname
p20
VAhsan Ali
p21
sassg20
VTimeline Photos
p22
sVshares
p23
(dp24
Vcount
p25
I51
ssVlink
p26
Vhttps://www.facebook.com/pakistanthebeautifull/photos/a.297140590340287.77749.296980867022926/1095945090459829/?type=3
p27
sVcomments
p28
(dp29
g3
(dp30
g5
(dp31
g7
VMQZDZD
p32
sg9
VNQZDZD
p33
sssg13
(lp34
(dp35
Vcreated_time
p36
V2016-10-15T15:44:57+0000
p37
sVmessage
p38
VInshallah
p39
sVfrom
p40
(dp41
g20
VDennis Lockhart
p42
sg18
V1307104545980119
p43
ssg18
V1095945090459829_1096285703759101
p44
sa(dp45
g36
V2016-10-15T18:09:19+0000
p46
sg38
VF7 :P
p47
sg40
(dp48
g20
VMuhammad Asif
p49
sg18
V197067807403943
p50
ssg18
V1095945090459829_1096395350414803
p51
sa(dp52
g36
V2016-10-15T07:32:54+0000
p53
sg38
V
p54
sg40
(dp55
g20
VMorgan Hammett
p56
sg18
V1039400616147423
p57
ssg18
V1095945090459829_1095968200457518
p58
sa(dp59
g36
V2016-10-16T03:01:53+0000
p60
sg38
VPakistan cannot be beautiful!!!!
p61
sg40
(dp62
g20
VDiptarag Bhattacharjee
p63
sg18
V1346726858673711
p64
ssg18
V1095945090459829_1096710580383280
p65
sa(dp66
g36
V2016-10-15T10:32:08+0000
p67
sg38
VHumi Sabih
p68
sg40
(dp69
g20
VNabeel Anjum
p70
sg18
V10157726903810445
p71
ssg18
V1095945090459829_1096071413780530
p72
sassg36
V2016-10-15T06:45:04+0000
p73
sg38
VF7 flying in front of  K2 ( world,s 2nd highest mountain) Pakistan
p74
sg16
Vphoto
p75
sg18
V296980867022926_1095945090459829
p76
s.