(dp0
Vreactions
p1
(dp2
Vpaging
p3
(dp4
Vcursors
p5
(dp6
Vafter
p7
VTVRBd01EQXdOamMyTWpFMk5URTRPakUwTnpjNE5ESTFOVEE2TWpVME1EazJNVFl4TXc9PQZDZD
p8
sVbefore
p9
VTVRBd01EQXdOamMyTWpFMk5URTRPakUwTnpjNE5ESTFOVEE2TWpVME1EazJNVFl4TXc9PQZDZD
p10
ssVnext
p11
Vhttps://graph.facebook.com/v2.6/296980867022926_1099828596738145/reactions?access_token=599965930180946%7C575aa5390a4589483de7f8cf99702788&limit=1&after=TVRBd01EQXdOamMyTWpFMk5URTRPakUwTnpjNE5ESTFOVEE2TWpVME1EazJNVFl4TXc9PQZDZD
p12
ssVdata
p13
(lp14
(dp15
Vtype
p16
VLIKE
p17
sVid
p18
V1327926110573250
p19
sVname
p20
VShahrukh Ghaznavi
p21
sassg20
VTimeline Photos
p22
sVshares
p23
(dp24
Vcount
p25
I29
ssVlink
p26
Vhttps://www.facebook.com/pakistanthebeautifull/photos/a.297140590340287.77749.296980867022926/1099828596738145/?type=3
p27
sVcomments
p28
(dp29
g3
(dp30
g5
(dp31
g7
VMQZDZD
p32
sg9
VMwZDZD
p33
sssg13
(lp34
(dp35
Vcreated_time
p36
V2016-10-20T06:17:40+0000
p37
sVmessage
p38
VSuper awesome! <3
p39
sVfrom
p40
(dp41
g20
VMorgan Hammett
p42
sg18
V1039400616147423
p43
ssg18
V1099828596738145_1100600863327585
p44
sa(dp45
g36
V2016-10-19T11:14:30+0000
p46
sg38
VBaburiko de Qusyo
p47
sg40
(dp48
g20
VElman Akberov
p49
sg18
V1106809416081278
p50
ssg18
V1099828596738145_1099908936730111
p51
sa(dp52
g36
V2016-10-19T11:13:35+0000
p53
sg38
VElman Akberov
p54
sg40
(dp55
g20
VValeh Ceferov
p56
sg18
V1243433645713637
p57
ssg18
V1099828596738145_1099908533396818
p58
sassg36
V2016-10-19T09:08:09+0000
p59
sg38
VBeautiful Khokush Lake \u000aLangar, Ghizer Valley, Gilgit Baltistan, Pakistan\u000a\u000aPhoto credit: USMAN ZUBAIR
p60
sg16
Vphoto
p61
sg18
V296980867022926_1099828596738145
p62
s.