(dp0
Vreactions
p1
(dp2
Vpaging
p3
(dp4
Vcursors
p5
(dp6
Vafter
p7
VTmpJMk5ERXhNakU1T2pFME56WTNPRGszTURJNk1qVTBNRGsyTVRZAeE13PT0ZD
p8
sVbefore
p9
VTmpJMk5ERXhNakU1T2pFME56WTNPRGszTURJNk1qVTBNRGsyTVRZAeE13PT0ZD
p10
ssVnext
p11
Vhttps://graph.facebook.com/v2.6/296980867022926_1084691198251885/reactions?access_token=599965930180946%7C575aa5390a4589483de7f8cf99702788&summary=true&limit=1&after=TmpJMk5ERXhNakU1T2pFME56WTNPRGszTURJNk1qVTBNRGsyTVRZAeE13PT0ZD
p12
ssVdata
p13
(lp14
(dp15
Vtype
p16
VLIKE
p17
sVid
p18
V10154025754406220
p19
sVname
p20
VRamida Vithoonsaritsilp
p21
sasVsummary
p22
(dp23
Vtotal_count
p24
I326
sVviewer_reaction
p25
VNONE
p26
sssVshares
p27
(dp28
Vcount
p29
I222
ssVlink
p30
Vhttps://www.facebook.com/pakistanthebeautifull/videos/1084691198251885/
p31
sVcomments
p32
(dp33
g3
(dp34
g5
(dp35
g7
VMQZDZD
p36
sg9
VNwZDZD
p37
sssg13
(lp38
(dp39
Vcreated_time
p40
V2016-10-03T13:19:45+0000
p41
sVmessage
p42
VMA
p43
sVfrom
p44
(dp45
g20
VJaveria Shabbir
p46
sg18
V1747975478822777
p47
ssg18
V1084691198251885_1085619034825768
p48
sa(dp49
g40
V2016-10-20T16:07:14+0000
p50
sg42
VU
p51
sg44
(dp52
g20
VMurat Alinca
p53
sg18
V1787775024828231
p54
ssg18
V1084691198251885_1100933556627649
p55
sa(dp56
g40
V2016-10-03T00:40:52+0000
p57
sg42
VExtremely dangerous mountain range.
p58
sg44
(dp59
g20
VAdnan Ayub
p60
sg18
V1249832631755824
p61
ssg18
V1084691198251885_1085263618194643
p62
sa(dp63
g40
V2016-10-02T09:37:49+0000
p64
sg42
VQadees Ahmed Adees Ahmed Uzair Ahmed Faiq Masood Usmaan Mansur
p65
sg44
(dp66
g20
VUrwa Umair Ahmed
p67
sg18
V1012266202216078
p68
ssg18
V1084691198251885_1084712938249711
p69
sa(dp70
g40
V2016-10-02T09:24:07+0000
p71
sg42
VSubhan Nasir Syed Zeeshan Irfan Majeed
p72
sg44
(dp73
g20
VMuhammad Saad
p74
sg18
V1292264740817446
p75
ssg18
V1084691198251885_1084706501583688
p76
sa(dp77
g40
V2016-10-02T15:40:23+0000
p78
sg42
VMoeen S. Mughal Naeem S. Mughal Khuram Azeem
p79
sg44
(dp80
g20
VWaqas Azeem
p81
sg18
V10154830967637323
p82
ssg18
V1084691198251885_1084934524894219
p83
sa(dp84
g40
V2016-10-02T09:52:51+0000
p85
sg42
VMichael Stewart
p86
sg44
(dp87
g20
VYogesh Yanamandra
p88
sg18
V993829620727338
p89
ssg18
V1084691198251885_1084720378248967
p90
sassg40
V2016-10-02T09:05:34+0000
p91
sg42
VWatch extreme adventure on Linksar ( 7041 m) Karakoram Pakistan .                              Video credit : Jon Griffith
p92
sg16
Vvideo
p93
sg18
V296980867022926_1084691198251885
p94
s.