(dp0
Vreactions
p1
(dp2
Vpaging
p3
(dp4
Vcursors
p5
(dp6
Vafter
p7
VTVRBd01EQXlPRFl5TmpreU1UUTBPakUwTnpjeE5qSXdOVEk2TWpVME1EazJNVFl4TXc9PQZDZD
p8
sVbefore
p9
VTVRBd01EQXlPRFl5TmpreU1UUTBPakUwTnpjeE5qSXdOVEk2TWpVME1EazJNVFl4TXc9PQZDZD
p10
ssVnext
p11
Vhttps://graph.facebook.com/v2.6/296980867022926_1086409304746741/reactions?access_token=599965930180946%7C575aa5390a4589483de7f8cf99702788&summary=true&limit=1&after=TVRBd01EQXlPRFl5TmpreU1UUTBPakUwTnpjeE5qSXdOVEk2TWpVME1EazJNVFl4TXc9PQZDZD
p12
ssVdata
p13
(lp14
(dp15
Vtype
p16
VLIKE
p17
sVid
p18
V924742467631168
p19
sVname
p20
VMeera Patel
p21
sasVsummary
p22
(dp23
Vtotal_count
p24
I151
sVviewer_reaction
p25
VNONE
p26
sssVshares
p27
(dp28
Vcount
p29
I78
ssVlink
p30
Vhttps://www.facebook.com/pakistanthebeautifull/videos/1086409304746741/
p31
sVcomments
p32
(dp33
g3
(dp34
g5
(dp35
g7
VMQZDZD
p36
sg9
VNQZDZD
p37
sssg13
(lp38
(dp39
Vcreated_time
p40
V2016-10-05T01:31:29+0000
p41
sVmessage
p42
VHerzog didn't make it to the top in 1950....it's a scam...
p43
sVfrom
p44
(dp45
g20
VDenis Dupuis
p46
sg18
V997842863660679
p47
ssg18
V1086409304746741_1086897418031263
p48
sa(dp49
g40
V2016-10-04T15:16:44+0000
p50
sg42
Vy its mentioned in kasmir????
p51
sg44
(dp52
g20
VFaheem Khan
p53
sg18
V10210957938532851
p54
ssg18
V1086409304746741_1086466064741065
p55
sa(dp56
g40
V2016-10-05T03:25:16+0000
p57
sg42
VNanga parbat is in GB Pakistan, not kashmir.
p58
sg44
(dp59
g20
VSaadia Jay
p60
sg18
V10153731914311442
p61
ssg18
V1086409304746741_1086965051357833
p62
sa(dp63
g40
V2016-10-04T15:46:46+0000
p64
sg42
VAkif Masood
p65
sg44
(dp66
g20
VKabeer Afzal Khan
p67
sg18
V1218436601545899
p68
ssg18
V1086409304746741_1086482624739409
p69
sa(dp70
g40
V2016-10-05T06:54:41+0000
p71
sg42
VSyed Zeeshan
p72
sg44
(dp73
g20
VHafee Syed
p74
sg18
V10211037541242797
p75
ssg18
V1086409304746741_1087045891349749
p76
sassg40
V2016-10-04T13:46:23+0000
p77
sg42
VWatch top 5 deadliest Mountains .
p78
sg16
Vvideo
p79
sg18
V296980867022926_1086409304746741
p80
s.