(dp0
Vreactions
p1
(dp2
Vpaging
p3
(dp4
Vcursors
p5
(dp6
Vafter
p7
VTVRBd01EQXpNalV6TmpRMk16QTJPakUwTnpZAeE1EY3dPVFU2TWpVME1EazJNVFl4TXc9PQZDZD
p8
sVbefore
p9
VTVRBd01EQXpNalV6TmpRMk16QTJPakUwTnpZAeE1EY3dPVFU2TWpVME1EazJNVFl4TXc9PQZDZD
p10
ssVnext
p11
Vhttps://graph.facebook.com/v2.6/296980867022926_1086469668074038/reactions?access_token=599965930180946%7C575aa5390a4589483de7f8cf99702788&summary=true&limit=1&after=TVRBd01EQXpNalV6TmpRMk16QTJPakUwTnpZAeE1EY3dPVFU2TWpVME1EazJNVFl4TXc9PQZDZD
p12
ssVdata
p13
(lp14
(dp15
Vtype
p16
VLIKE
p17
sVid
p18
V1124534840998293
p19
sVname
p20
VShintaro Yamamoto
p21
sasVsummary
p22
(dp23
Vtotal_count
p24
I400
sVviewer_reaction
p25
VNONE
p26
sssg20
VTimeline Photos
p27
sVshares
p28
(dp29
Vcount
p30
I53
ssVlink
p31
Vhttps://www.facebook.com/pakistanthebeautifull/photos/a.297140590340287.77749.296980867022926/1086469668074038/?type=3
p32
sVcomments
p33
(dp34
g3
(dp35
g5
(dp36
g7
VMQZDZD
p37
sg9
VMwZDZD
p38
sssg13
(lp39
(dp40
Vcreated_time
p41
V2016-10-04T21:31:30+0000
p42
sVmessage
p43
VSo gorgeous :)
p44
sVfrom
p45
(dp46
g20
VMorgan Hammett
p47
sg18
V1039400616147423
p48
ssg18
V1086469668074038_1086743368046668
p49
sa(dp50
g41
V2016-10-04T22:50:45+0000
p51
sg43
Vniesamowite :)
p52
sg45
(dp53
g20
VIreneusz Matak
p54
sg18
V10211316158568182
p55
ssg18
V1086469668074038_1086793424708329
p56
sa(dp57
g41
V2016-10-06T13:02:06+0000
p58
sg43
Vthe giants club
p59
sg45
(dp60
g20
VAndrei Raftopol
p61
sg18
V390144747983732
p62
ssg18
V1086469668074038_1088116707909334
p63
sassg41
V2016-10-04T15:24:35+0000
p64
sg43
VK2 & Broad Peak ,   as seen from Gasherbrum II ,Karakoram Pakistan .
p65
sg16
Vphoto
p66
sg18
V296980867022926_1086469668074038
p67
s.