(dp0
Vreactions
p1
(dp2
Vpaging
p3
(dp4
Vcursors
p5
(dp6
Vafter
p7
VTVRBd01EQTJNVFEyTlRZANE5Ua3pPakUwTnpjME5UQTVNelU2TWpVME1EazJNVFl4TXc9PQZDZD
p8
sVbefore
p9
VTVRBd01EQTJNVFEyTlRZANE5Ua3pPakUwTnpjME5UQTVNelU2TWpVME1EazJNVFl4TXc9PQZDZD
p10
ssVnext
p11
Vhttps://graph.facebook.com/v2.6/296980867022926_1085045008216504/reactions?access_token=599965930180946%7C575aa5390a4589483de7f8cf99702788&summary=true&limit=1&after=TVRBd01EQTJNVFEyTlRZANE5Ua3pPakUwTnpjME5UQTVNelU2TWpVME1EazJNVFl4TXc9PQZDZD
p12
ssVdata
p13
(lp14
(dp15
Vtype
p16
VLIKE
p17
sVid
p18
V1743098709238331
p19
sVname
p20
VIramnaziim Iramna
p21
sasVsummary
p22
(dp23
Vtotal_count
p24
I459
sVviewer_reaction
p25
VNONE
p26
sssg20
VTimeline Photos
p27
sVshares
p28
(dp29
Vcount
p30
I54
ssVlink
p31
Vhttps://www.facebook.com/pakistanthebeautifull/photos/a.297140590340287.77749.296980867022926/1085045008216504/?type=3
p32
sVcomments
p33
(dp34
g3
(dp35
g5
(dp36
g7
VMQZDZD
p37
sg9
VNAZDZD
p38
sssg13
(lp39
(dp40
Vcreated_time
p41
V2016-10-03T02:38:19+0000
p42
sVmessage
p43
V
p44
sVfrom
p45
(dp46
g20
VMorgan Hammett
p47
sg18
V1039400616147423
p48
ssg18
V1085045008216504_1085334098187595
p49
sa(dp50
g41
V2016-10-02T18:54:26+0000
p51
sg43
VWakeel :o
p52
sg45
(dp53
g20
VHamza Bin Sajjad
p54
sg18
V1103535506431767
p55
ssg18
V1085045008216504_1085069471547391
p56
sa(dp57
g41
V2016-10-02T18:33:05+0000
p58
sg43
VCalista Ocean
p59
sg45
(dp60
g20
VJames Highfill
p61
sg18
V10209839797203943
p62
ssg18
V1085045008216504_1085051681549170
p63
sa(dp64
g41
V2016-10-02T18:30:21+0000
p65
sg43
VMichael Gigliotti
p66
sg45
(dp67
g20
VSam Gigliotti
p68
sg18
V10157214530615417
p69
ssg18
V1085045008216504_1085048554882816
p70
sassg41
V2016-10-02T18:27:07+0000
p71
sg43
VA huge Avalanche from Hunza peak ( 6200 m )  , GB , Pakistan
p72
sg16
Vphoto
p73
sg18
V296980867022926_1085045008216504
p74
s.