(dp0
Vreactions
p1
(dp2
Vpaging
p3
(dp4
Vcursors
p5
(dp6
Vafter
p7
VTVRBd01EQXpOakk1T1RVd016ZAzFPakUwTnpjMk9UVXhNREU2TWpVME1EazJNVFl4TXc9PQZDZD
p8
sVbefore
p9
VTVRBd01EQXpOakk1T1RVd016ZAzFPakUwTnpjMk9UVXhNREU2TWpVME1EazJNVFl4TXc9PQZDZD
p10
ssVnext
p11
Vhttps://graph.facebook.com/v2.6/296980867022926_1096037790450559/reactions?access_token=599965930180946%7C575aa5390a4589483de7f8cf99702788&limit=1&after=TVRBd01EQXpOakk1T1RVd016ZAzFPakUwTnpjMk9UVXhNREU2TWpVME1EazJNVFl4TXc9PQZDZD
p12
ssVdata
p13
(lp14
(dp15
Vtype
p16
VLIKE
p17
sVid
p18
V902409709890019
p19
sVname
p20
VAhsan Ali
p21
sassVshares
p22
(dp23
Vcount
p24
I20
ssVlink
p25
Vhttps://www.facebook.com/pakistanthebeautifull/videos/1096037790450559/
p26
sVcomments
p27
(dp28
g3
(dp29
g5
(dp30
g7
VMQZDZD
p31
sg9
VMQZDZD
p32
sssg13
(lp33
(dp34
Vcreated_time
p35
V2016-10-15T12:28:45+0000
p36
sVmessage
p37
VBad Ass...
p38
sVfrom
p39
(dp40
g20
VRob Purkhiser
p41
sg18
V10205616245726063
p42
ssg18
V1096037790450559_1096136100440728
p43
sassg35
V2016-10-15T09:51:30+0000
p44
sg37
VFredrick strang on  the summit of Gasheberum 1 (8068 m .  ) Pakistan
p45
sg16
Vvideo
p46
sg18
V296980867022926_1096037790450559
p47
s.