(dp0
Vreactions
p1
(dp2
Vpaging
p3
(dp4
Vcursors
p5
(dp6
Vafter
p7
VTVRBd01EQTBNelV5T1RJd056TTNPakUwTnpZAek56azFOek02TWpVME1EazJNVFl4TXc9PQZDZD
p8
sVbefore
p9
VTVRBd01EQTBNelV5T1RJd056TTNPakUwTnpZAek56azFOek02TWpVME1EazJNVFl4TXc9PQZDZD
p10
ssVnext
p11
Vhttps://graph.facebook.com/v2.6/296980867022926_1092078570846481/reactions?access_token=599965930180946%7C575aa5390a4589483de7f8cf99702788&limit=1&after=TVRBd01EQTBNelV5T1RJd056TTNPakUwTnpZAek56azFOek02TWpVME1EazJNVFl4TXc9PQZDZD
p12
ssVdata
p13
(lp14
(dp15
Vtype
p16
VLIKE
p17
sVid
p18
V712101912278233
p19
sVname
p20
VAng Mui Im
p21
sassg20
VPakistan The Beautiful's cover photo
p22
sVshares
p23
(dp24
Vcount
p25
I10
ssVlink
p26
Vhttps://www.facebook.com/pakistanthebeautifull/photos/a.323098724411140.83597.296980867022926/1092078374179834/?type=3
p27
sVcomments
p28
(dp29
g3
(dp30
g5
(dp31
g7
VMQZDZD
p32
sg9
VMQZDZD
p33
sssg13
(lp34
(dp35
Vcreated_time
p36
V2016-10-12T02:18:01+0000
p37
sVmessage
p38
V
p39
sVfrom
p40
(dp41
g20
VMorgan Hammett
p42
sg18
V1039400616147423
p43
ssg18
V1092078374179834_1092544257466579
p44
sassg36
V2016-10-11T13:15:38+0000
p45
sg38
VExpedition of  Link sar  ( 7041 m) Pakistan \u000a\u000aPhoto credit :Jon Griffith .
p46
sg16
Vphoto
p47
sg18
V296980867022926_1092078570846481
p48
s.