(dp0
Vreactions
p1
(dp2
Vpaging
p3
(dp4
Vcursors
p5
(dp6
Vafter
p7
VTVRZAeE1UazFOakEzTVRveE5EYzNNak0yTVRVeU9qSTFOREE1TmpFMk1UTT0ZD
p8
sVbefore
p9
VTVRZAeE1UazFOakEzTVRveE5EYzNNak0yTVRVeU9qSTFOREE1TmpFMk1UTT0ZD
p10
ssVnext
p11
Vhttps://graph.facebook.com/v2.6/296980867022926_1088094791244859/reactions?access_token=599965930180946%7C575aa5390a4589483de7f8cf99702788&summary=true&limit=1&after=TVRZAeE1UazFOakEzTVRveE5EYzNNak0yTVRVeU9qSTFOREE1TmpFMk1UTT0ZD
p12
ssVdata
p13
(lp14
(dp15
Vtype
p16
VLIKE
p17
sVid
p18
V10209790677596278
p19
sVname
p20
VMaurizio de Martino
p21
sasVsummary
p22
(dp23
Vtotal_count
p24
I348
sVviewer_reaction
p25
VNONE
p26
sssg20
VTimeline Photos
p27
sVshares
p28
(dp29
Vcount
p30
I42
ssVlink
p31
Vhttps://www.facebook.com/pakistanthebeautifull/photos/a.297140590340287.77749.296980867022926/1088094791244859/?type=3
p32
sVcomments
p33
(dp34
g3
(dp35
g5
(dp36
g7
VMQZDZD
p37
sg9
VMQZDZD
p38
sssg13
(lp39
(dp40
Vcreated_time
p41
V2016-10-06T22:35:31+0000
p42
sVmessage
p43
VSo so beautiful,awesome,gorgeous <3
p44
sVfrom
p45
(dp46
g20
VMorgan Hammett
p47
sg18
V1039400616147423
p48
ssg18
V1088094791244859_1088436847877320
p49
sassg41
V2016-10-06T12:21:29+0000
p50
sg43
VMount Rakaposhi ( 7788 M ) , Nagar Valley , Karakoram range of Pakistan \u000a\u000aFoto by : Atif Saeed
p51
sg16
Vphoto
p52
sg18
V296980867022926_1088094791244859
p53
s.