(dp0
Vreactions
p1
(dp2
Vpaging
p3
(dp4
Vcursors
p5
(dp6
Vafter
p7
VTVRBd01ERXdNVFkwT1RBMU16UTJPakUwTnpjeU5EQXdOekk2TWpVME1EazJNVFl4TXc9PQZDZD
p8
sVbefore
p9
VTVRBd01ERXdNVFkwT1RBMU16UTJPakUwTnpjeU5EQXdOekk2TWpVME1EazJNVFl4TXc9PQZDZD
p10
ssVnext
p11
Vhttps://graph.facebook.com/v2.6/296980867022926_1093249597396045/reactions?access_token=599965930180946%7C575aa5390a4589483de7f8cf99702788&limit=1&after=TVRBd01ERXdNVFkwT1RBMU16UTJPakUwTnpjeU5EQXdOekk2TWpVME1EazJNVFl4TXc9PQZDZD
p12
ssVdata
p13
(lp14
(dp15
Vtype
p16
VLIKE
p17
sVid
p18
V344613032554191
p19
sVname
p20
VHancy Rehan Tanha
p21
sassg20
VTimeline Photos
p22
sVshares
p23
(dp24
Vcount
p25
I61
ssVlink
p26
Vhttps://www.facebook.com/pakistanthebeautifull/photos/a.297140590340287.77749.296980867022926/1093249597396045/?type=3
p27
sVcomments
p28
(dp29
g3
(dp30
g5
(dp31
g7
VMQZDZD
p32
sg9
VNgZDZD
p33
sssg13
(lp34
(dp35
Vcreated_time
p36
V2016-10-13T04:43:26+0000
p37
sVmessage
p38
VThese truckers have the bravest souls and very little respect on the road :( Bravo n more power to them \U0001f44d\U0001f3fc
p39
sVfrom
p40
(dp41
g20
VSeher Kay
p42
sg18
V10153845343290443
p43
ssg18
V1093249597396045_1093739117347093
p44
sa(dp45
g36
V2016-10-12T18:46:49+0000
p46
sg38
VIts onway to babusar top.not loary top
p47
sg40
(dp48
g20
VTila Mohammad
p49
sg18
V904327579701334
p50
ssg18
V1093249597396045_1093306270723711
p51
sa(dp52
g36
V2016-10-13T03:41:09+0000
p53
sg38
VCrazy!
p54
sg40
(dp55
g20
V\u0645\u062d\u0633\u0646 \u0622\u0641\u0631\u06cc\u062f\u06cc
p56
sg18
V10153786336527811
p57
ssg18
V1093249597396045_1093633654024306
p58
sa(dp59
g36
V2016-10-13T00:46:09+0000
p60
sg38
VWow!! how cold!!
p61
sg40
(dp62
g20
VAdrianan Nancy Hidalgo
p63
sg18
V884216898381098
p64
ssg18
V1093249597396045_1093519377369067
p65
sa(dp66
g36
V2016-10-12T22:55:56+0000
p67
sg38
VWow,that's crazy! :)
p68
sg40
(dp69
g20
VMorgan Hammett
p70
sg18
V1039400616147423
p71
ssg18
V1093249597396045_1093456990708639
p72
sa(dp73
g36
V2016-10-12T17:44:25+0000
p74
sg38
VNice
p75
sg40
(dp76
g20
VSyed Shahbaz Ali
p77
sg18
V1589595381369610
p78
ssg18
V1093249597396045_1093263390727999
p79
sassg36
V2016-10-12T17:28:03+0000
p80
sg38
VTruck passing through Glaciers at lowari top Pakistan
p81
sg16
Vphoto
p82
sg18
V296980867022926_1093249597396045
p83
s.