(dp0
Vreactions
p1
(dp2
Vpaging
p3
(dp4
Vcursors
p5
(dp6
Vafter
p7
VTVRBd01ERXdOelE0TXpReU9EZA3hPakUwTnpjMU5URXlPVEk2TWpVME1EazJNVFl4TXc9PQZDZD
p8
sVbefore
p9
VTVRBd01ERXdOelE0TXpReU9EZA3hPakUwTnpjMU5URXlPVEk2TWpVME1EazJNVFl4TXc9PQZDZD
p10
ssVnext
p11
Vhttps://graph.facebook.com/v2.6/296980867022926_1084565521597786/reactions?access_token=599965930180946%7C575aa5390a4589483de7f8cf99702788&summary=true&limit=1&after=TVRBd01ERXdOelE0TXpReU9EZA3hPakUwTnpjMU5URXlPVEk2TWpVME1EazJNVFl4TXc9PQZDZD
p12
ssVdata
p13
(lp14
(dp15
Vtype
p16
VLIKE
p17
sVid
p18
V332715727096703
p19
sVname
p20
VVikk\u012b WaQa\u015f
p21
sasVsummary
p22
(dp23
Vtotal_count
p24
I268
sVviewer_reaction
p25
VNONE
p26
sssg20
VTimeline Photos
p27
sVshares
p28
(dp29
Vcount
p30
I29
ssVlink
p31
Vhttps://www.facebook.com/pakistanthebeautifull/photos/a.297140590340287.77749.296980867022926/1084565521597786/?type=3
p32
sVcomments
p33
(dp34
g3
(dp35
g5
(dp36
g7
VMQZDZD
p37
sg9
VMwZDZD
p38
sssg13
(lp39
(dp40
Vcreated_time
p41
V2016-10-02T05:56:02+0000
p42
sVmessage
p43
VSo cool looking ,beautiful :)
p44
sVfrom
p45
(dp46
g20
VMorgan Hammett
p47
sg18
V1039400616147423
p48
ssg18
V1084565521597786_1084607621593576
p49
sa(dp50
g41
V2016-10-03T05:34:38+0000
p51
sg43
VFaiZan SiddiQue Zubair Ahmad Did you guys see this?
p52
sg45
(dp53
g20
VSaad Arslan
p54
sg18
V1300656556635515
p55
ssg18
V1084565521597786_1085417024845969
p56
sa(dp57
g41
V2016-10-02T06:27:11+0000
p58
sg43
VJaiveer Jandu dobara jana andar
p59
sg45
(dp60
g20
VChinu Tiwana
p61
sg18
V10208223813617156
p62
ssg18
V1084565521597786_1084623571591981
p63
sassg41
V2016-10-02T04:37:44+0000
p64
sg43
VA Dangerous Act of Climber at Passu Glacier , Pakistan \u000aShot taken during Alpine Mountaineering Course organized by Mountain Wilderness International.
p65
sg16
Vphoto
p66
sg18
V296980867022926_1084565521597786
p67
s.