(dp0
Vreactions
p1
(dp2
Vpaging
p3
(dp4
Vcursors
p5
(dp6
Vafter
p7
VTVRBd01EQTBNelV6TURjMk5qTTBPakUwTnpZAM09EZA3lORFk2TnpnNE5qUTRNRE0zT1RFek16RXkZD
p8
sVbefore
p9
VTVRBd01EQTBNelV6TURjMk5qTTBPakUwTnpZAM09EZA3lORFk2TnpnNE5qUTRNRE0zT1RFek16RXkZD
p10
ssVnext
p11
Vhttps://graph.facebook.com/v2.6/297869513643777_1065587606871960/reactions?access_token=599965930180946%7C575aa5390a4589483de7f8cf99702788&limit=1&after=TVRBd01EQTBNelV6TURjMk5qTTBPakUwTnpZAM09EZA3lORFk2TnpnNE5qUTRNRE0zT1RFek16RXkZD
p12
ssVdata
p13
(lp14
(dp15
Vtype
p16
VWOW
p17
sVid
p18
V658265547661875
p19
sVname
p20
VAsif Abbas
p21
sassg20
VK2 Pakistan
p22
sVshares
p23
(dp24
Vcount
p25
I12
ssVlink
p26
Vhttps://www.facebook.com/humpakistan.info/photos/a.984443418319713.1073741873.297869513643777/1065587606871960/?type=3
p27
sVcreated_time
p28
V2016-10-16T13:11:44+0000
p29
sVmessage
p30
V#K2 Karakoram Range \u000a| Gilgit-Baltistan | Pakistan |
p31
sg16
Vphoto
p32
sg18
V297869513643777_1065587606871960
p33
s.