(dp0
Vreactions
p1
(dp2
Vpaging
p3
(dp4
Vcursors
p5
(dp6
Vafter
p7
VTVRBd01ERXdPRGcyTVRFNE5qUTVPakUwTnpVNU56Y3lOVGc2TWpVME1EazJNVFl4TXc9PQZDZD
p8
sVbefore
p9
VTVRBd01ERXdPRGcyTVRFNE5qUTVPakUwTnpVNU56Y3lOVGc2TWpVME1EazJNVFl4TXc9PQZDZD
p10
ssVnext
p11
Vhttps://graph.facebook.com/v2.6/297869513643777_972485072848881/reactions?access_token=599965930180946%7C575aa5390a4589483de7f8cf99702788&summary=true&limit=1&after=TVRBd01ERXdPRGcyTVRFNE5qUTVPakUwTnpVNU56Y3lOVGc2TWpVME1EazJNVFl4TXc9PQZDZD
p12
ssVdata
p13
(lp14
(dp15
Vtype
p16
VLIKE
p17
sVid
p18
V324618047911063
p19
sVname
p20
VInoxent Asna
p21
sasVsummary
p22
(dp23
Vtotal_count
p24
I11
sVviewer_reaction
p25
VNONE
p26
sssg20
VPhotos from HUM PAKISTAN's post
p27
sVshares
p28
(dp29
Vcount
p30
I2
ssVlink
p31
Vhttps://www.facebook.com/humpakistan.info/photos/a.692310727532985.1073741829.297869513643777/972484929515562/?type=3
p32
sVcreated_time
p33
V2016-10-07T00:00:01+0000
p34
sVmessage
p35
V\u0627\u0633\u0644\u0627\u0645 \u0639\u0644\u06cc\u06a9\u0645 \u000a\u0635\u0628\u062d \u0628\u062e\u06cc\u0631 \u0632\u0646\u062f\u06af\u06cc\u000a\u062c\u0645\u0639\u06c1 \u0627\u0644\u0645\u0628\u0627\u0631\u06a9
p36
sg16
Vphoto
p37
sg18
V297869513643777_972485072848881
p38
s.