(dp0
Vreactions
p1
(dp2
Vpaging
p3
(dp4
Vcursors
p5
(dp6
Vafter
p7
VTVRBd01EQXhNVEEyTURrM01UYzFPakUwTnpjM09ERTRNVFk2TWpVME1EazJNVFl4TXc9PQZDZD
p8
sVbefore
p9
VTVRBd01EQXhNVEEyTURrM01UYzFPakUwTnpjM09ERTRNVFk2TWpVME1EazJNVFl4TXc9PQZDZD
p10
ssVnext
p11
Vhttps://graph.facebook.com/v2.6/297869513643777_1076071939156860/reactions?access_token=599965930180946%7C575aa5390a4589483de7f8cf99702788&limit=1&after=TVRBd01EQXhNVEEyTURrM01UYzFPakUwTnpjM09ERTRNVFk2TWpVME1EazJNVFl4TXc9PQZDZD
p12
ssVdata
p13
(lp14
(dp15
Vtype
p16
VLIKE
p17
sVid
p18
V1191464417567083
p19
sVname
p20
VRomaan Khan Niazii
p21
sassg20
VAstore Valley
p22
sVshares
p23
(dp24
Vcount
p25
I1
ssVlink
p26
Vhttps://www.facebook.com/humpakistan.info/photos/a.1011185965645458.1073741885.297869513643777/1076071939156860/?type=3
p27
sVcreated_time
p28
V2016-10-28T17:10:12+0000
p29
sVmessage
p30
VMegical view of #Astore #Valley
p31
sg16
Vphoto
p32
sg18
V297869513643777_1076071939156860
p33
s.