(dp0
Vreactions
p1
(dp2
Vpaging
p3
(dp4
Vcursors
p5
(dp6
Vafter
p7
VTVRBd01ERXpNalV5Tnpjd09EUTFPakUwTnpZAeE5UVTFOVE02TWpVME1EazJNVFl4TXc9PQZDZD
p8
sVbefore
p9
VTVRBd01ERXpNalV5Tnpjd09EUTFPakUwTnpZAeE5UVTFOVE02TWpVME1EazJNVFl4TXc9PQZDZD
p10
ssVnext
p11
Vhttps://graph.facebook.com/v2.6/297869513643777_1057268401037214/reactions?access_token=599965930180946%7C575aa5390a4589483de7f8cf99702788&summary=true&limit=1&after=TVRBd01ERXpNalV5Tnpjd09EUTFPakUwTnpZAeE5UVTFOVE02TWpVME1EazJNVFl4TXc9PQZDZD
p12
ssVdata
p13
(lp14
(dp15
Vtype
p16
VLIKE
p17
sVid
p18
V187576611694097
p19
sVname
p20
VIdrees Muhammad
p21
sasVsummary
p22
(dp23
Vtotal_count
p24
I99
sVviewer_reaction
p25
VNONE
p26
sssg20
VKaghan-Naran, Pakistan
p27
sVshares
p28
(dp29
Vcount
p30
I16
ssVlink
p31
Vhttps://www.facebook.com/humpakistan.info/photos/a.965104680253587.1073741861.297869513643777/1057268401037214/?type=3
p32
sVcomments
p33
(dp34
g3
(dp35
g5
(dp36
g7
VMQZDZD
p37
sg9
VMQZDZD
p38
sssg13
(lp39
(dp40
Vcreated_time
p41
V2016-10-06T15:37:24+0000
p42
sVmessage
p43
VBushra Ishfaq
p44
sVfrom
p45
(dp46
g20
VRauf Khan
p47
sg18
V1229247667096493
p48
ssg18
V1057268401037214_1057475764349811
p49
sassg41
V2016-10-06T09:24:43+0000
p50
sg43
V#Paye_Meadows\u000aShogran | KPK | Pakistan |
p51
sg16
Vphoto
p52
sg18
V297869513643777_1057268401037214
p53
s.