(dp0
Vreactions
p1
(dp2
Vpaging
p3
(dp4
Vcursors
p5
(dp6
Vafter
p7
VTVRBd01EQTNNalF5TmpFME5URTJPakUwTnpjME5qWXhNREU2TnpnNE5qUTRNRE0zT1RFek16RXkZD
p8
sVbefore
p9
VTVRBd01EQTNNalF5TmpFME5URTJPakUwTnpjME5qWXhNREU2TnpnNE5qUTRNRE0zT1RFek16RXkZD
p10
ssVnext
p11
Vhttps://graph.facebook.com/v2.6/297869513643777_1072807212816666/reactions?access_token=599965930180946%7C575aa5390a4589483de7f8cf99702788&limit=1&after=TVRBd01EQTNNalF5TmpFME5URTJPakUwTnpjME5qWXhNREU2TnpnNE5qUTRNRE0zT1RFek16RXkZD
p12
ssVdata
p13
(lp14
(dp15
Vtype
p16
VLOVE
p17
sVid
p18
V1750946675156736
p19
sVname
p20
VFatima Chaudhary
p21
sassg20
VThe Heaven on Earth: "Kashmir" Pakistan
p22
sVshares
p23
(dp24
Vcount
p25
I3
ssVlink
p26
Vhttps://www.facebook.com/humpakistan.info/photos/a.903337693096953.1073741843.297869513643777/1072807212816666/?type=3
p27
sVcreated_time
p28
V2016-10-24T20:37:05+0000
p29
sVmessage
p30
VBeautiful Kashmir
p31
sg16
Vphoto
p32
sg18
V297869513643777_1072807212816666
p33
s.