(dp0
Vreactions
p1
(dp2
Vpaging
p3
(dp4
Vcursors
p5
(dp6
Vafter
p7
VTVRBd01EQXdOakE0T1RZAME1UZA3hPakUwTnpjMU5qWXpPREU2TWpVME1EazJNVFl4TXc9PQZDZD
p8
sVbefore
p9
VTVRBd01EQXdOakE0T1RZAME1UZA3hPakUwTnpjMU5qWXpPREU2TWpVME1EazJNVFl4TXc9PQZDZD
p10
ssVnext
p11
Vhttps://graph.facebook.com/v2.6/297869513643777_1073560956074625/reactions?access_token=599965930180946%7C575aa5390a4589483de7f8cf99702788&limit=1&after=TVRBd01EQXdOakE0T1RZAME1UZA3hPakUwTnpjMU5qWXpPREU2TWpVME1EazJNVFl4TXc9PQZDZD
p12
ssVdata
p13
(lp14
(dp15
Vtype
p16
VLIKE
p17
sVid
p18
V1283211015042518
p19
sVname
p20
VUmar Qureshi
p21
sassg20
VPhunder valley, Ghizer District GB
p22
sVshares
p23
(dp24
Vcount
p25
I9
ssVlink
p26
Vhttps://www.facebook.com/humpakistan.info/photos/a.967406520023403.1073741865.297869513643777/1073560956074625/?type=3
p27
sVcreated_time
p28
V2016-10-25T16:11:11+0000
p29
sVmessage
p30
V#Phander Valley \u000aGhizer| Gilgit-Baltistan | Pakistan |
p31
sg16
Vphoto
p32
sg18
V297869513643777_1073560956074625
p33
s.