(dp0
Vreactions
p1
(dp2
Vpaging
p3
(dp4
Vcursors
p5
(dp6
Vafter
p7
VTVRBd01EQTFOekUzTlRBMk9EZAzBPakUwTnpZAMk16UTROakU2TWpVME1EazJNVFl4TXc9PQZDZD
p8
sVbefore
p9
VTVRBd01EQTFOekUzTlRBMk9EZAzBPakUwTnpZAMk16UTROakU2TWpVME1EazJNVFl4TXc9PQZDZD
p10
ssVnext
p11
Vhttps://graph.facebook.com/v2.6/297869513643777_1063790327051688/reactions?access_token=599965930180946%7C575aa5390a4589483de7f8cf99702788&summary=true&limit=1&after=TVRBd01EQTFOekUzTlRBMk9EZAzBPakUwTnpZAMk16UTROakU2TWpVME1EazJNVFl4TXc9PQZDZD
p12
ssVdata
p13
(lp14
(dp15
Vtype
p16
VLIKE
p17
sVid
p18
V572214429645802
p19
sVname
p20
VAsma Javed
p21
sasVsummary
p22
(dp23
Vtotal_count
p24
I260
sVviewer_reaction
p25
VNONE
p26
sssg20
VWirsa \u0648\u0631\u062b\u06c1
p27
sVcomments
p28
(dp29
g3
(dp30
g5
(dp31
g7
VMQZDZD
p32
sg9
VMgZDZD
p33
sssg13
(lp34
(dp35
Vcreated_time
p36
V2016-10-14T20:16:14+0000
p37
sVmessage
p38
V
p39
sVfrom
p40
(dp41
g20
VRizwan Khan
p42
sg18
V1738387739747181
p43
ssg18
V1063790327051688_1064227307007990
p44
sa(dp45
g36
V2016-10-14T20:11:43+0000
p46
sg38
g39
sg40
(dp47
g20
VRizwan Khan
p48
sg18
V1738387739747181
p49
ssg18
V1063790327051688_1064224187008302
p50
sassVlink
p51
Vhttps://www.facebook.com/Virsa.panjab/photos/a.1056094884437937.1073741857.608234709223959/1056095027771256/?type=3
p52
sg36
V2016-10-14T10:33:20+0000
p53
sg16
Vphoto
p54
sg18
V297869513643777_1063790327051688
p55
s.