(dp0
Vreactions
p1
(dp2
Vpaging
p3
(dp4
Vcursors
p5
(dp6
Vafter
p7
VTVRBd01EQTFPRGt6T1RVME5qRXlPakUwTnpZAME5URTBNakE2TWpVME1EazJNVFl4TXc9PQZDZD
p8
sVbefore
p9
VTVRBd01EQTFPRGt6T1RVME5qRXlPakUwTnpZAME5URTBNakE2TWpVME1EazJNVFl4TXc9PQZDZD
p10
ssVnext
p11
Vhttps://graph.facebook.com/v2.6/297869513643777_1062858397144881/reactions?access_token=599965930180946%7C575aa5390a4589483de7f8cf99702788&summary=true&limit=1&after=TVRBd01EQTFPRGt6T1RVME5qRXlPakUwTnpZAME5URTBNakE2TWpVME1EazJNVFl4TXc9PQZDZD
p12
ssVdata
p13
(lp14
(dp15
Vtype
p16
VLIKE
p17
sVid
p18
V568272770045850
p19
sVname
p20
VSami Mughal
p21
sasVsummary
p22
(dp23
Vtotal_count
p24
I13
sVviewer_reaction
p25
VNONE
p26
sssg20
VTimeline Photos
p27
sVshares
p28
(dp29
Vcount
p30
I1
ssVlink
p31
Vhttps://www.facebook.com/humpakistan.info/photos/a.692310727532985.1073741829.297869513643777/1062858397144881/?type=3
p32
sVcomments
p33
(dp34
g3
(dp35
g5
(dp36
g7
VMQZDZD
p37
sg9
VMQZDZD
p38
sssg13
(lp39
(dp40
Vcreated_time
p41
V2016-10-13T20:28:17+0000
p42
sVmessage
p43
V
p44
sVfrom
p45
(dp46
g20
VArqam Bashir Chaudary
p47
sg18
V695189700631579
p48
ssg18
V1062858397144881_1063242243773163
p49
sassg41
V2016-10-13T12:55:46+0000
p50
sg16
Vphoto
p51
sg18
V297869513643777_1062858397144881
p52
s.