(dp0
Vreactions
p1
(dp2
Vpaging
p3
(dp4
Vcursors
p5
(dp6
Vafter
p7
VTVRBd01EQTVNREUyTmpNNU5EZA3pPakUwTnpjek5qTXdOemM2TWpVME1EazJNVFl4TXc9PQZDZD
p8
sVbefore
p9
VTVRBd01EQTVNREUyTmpNNU5EZA3pPakUwTnpjek5qTXdOemM2TWpVME1EazJNVFl4TXc9PQZDZD
p10
ssVnext
p11
Vhttps://graph.facebook.com/v2.6/297869513643777_1055402151223839/reactions?access_token=599965930180946%7C575aa5390a4589483de7f8cf99702788&summary=true&limit=1&after=TVRBd01EQTVNREUyTmpNNU5EZA3pPakUwTnpjek5qTXdOemM2TWpVME1EazJNVFl4TXc9PQZDZD
p12
ssVdata
p13
(lp14
(dp15
Vtype
p16
VLIKE
p17
sVid
p18
V1680504375593434
p19
sVname
p20
VYousaf Hafeez
p21
sasVsummary
p22
(dp23
Vtotal_count
p24
I138
sVviewer_reaction
p25
VNONE
p26
sssg20
VKaghan-Naran, Pakistan
p27
sVshares
p28
(dp29
Vcount
p30
I22
ssVlink
p31
Vhttps://www.facebook.com/humpakistan.info/photos/a.965104680253587.1073741861.297869513643777/1055402151223839/?type=3
p32
sVcomments
p33
(dp34
g3
(dp35
g5
(dp36
g7
VMQZDZD
p37
sg9
VMwZDZD
p38
sssg13
(lp39
(dp40
Vcreated_time
p41
V2016-10-04T12:14:45+0000
p42
sVmessage
p43
Vganda.....
p44
sVfrom
p45
(dp46
g20
VElena Alecha
p47
sg18
V314650538916486
p48
ssg18
V1055402151223839_1055645194532868
p49
sa(dp50
g41
V2016-10-04T09:48:03+0000
p51
sg43
VNice
p52
sg45
(dp53
g20
VIrfan Ullah Marwat
p54
sg18
V217173138714279
p55
ssg18
V1055402151223839_1055567647873956
p56
sassg41
V2016-10-04T03:53:06+0000
p57
sg43
V#Lalazar\u000aKagan-Naran | KPK | Pakistan |\u000a\u2606Photo by: Shaheed Afzal\u2606
p58
sg16
Vphoto
p59
sg18
V297869513643777_1055402151223839
p60
s.