(dp0
Vreactions
p1
(dp2
Vpaging
p3
(dp4
Vcursors
p5
(dp6
Vafter
p7
VTVRBd01EQTBNelV6TURjMk5qTTBPakUwTnpZAME1EQTBNakk2TnpnNE5qUTRNRE0zT1RFek16RXkZD
p8
sVbefore
p9
VTVRBd01EQTBNelV6TURjMk5qTTBPakUwTnpZAME1EQTBNakk2TnpnNE5qUTRNRE0zT1RFek16RXkZD
p10
ssVnext
p11
Vhttps://graph.facebook.com/v2.6/297869513643777_1059637260800328/reactions?access_token=599965930180946%7C575aa5390a4589483de7f8cf99702788&summary=true&limit=1&after=TVRBd01EQTBNelV6TURjMk5qTTBPakUwTnpZAME1EQTBNakk2TnpnNE5qUTRNRE0zT1RFek16RXkZD
p12
ssVdata
p13
(lp14
(dp15
Vtype
p16
VWOW
p17
sVid
p18
V658265547661875
p19
sVname
p20
VAsif Abbas
p21
sasVsummary
p22
(dp23
Vtotal_count
p24
I49
sVviewer_reaction
p25
VNONE
p26
sssg20
VFairy Meadows & Nanga Purbat, Gilgit-Baltistan, Pakistan
p27
sVshares
p28
(dp29
Vcount
p30
I6
ssVlink
p31
Vhttps://www.facebook.com/humpakistan.info/photos/a.987391828024872.1073741875.297869513643777/1059637260800328/?type=3
p32
sVcreated_time
p33
V2016-10-09T11:23:12+0000
p34
sVmessage
p35
V#Fairy #Meadows\u000aGilgit-Baltistan | Pakistan |
p36
sg16
Vphoto
p37
sg18
V297869513643777_1059637260800328
p38
s.