(dp0
Vreactions
p1
(dp2
Vpaging
p3
(dp4
Vcursors
p5
(dp6
Vafter
p7
VTVRBd01EQXlOelUwTXpFM09EWTRPakUwTnpjeE5UVTRNREU2TWpVME1EazJNVFl4TXc9PQZDZD
p8
sVbefore
p9
VTVRBd01EQXlOelUwTXpFM09EWTRPakUwTnpjeE5UVTRNREU2TWpVME1EazJNVFl4TXc9PQZDZD
p10
ssVnext
p11
Vhttps://graph.facebook.com/v2.6/297869513643777_1067625253334862/reactions?access_token=599965930180946%7C575aa5390a4589483de7f8cf99702788&limit=1&after=TVRBd01EQXlOelUwTXpFM09EWTRPakUwTnpjeE5UVTRNREU2TWpVME1EazJNVFl4TXc9PQZDZD
p12
ssVdata
p13
(lp14
(dp15
Vtype
p16
VLIKE
p17
sVid
p18
V901381136630355
p19
sVname
p20
VMalik Bilal
p21
sassg20
VMurree & Galiyaat
p22
sVshares
p23
(dp24
Vcount
p25
I10
ssVlink
p26
Vhttps://www.facebook.com/humpakistan.info/photos/a.906690119428377.1073741844.297869513643777/1067625253334862/?type=3
p27
sVcomments
p28
(dp29
g3
(dp30
g5
(dp31
g7
VMQZDZD
p32
sg9
VMQZDZD
p33
sssg13
(lp34
(dp35
Vcreated_time
p36
V2016-10-19T10:09:53+0000
p37
sVmessage
p38
VSamiya Rizvi
p39
sVfrom
p40
(dp41
g20
VHamza Malik
p42
sg18
V1777242295857881
p43
ssg18
V1067625253334862_1068109716619749
p44
sassg36
V2016-10-18T19:09:41+0000
p45
sg38
V#Murree Hills
p46
sg16
Vphoto
p47
sg18
V297869513643777_1067625253334862
p48
s.