(dp0
Vreactions
p1
(dp2
Vpaging
p3
(dp4
Vcursors
p5
(dp6
Vafter
p7
VTVRBd01ERXpPVEF6TURJMk9URXlPakUwTnpZANU9UYzFNakk2TWpVME1EazJNVFl4TXc9PQZDZD
p8
sVbefore
p9
VTVRBd01ERXpPVEF6TURJMk9URXlPakUwTnpZANU9UYzFNakk2TWpVME1EazJNVFl4TXc9PQZDZD
p10
ssVnext
p11
Vhttps://graph.facebook.com/v2.6/297869513643777_1064935693603818/reactions?access_token=599965930180946%7C575aa5390a4589483de7f8cf99702788&limit=1&after=TVRBd01ERXpPVEF6TURJMk9URXlPakUwTnpZANU9UYzFNakk2TWpVME1EazJNVFl4TXc9PQZDZD
p12
ssVdata
p13
(lp14
(dp15
Vtype
p16
VLIKE
p17
sVid
p18
V129438277529606
p19
sVname
p20
VMuhammad Arslan
p21
sassg20
VIslamabad, Pakistan
p22
sVshares
p23
(dp24
Vcount
p25
I29
ssVlink
p26
Vhttps://www.facebook.com/humpakistan.info/photos/a.906799739417415.1073741845.297869513643777/1064935693603818/?type=3
p27
sVcomments
p28
(dp29
g3
(dp30
g5
(dp31
g7
VMQZDZD
p32
sg9
VNwZDZD
p33
sssg13
(lp34
(dp35
Vcreated_time
p36
V2016-10-17T19:35:03+0000
p37
sVmessage
p38
Vtasweer purani hai kyun k metro bus track nazar nahi aa raha.
p39
sVfrom
p40
(dp41
g20
VZarqa Ayaz
p42
sg18
V392480824474664
p43
ssg18
V1064935693603818_1066720866758634
p44
sa(dp45
g36
V2016-10-16T02:48:47+0000
p46
sg38
VUmer Sharif.hum iske samne khare hue the.last rod pe
p47
sg40
(dp48
g20
VMirza Ahmed
p49
sg18
V162393257556792
p50
ssg18
V1064935693603818_1065290636901657
p51
sa(dp52
g36
V2016-10-17T19:32:41+0000
p53
sg38
VMASHAALLAH.
p54
sg40
(dp55
g20
VZarqa Ayaz
p56
sg18
V392480824474664
p57
ssg18
V1064935693603818_1066718760092178
p58
sa(dp59
g36
V2016-10-15T17:45:17+0000
p60
sg38
VCenturaas mall
p61
sg40
(dp62
g20
VSyed Hasan
p63
sg18
V906851309449946
p64
ssg18
V1064935693603818_1064975383599849
p65
sa(dp66
g36
V2016-10-15T21:15:44+0000
p67
sg38
VLove Islamabad,my future plan
p68
sg40
(dp69
g20
VAwaiz Fatima Awaiz
p70
sg18
V1723833131273733
p71
ssg18
V1064935693603818_1065111780252876
p72
sa(dp73
g36
V2016-10-15T19:55:39+0000
p74
sg38
Vky baat hai
p75
sg40
(dp76
g20
VBilal Sohail
p77
sg18
V1054974617953987
p78
ssg18
V1064935693603818_1065057870258267
p79
sa(dp80
g36
V2016-10-16T03:11:16+0000
p81
sg38
VNice g
p82
sg40
(dp83
g20
VNaeem Malik
p84
sg18
V683100621859651
p85
ssg18
V1064935693603818_1065303500233704
p86
sassg36
V2016-10-15T16:59:08+0000
p87
sg38
V#ISLAMABAD \u000aThe Beautiful Capital of Pakistan
p88
sg16
Vphoto
p89
sg18
V297869513643777_1064935693603818
p90
s.