(dp0
Vreactions
p1
(dp2
Vpaging
p3
(dp4
Vcursors
p5
(dp6
Vafter
p7
VTVRBd01EQXlOalUxTURFMU16ZAzVPakUwTnpjNE9UZAzBPRFk2TWpVME1EazJNVFl4TXc9PQZDZD
p8
sVbefore
p9
VTVRBd01EQXlOalUxTURFMU16ZAzVPakUwTnpjNE9UZAzBPRFk2TWpVME1EazJNVFl4TXc9PQZDZD
p10
ssVnext
p11
Vhttps://graph.facebook.com/v2.6/297869513643777_1077683752329012/reactions?access_token=599965930180946%7C575aa5390a4589483de7f8cf99702788&limit=1&after=TVRBd01EQXlOalUxTURFMU16ZAzVPakUwTnpjNE9UZAzBPRFk2TWpVME1EazJNVFl4TXc9PQZDZD
p12
ssVdata
p13
(lp14
(dp15
Vtype
p16
VLIKE
p17
sVid
p18
V1041424402622717
p19
sVname
p20
VKhatir Mustafa
p21
sassg20
VHUNZA VALLEY
p22
sVshares
p23
(dp24
Vcount
p25
I24
ssVlink
p26
Vhttps://www.facebook.com/humpakistan.info/photos/a.961669193930469.1073741858.297869513643777/1077683752329012/?type=3
p27
sVcomments
p28
(dp29
g3
(dp30
g5
(dp31
g7
VMQZDZD
p32
sg9
VMQZDZD
p33
sssg13
(lp34
(dp35
Vcreated_time
p36
V2016-10-30T14:56:47+0000
p37
sVmessage
p38
VAmazing !
p39
sVfrom
p40
(dp41
g20
VGhulam Jilani
p42
sg18
V308192146234085
p43
ssg18
V1077683752329012_1077754782321909
p44
sassg36
V2016-10-30T13:08:09+0000
p45
sg38
V#AtaAbad #Lake \u000aHunza Valley | Gilgit-Baltistan | Pakistan \u2606Photo by : LUQMAN KHAN
p46
sg16
Vphoto
p47
sg18
V297869513643777_1077683752329012
p48
s.