(dp0
Vreactions
p1
(dp2
Vpaging
p3
(dp4
Vcursors
p5
(dp6
Vafter
p7
VTVRBd01EQXlNVEE1TlRrME5EUXhPakUwTnpjNE16QTNNRFk2TWpVME1EazJNVFl4TXc9PQZDZD
p8
sVbefore
p9
VTVRBd01EQXlNVEE1TlRrME5EUXhPakUwTnpjNE16QTNNRFk2TWpVME1EazJNVFl4TXc9PQZDZD
p10
ssVnext
p11
Vhttps://graph.facebook.com/v2.6/297869513643777_1077565735674147/reactions?access_token=599965930180946%7C575aa5390a4589483de7f8cf99702788&limit=1&after=TVRBd01EQXlNVEE1TlRrME5EUXhPakUwTnpjNE16QTNNRFk2TWpVME1EazJNVFl4TXc9PQZDZD
p12
ssVdata
p13
(lp14
(dp15
Vtype
p16
VLIKE
p17
sVid
p18
V1128602177220091
p19
sVname
p20
VMuhammad Ismail Yousuf
p21
sassg20
VTimeline Photos
p22
sVshares
p23
(dp24
Vcount
p25
I1
ssVlink
p26
Vhttps://www.facebook.com/humpakistan.info/photos/a.692310727532985.1073741829.297869513643777/1077565735674147/?type=3
p27
sVcreated_time
p28
V2016-10-30T09:44:35+0000
p29
sVmessage
p30
VBaltoro Glacier
p31
sg16
Vphoto
p32
sg18
V297869513643777_1077565735674147
p33
s.