(dp0
Vreactions
p1
(dp2
Vpaging
p3
(dp4
Vcursors
p5
(dp6
Vafter
p7
VTVRBd01ERXpPVEF6TURJMk9URXlPakUwTnpZANU9UYzFNakk2TWpVME1EazJNVFl4TXc9PQZDZD
p8
sVbefore
p9
VTVRBd01ERXpPVEF6TURJMk9URXlPakUwTnpZANU9UYzFNakk2TWpVME1EazJNVFl4TXc9PQZDZD
p10
ssVnext
p11
Vhttps://graph.facebook.com/v2.6/297869513643777_1064935693603818/reactions?access_token=599965930180946%7C575aa5390a4589483de7f8cf99702788&summary=true&limit=1&after=TVRBd01ERXpPVEF6TURJMk9URXlPakUwTnpZANU9UYzFNakk2TWpVME1EazJNVFl4TXc9PQZDZD
p12
ssVdata
p13
(lp14
(dp15
Vtype
p16
VLIKE
p17
sVid
p18
V129438277529606
p19
sVname
p20
VMuhammad Arslan
p21
sasVsummary
p22
(dp23
Vtotal_count
p24
I189
sVviewer_reaction
p25
VNONE
p26
sssg20
VIslamabad, Pakistan
p27
sVshares
p28
(dp29
Vcount
p30
I29
ssVlink
p31
Vhttps://www.facebook.com/humpakistan.info/photos/a.906799739417415.1073741845.297869513643777/1064935693603818/?type=3
p32
sVcomments
p33
(dp34
g3
(dp35
g5
(dp36
g7
VMQZDZD
p37
sg9
VNwZDZD
p38
sssg13
(lp39
(dp40
Vcreated_time
p41
V2016-10-17T19:35:03+0000
p42
sVmessage
p43
Vtasweer purani hai kyun k metro bus track nazar nahi aa raha.
p44
sVfrom
p45
(dp46
g20
VZarqa Ayaz
p47
sg18
V392480824474664
p48
ssg18
V1064935693603818_1066720866758634
p49
sa(dp50
g41
V2016-10-16T02:48:47+0000
p51
sg43
VUmer Sharif.hum iske samne khare hue the.last rod pe
p52
sg45
(dp53
g20
VMirza Ahmed
p54
sg18
V162393257556792
p55
ssg18
V1064935693603818_1065290636901657
p56
sa(dp57
g41
V2016-10-17T19:32:41+0000
p58
sg43
VMASHAALLAH.
p59
sg45
(dp60
g20
VZarqa Ayaz
p61
sg18
V392480824474664
p62
ssg18
V1064935693603818_1066718760092178
p63
sa(dp64
g41
V2016-10-15T17:45:17+0000
p65
sg43
VCenturaas mall
p66
sg45
(dp67
g20
VSyed Hasan
p68
sg18
V906851309449946
p69
ssg18
V1064935693603818_1064975383599849
p70
sa(dp71
g41
V2016-10-15T21:15:44+0000
p72
sg43
VLove Islamabad,my future plan
p73
sg45
(dp74
g20
VAwaiz Fatima Awaiz
p75
sg18
V1723833131273733
p76
ssg18
V1064935693603818_1065111780252876
p77
sa(dp78
g41
V2016-10-15T19:55:39+0000
p79
sg43
Vky baat hai
p80
sg45
(dp81
g20
VBilal Sohail
p82
sg18
V1054974617953987
p83
ssg18
V1064935693603818_1065057870258267
p84
sa(dp85
g41
V2016-10-16T03:11:16+0000
p86
sg43
VNice g
p87
sg45
(dp88
g20
VNaeem Malik
p89
sg18
V683100621859651
p90
ssg18
V1064935693603818_1065303500233704
p91
sassg41
V2016-10-15T16:59:08+0000
p92
sg43
V#ISLAMABAD \u000aThe Beautiful Capital of Pakistan
p93
sg16
Vphoto
p94
sg18
V297869513643777_1064935693603818
p95
s.