(dp0
Vreactions
p1
(dp2
Vpaging
p3
(dp4
Vcursors
p5
(dp6
Vafter
p7
VTVRBd01EQXlOakF3TnpJMU5UWXlPakUwTnpjM05Ea3lORFU2TWpVME1EazJNVFl4TXc9PQZDZD
p8
sVbefore
p9
VTVRBd01EQXlOakF3TnpJMU5UWXlPakUwTnpjM05Ea3lORFU2TWpVME1EazJNVFl4TXc9PQZDZD
p10
sssVdata
p11
(lp12
(dp13
Vtype
p14
VLIKE
p15
sVid
p16
V1096536940442986
p17
sVname
p18
VUmair Arshad
p19
sassg18
VIMPACT Blood Bank
p20
sVlink
p21
Vhttps://www.facebook.com/impactbloodbank/videos/1290332607678419/
p22
sVcreated_time
p23
V2016-10-29T13:31:28+0000
p24
sg14
Vvideo
p25
sg16
V297869513643777_1076813605749360
p26
s.