(dp0
Vreactions
p1
(dp2
Vpaging
p3
(dp4
Vcursors
p5
(dp6
Vafter
p7
VTVRBd01EQXlOelUwTXpFM09EWTRPakUwTnpjeE5UVTNOalE2TWpVME1EazJNVFl4TXc9PQZDZD
p8
sVbefore
p9
VTVRBd01EQXlOelUwTXpFM09EWTRPakUwTnpjeE5UVTNOalE2TWpVME1EazJNVFl4TXc9PQZDZD
p10
ssVnext
p11
Vhttps://graph.facebook.com/v2.6/297869513643777_1068892123208175/reactions?access_token=599965930180946%7C575aa5390a4589483de7f8cf99702788&limit=1&after=TVRBd01EQXlOelUwTXpFM09EWTRPakUwTnpjeE5UVTNOalE2TWpVME1EazJNVFl4TXc9PQZDZD
p12
ssVdata
p13
(lp14
(dp15
Vtype
p16
VLIKE
p17
sVid
p18
V901381136630355
p19
sVname
p20
VMalik Bilal
p21
sassg20
VKaghan-Naran, Pakistan
p22
sVshares
p23
(dp24
Vcount
p25
I6
ssVlink
p26
Vhttps://www.facebook.com/humpakistan.info/photos/a.965104680253587.1073741861.297869513643777/1068892123208175/?type=3
p27
sVcomments
p28
(dp29
g3
(dp30
g5
(dp31
g7
VMQZDZD
p32
sg9
VMQZDZD
p33
sssg13
(lp34
(dp35
Vcreated_time
p36
V2016-10-20T18:08:16+0000
p37
sVmessage
p38
VBeautiful place !
p39
sVfrom
p40
(dp41
g20
VGhulam Jilani
p42
sg18
V308192146234085
p43
ssg18
V1068892123208175_1069233049840749
p44
sassg36
V2016-10-20T06:45:19+0000
p45
sg38
VStunning view of #KaghanValley
p46
sg16
Vphoto
p47
sg18
V297869513643777_1068892123208175
p48
s.