(dp0
Vreactions
p1
(dp2
Vpaging
p3
(dp4
Vcursors
p5
(dp6
Vafter
p7
VTVRBd01EQTFPVGN6TlRFMk56VXpPakUwTnpjd01EZA3hNRGc2TWpVME1EazJNVFl4TXc9PQZDZD
p8
sVbefore
p9
VTVRBd01EQTFPVGN6TlRFMk56VXpPakUwTnpjd01EZA3hNRGc2TWpVME1EazJNVFl4TXc9PQZDZD
p10
ssVnext
p11
Vhttps://graph.facebook.com/v2.6/297869513643777_1068896789874375/reactions?access_token=599965930180946%7C575aa5390a4589483de7f8cf99702788&limit=1&after=TVRBd01EQTFPVGN6TlRFMk56VXpPakUwTnpjd01EZA3hNRGc2TWpVME1EazJNVFl4TXc9PQZDZD
p12
ssVdata
p13
(lp14
(dp15
Vtype
p16
VLIKE
p17
sVid
p18
V564405720435207
p19
sVname
p20
VAnum Ahmed
p21
sassg20
VMustansar Hussain Tarar
p22
sVlink
p23
Vhttps://www.facebook.com/permalink.php?story_fbid=1145818828838222&id=130604500359665
p24
sVcreated_time
p25
V2016-10-20T06:53:33+0000
p26
sg16
Vlink
p27
sg18
V297869513643777_1068896789874375
p28
s.