(dp0
Vreactions
p1
(dp2
Vpaging
p3
(dp4
Vcursors
p5
(dp6
Vafter
p7
VTVRBd01ERXdORGczT0RJek9USTRPakUwTnpjMU9ERTJOVFU2TWpVME1EazJNVFl4TXc9PQZDZD
p8
sVbefore
p9
VTVRBd01ERXdORGczT0RJek9USTRPakUwTnpjMU9ERTJOVFU2TWpVME1EazJNVFl4TXc9PQZDZD
p10
ssVnext
p11
Vhttps://graph.facebook.com/v2.6/297869513643777_1071874702909917/reactions?access_token=599965930180946%7C575aa5390a4589483de7f8cf99702788&limit=1&after=TVRBd01ERXdORGczT0RJek9USTRPakUwTnpjMU9ERTJOVFU2TWpVME1EazJNVFl4TXc9PQZDZD
p12
ssVdata
p13
(lp14
(dp15
Vtype
p16
VLIKE
p17
sVid
p18
V325248247834767
p19
sVname
p20
VJunaid Hassan Chadhar
p21
sassg20
VKaghan-Naran, Pakistan
p22
sVshares
p23
(dp24
Vcount
p25
I13
ssVlink
p26
Vhttps://www.facebook.com/humpakistan.info/photos/a.965104680253587.1073741861.297869513643777/1071874702909917/?type=3
p27
sVcreated_time
p28
V2016-10-23T16:23:17+0000
p29
sVmessage
p30
V#LALAZAR \u000aKPK | PAKISTAN |
p31
sg16
Vphoto
p32
sg18
V297869513643777_1071874702909917
p33
s.