(dp0
Vreactions
p1
(dp2
Vpaging
p3
(dp4
Vcursors
p5
(dp6
Vafter
p7
VTVRBd01EQXdPRE16T1RRMk5qYzJPakUwTnpVMk5qWTVOamM2TWpVME1EazJNVFl4TXc9PQZDZD
p8
sVbefore
p9
VTVRBd01EQXdPRE16T1RRMk5qYzJPakUwTnpVMk5qWTVOamM2TWpVME1EazJNVFl4TXc9PQZDZD
p10
ssVnext
p11
Vhttps://graph.facebook.com/v2.6/297869513643777_1054957024601685/reactions?access_token=599965930180946%7C575aa5390a4589483de7f8cf99702788&summary=true&limit=1&after=TVRBd01EQXdPRE16T1RRMk5qYzJPakUwTnpVMk5qWTVOamM2TWpVME1EazJNVFl4TXc9PQZDZD
p12
ssVdata
p13
(lp14
(dp15
Vtype
p16
VLIKE
p17
sVid
p18
V1154844787886642
p19
sVname
p20
VBaba Sain
p21
sasVsummary
p22
(dp23
Vtotal_count
p24
I91
sVviewer_reaction
p25
VNONE
p26
sssg20
VKarakoram Highway, Gilgit-Baltistan, Pakistan
p27
sVshares
p28
(dp29
Vcount
p30
I22
ssVlink
p31
Vhttps://www.facebook.com/humpakistan.info/photos/a.969023036528418.1073741866.297869513643777/1054957024601685/?type=3
p32
sVcomments
p33
(dp34
g3
(dp35
g5
(dp36
g7
VMQZDZD
p37
sg9
VMQZDZD
p38
sssg13
(lp39
(dp40
Vcreated_time
p41
V2016-10-04T02:55:53+0000
p42
sVmessage
p43
Vnice pic
p44
sVfrom
p45
(dp46
g20
VRai Anwaar Alam
p47
sg18
V1730765350517743
p48
ssg18
V1054957024601685_1055372384560149
p49
sassg41
V2016-10-03T15:41:19+0000
p50
sg43
V#KKH  \u000aGilgit-Baltistan | Pakistan | \u000a\u2606Photo by: Majid Hussain\u2606
p51
sg16
Vphoto
p52
sg18
V297869513643777_1054957024601685
p53
s.