(dp0
Vreactions
p1
(dp2
Vpaging
p3
(dp4
Vcursors
p5
(dp6
Vafter
p7
VTVRBd01EQXpOalUyTXpBMU9USTRPakUwTnpZAME56UXdPVEE2TWpVME1EazJNVFl4TXc9PQZDZD
p8
sVbefore
p9
VTVRBd01EQXpOalUyTXpBMU9USTRPakUwTnpZAME56UXdPVEE2TWpVME1EazJNVFl4TXc9PQZDZD
p10
ssVnext
p11
Vhttps://graph.facebook.com/v2.6/297869513643777_972485352848853/reactions?access_token=599965930180946%7C575aa5390a4589483de7f8cf99702788&summary=true&limit=1&after=TVRBd01EQXpOalUyTXpBMU9USTRPakUwTnpZAME56UXdPVEE2TWpVME1EazJNVFl4TXc9PQZDZD
p12
ssVdata
p13
(lp14
(dp15
Vtype
p16
VLIKE
p17
sVid
p18
V928140797317788
p19
sVname
p20
VAnwar Ali
p21
sasVsummary
p22
(dp23
Vtotal_count
p24
I12
sVviewer_reaction
p25
VNONE
p26
sssg20
VPhotos from HUM PAKISTAN's post
p27
sVlink
p28
Vhttps://www.facebook.com/humpakistan.info/photos/a.692310727532985.1073741829.297869513643777/972485229515532/?type=3
p29
sVcreated_time
p30
V2016-10-14T00:00:00+0000
p31
sVmessage
p32
V\u0627\u0633\u0644\u0627\u0645 \u0639\u0644\u06cc\u06a9\u0645 \u000a\u0635\u0628\u062d \u0628\u062e\u06cc\u0631 \u0632\u0646\u062f\u06af\u06cc\u000a\u062c\u0645\u0639\u06c1 \u0627\u0644\u0645\u0628\u0627\u0631\u06a9
p33
sg16
Vphoto
p34
sg18
V297869513643777_972485352848853
p35
s.