(dp0
Vreactions
p1
(dp2
Vpaging
p3
(dp4
Vcursors
p5
(dp6
Vafter
p7
VTVRBd01ERXdNVGd3TkRVeE5Ea3lPakUwTnpZANE5qQXpOVFE2TWpVME1EazJNVFl4TXc9PQZDZD
p8
sVbefore
p9
VTVRBd01ERXdNVGd3TkRVeE5Ea3lPakUwTnpZANE5qQXpOVFE2TWpVME1EazJNVFl4TXc9PQZDZD
p10
ssVnext
p11
Vhttps://graph.facebook.com/v2.6/297869513643777_1067309693366418/reactions?access_token=599965930180946%7C575aa5390a4589483de7f8cf99702788&limit=1&after=TVRBd01ERXdNVGd3TkRVeE5Ea3lPakUwTnpZANE5qQXpOVFE2TWpVME1EazJNVFl4TXc9PQZDZD
p12
ssVdata
p13
(lp14
(dp15
Vtype
p16
VLIKE
p17
sVid
p18
V350923308590348
p19
sVname
p20
VAbdul Aziz
p21
sassVshares
p22
(dp23
Vcount
p24
I16
ssVcomments
p25
(dp26
g3
(dp27
g5
(dp28
g7
VMQZDZD
p29
sg9
VMQZDZD
p30
sssg13
(lp31
(dp32
Vcreated_time
p33
V2016-10-19T06:59:47+0000
p34
sVmessage
p35
VSubhan Allah
p36
sVfrom
p37
(dp38
g20
VAbdul Aziz
p39
sg18
V350923308590348
p40
ssg18
V1067309693366418_1068035386627182
p41
sassg33
V2016-10-18T11:49:04+0000
p42
sg35
V#THE #HOLY #QURAN\u000a\u062a\u0644\u0627\u0648\u062a \u062a\u0631\u062a\u06cc\u0644 \u06a9\u0644 \u0642\u0631\u0622\u0646 \u060c \u0627\u06cc\u06a9 \u0627\u06cc\u06a9 \u067e\u0627\u0631\u06c1 \u06a9\u06cc \u0635\u0648\u0631\u062a \u0645\u06cc\u06ba \u060c \u0642\u0627\u0631\u06cc \u0639\u0628\u062f \u0627\u0644\u0628\u0627\u0633\u0637 \u06a9\u06cc \u062f\u0644\u0646\u0634\u06cc\u0646 \u0622\u0648\u0627\u0632 \u0645\u06cc\u06ba :\u000a\u000a\u067e\u06be\u0644\u0627 \u067e\u0627\u0631\u0647 1\u000ahttp://www.sibtayn.com/sound/ar/quran/3abdolbasi6/01.mp3\u000a\u000a\u062f\u0648\u0633\u0631\u0627 \u067e\u0627\u0631\u0647 2\u000ahttp://www.sibtayn.com/sound/ar/quran/3abdolbasi6/02.mp3\u000a\u000a\u062a\u06cc\u0633\u0631\u0627 \u067e\u0627\u0631\u0647 3\u000ahttp://www.sibtayn.com/sound/ar/quran/3abdolbasi6/03.mp3\u000a\u000a\u0686\u0648\u062a\u06be\u0627 \u067e\u0627\u0631\u0647 4\u000ahttp://www.sibtayn.com/sound/ar/quran/3abdolbasi6/04.mp3\u000a\u000a\u067e\u0627\u0646\u0686\u0648\u0627\u06ba \u067e\u0627\u0631\u0647 5\u000ahttp://www.sibtayn.com/sound/ar/quran/3abdolbasi6/05.mp3\u000a\u000a\u0686\u06be\u0679\u0627 \u067e\u0627\u0631\u0647 6\u000ahttp://www.sibtayn.com/sound/ar/quran/3abdolbasi6/06.mp3\u000a\u000a\u0633\u0627\u062a\u0648\u0627\u06ba \u067e\u0627\u0631\u0647 7\u000ahttp://www.sibtayn.com/sound/ar/quran/3abdolbasi6/07.mp3\u000a\u000a\u0622\u0679\u06be\u0648\u0627\u06ba \u067e\u0627\u0631\u0647 8\u000ahttp://www.sibtayn.com/sound/ar/quran/3abdolbasi6/08.mp3\u000a\u000a\u0646\u0648\u0627\u06ba \u067e\u0627\u0631\u0647 9\u000ahttp://www.sibtayn.com/sound/ar/quran/3abdolbasi6/09.mp3\u000a\u000a\u062f\u0633\u0648\u0627\u06ba \u067e\u0627\u0631\u0647 10\u000ahttp://www.sibtayn.com/sound/ar/quran/3abdolbasi6/10.mp3\u000a\u000a\u06af\u06cc\u0627\u0631\u06be\u0648\u0627\u06ba \u067e\u0627\u0631\u0647 11\u000ahttp://www.sibtayn.com/sound/ar/quran/3abdolbasi6/11.mp3\u000a\u000a\u0628\u0627\u0631\u06be\u0648\u0627\u06ba \u067e\u0627\u0631\u0647 12\u000ahttp://www.sibtayn.com/sound/ar/quran/3abdolbasi6/12.mp3\u000a\u000a\u062a\u06cc\u0631\u06be\u0648\u0627\u06ba \u067e\u0627\u0631\u06c1 13\u000ahttp://www.sibtayn.com/sound/ar/quran/3abdolbasi6/13.mp3\u000a\u000a\u0686\u0648\u062f\u06be\u0648\u0627\u06ba \u067e\u0627\u0631\u06c1 14\u000ahttp://www.sibtayn.com/sound/ar/quran/3abdolbasi6/14.mp3\u000a\u000a\u067e\u0646\u062f\u0631\u06be\u0648\u0627\u06ba \u067e\u0627\u0631\u06c1 15\u000ahttp://www.sibtayn.com/sound/ar/quran/3abdolbasi6/15.mp3\u000a\u000a\u0633\u0648\u0644\u06be\u0648\u0627\u06ba \u067e\u0627\u0631\u06c1 16\u000ahttp://www.sibtayn.com/sound/ar/quran/3abdolbasi6/16.mp3\u000a\u000a\u0633\u062a\u0631\u06be\u0648\u0627\u06ba \u067e\u0627\u0631\u06c1 17\u000ahttp://www.sibtayn.com/sound/ar/quran/3abdolbasi6/17.mp3\u000a\u000a\u0627\u0679\u06be\u0627\u0631\u06be\u0648\u0627\u06ba \u067e\u0627\u0631\u06c1 18\u000ahttp://www.sibtayn.com/sound/ar/quran/3abdolbasi6/18.mp3\u000a\u000a\u0627\u0646\u06cc\u0633\u0648\u0627\u06ba \u067e\u0627\u0631\u06c1 19\u000ahttp://www.sibtayn.com/sound/ar/quran/3abdolbasi6/19.mp3\u000a\u000a\u0628\u06cc\u0633\u0648\u0627\u06ba \u067e\u0627\u0631\u06c1 20\u000ahttp://www.sibtayn.com/sound/ar/quran/3abdolbasi6/20.mp3\u000a\u000a\u0627\u06a9\u06cc\u0633\u0648\u0627\u06ba \u067e\u0627\u0631\u06c1 21\u000ahttp://www.sibtayn.com/sound/ar/quran/3abdolbasi6/21.mp3\u000a\u000a\u0628\u0627\u0626\u06cc\u0633\u0648\u0627\u06ba \u067e\u0627\u0631\u06c1 22\u000ahttp://www.sibtayn.com/sound/ar/quran/3abdolbasi6/22.mp3\u000a\u000a\u062a\u0626\u06cc\u0633\u0648\u0627\u06ba \u067e\u0627\u0631\u06c1 23\u000ahttp://www.sibtayn.com/sound/ar/quran/3abdolbasi6/23.mp3\u000a\u000a\u0686\u0648\u0628\u06cc\u0633\u0648\u0627\u06ba \u067e\u0627\u0631\u06c1 24\u000ahttp://www.sibtayn.com/sound/ar/quran/3abdolbasi6/24.mp3\u000a\u000a\u067e\u0686\u06cc\u0633\u0648\u0627\u06ba \u067e\u0627\u0631\u06c1 25\u000ahttp://www.sibtayn.com/sound/ar/quran/3abdolbasi6/25.mp3\u000a\u000a\u0686\u06be\u0628\u06cc\u0633\u0648\u0627\u06ba \u067e\u0627\u0631\u06c1 26\u000ahttp://www.sibtayn.com/sound/ar/quran/3abdolbasi6/26.mp3\u000a\u000a\u0633\u062a\u0627\u0626\u06cc\u0633\u0648\u0627\u06ba \u067e\u0627\u0631\u06c1 27\u000ahttp://www.sibtayn.com/sound/ar/quran/3abdolbasi6/27.mp3\u000a\u000a\u0627\u0679\u06be\u0627\u0626\u06cc\u0633\u0648\u0627\u06ba \u067e\u0627\u0631\u06c1 28 \u000ahttp://www.sibtayn.com/sound/ar/quran/3abdolbasi6/28.mp3\u000a\u000a\u0627\u0646\u062a\u06cc\u0633\u0648\u0627\u06ba \u067e\u0627\u0631\u06c1 29\u000ahttp://www.sibtayn.com/sound/ar/quran/3abdolbasi6/29.mp3\u000a\u000a\u062a\u06cc\u0633\u0648\u0627\u06ba \u067e\u0627\u0631\u06c1 30\u000ahttp://www.sibtayn.com/sound/ar/quran/3abdolbasi6/30.mp3\u000a\u000a\u0627\u0633 \u067e\u0648\u0633\u0679 \u06a9\u0648 \u062f\u0648\u0633\u0631\u0648\u06ba \u062a\u06a9 \u067e\u06be\u0646\u0686\u0627\u0626\u06d2 \u060c \u062c\u0648 \u0644\u0648\u06af \u06a9\u0633\u06cc \u0628\u06be\u06cc \u0637\u0631\u062d \u0631\u0627\u06c1 \u0642\u0631\u0622\u0646 \u067e\u0631 \u06af\u0627\u0645\u0632\u0646 \u06be\u06cc\u06ba \u0627\u0648\u0631 \u0627\u0633 \u06a9\u062a\u0627\u0628 \u0622\u0633\u0645\u0627\u0646\u06cc \u06a9\u06cc \u062e\u062f\u0645\u062a \u06a9\u0631\u062a\u06d2 \u06be\u06cc\u06ba \u060c \u0628\u0627\u0644\u062e\u0635\u0648\u0635 \u0645\u0627\u06c1 \u0636\u06cc\u0627\u0641\u062a \u0627\u0644\u0644\u0647 \u0645\u06cc\u06ba \u062a\u0648 \u0628\u0627\u0631\u06af\u0627\u0647 \u0627\u062d\u062f\u06cc\u062a \u0645\u06cc\u06ba \u0645\u0623\u062c\u0648\u0631 \u06be\u06cc\u06ba \u0627\u0648\u0631 \u06cc\u06c1 \u0686\u06cc\u0632 \u0627\u0646 \u06a9\u06d2 \u0644\u0626\u06d2 \u0642\u0631\u0628 \u0627\u0644\u06be\u06cc \u06a9\u0627 \u0633\u0628\u0628 \u06be\u06d2 \u060c \u0627\u0646 \u0634\u0627\u0621 \u0627\u0644\u0644\u0647 \u062e\u062f\u0627\u0648\u0646\u062f \u06be\u0645 \u0633\u0628 \u06a9\u0648 \u0627\u0633 \u06a9\u0627\u0631 \u062e\u06cc\u0631 \u06a9\u06cc \u0627\u0648\u0631 \u0642\u0631\u0622\u0646 \u06a9\u0631\u06cc\u0645 \u0633\u06d2 \u0645\u0633\u062a\u0641\u06cc\u062f \u06be\u0648\u0646\u06d2 \u06a9\u06cc  \u062a\u0648\u0641\u06cc\u0642 \u0639\u0637\u0627 \u0641\u0631\u0645\u0627\u0626\u06d2 \u060c \u0627\u0648\u0631 \u06be\u0645\u06cc\u06ba \u0642\u0631\u0622\u0646 \u06a9\u06d2 \u0633\u0627\u062a\u06be \u0645\u062d\u0634\u0648\u0631 \u0641\u0631\u0645\u0627\u0626\u06d2 \u0622\u0645\u06cc\u0646 .
p43
sg16
Vstatus
p44
sg18
V297869513643777_1067309693366418
p45
s.