(dp0
Vreactions
p1
(dp2
Vpaging
p3
(dp4
Vcursors
p5
(dp6
Vafter
p7
VTmpZAek1qUTFNakF6T2pFME56YzROVFkxTVRrNk1qVTBNRGsyTVRZAeE13PT0ZD
p8
sVbefore
p9
VTmpZAek1qUTFNakF6T2pFME56YzROVFkxTVRrNk1qVTBNRGsyTVRZAeE13PT0ZD
p10
ssVnext
p11
Vhttps://graph.facebook.com/v2.6/297869513643777_1077681772329210/reactions?access_token=599965930180946%7C575aa5390a4589483de7f8cf99702788&limit=1&after=TmpZAek1qUTFNakF6T2pFME56YzROVFkxTVRrNk1qVTBNRGsyTVRZAeE13PT0ZD
p12
ssVdata
p13
(lp14
(dp15
Vtype
p16
VLIKE
p17
sVid
p18
V10157720730645204
p19
sVname
p20
VHaroon Zafarullah Manj
p21
sassVshares
p22
(dp23
Vcount
p24
I13
ssVlink
p25
Vhttps://www.facebook.com/humpakistan.info/videos/1077681772329210/
p26
sVcomments
p27
(dp28
g3
(dp29
g5
(dp30
g7
VMQZDZD
p31
sg9
VMQZDZD
p32
sssg13
(lp33
(dp34
Vcreated_time
p35
V2016-10-30T13:27:04+0000
p36
sVmessage
p37
VSarrah Hussain Watch it end tk \U0001f60d
p38
sVfrom
p39
(dp40
g20
VMohammad Kauka
p41
sg18
V1264576323565440
p42
ssg18
V1077681772329210_1077696432327744
p43
sassg35
V2016-10-30T13:08:49+0000
p44
sg37
VThis Video Has Been Made to Promote tourism Pakistan.\u000ashare this video and let the world watch. credit goes to all amazing photographers who managed to capture this beauty. thank you.   \u000a( Video By - Raiha Khan )
p45
sg16
Vvideo
p46
sg18
V297869513643777_1077681772329210
p47
s.