(dp0
Vreactions
p1
(dp2
Vpaging
p3
(dp4
Vcursors
p5
(dp6
Vafter
p7
VTVRBd01ERXlPVEV5T0RVMk5UTTRPakUwTnpZAMU1qRTJPVFk2TWpVME1EazJNVFl4TXc9PQZDZD
p8
sVbefore
p9
VTVRBd01ERXlPVEV5T0RVMk5UTTRPakUwTnpZAMU1qRTJPVFk2TWpVME1EazJNVFl4TXc9PQZDZD
p10
ssVnext
p11
Vhttps://graph.facebook.com/v2.6/297869513643777_1062761090487945/reactions?access_token=599965930180946%7C575aa5390a4589483de7f8cf99702788&summary=true&limit=1&after=TVRBd01ERXlPVEV5T0RVMk5UTTRPakUwTnpZAMU1qRTJPVFk2TWpVME1EazJNVFl4TXc9PQZDZD
p12
ssVdata
p13
(lp14
(dp15
Vtype
p16
VLIKE
p17
sVid
p18
V199264033847357
p19
sVname
p20
VMuhammad Abdullah Kahlil
p21
sasVsummary
p22
(dp23
Vtotal_count
p24
I57
sVviewer_reaction
p25
VNONE
p26
sssg20
VHUNZA VALLEY
p27
sVshares
p28
(dp29
Vcount
p30
I4
ssVlink
p31
Vhttps://www.facebook.com/humpakistan.info/photos/a.961669193930469.1073741858.297869513643777/1062761090487945/?type=3
p32
sVcomments
p33
(dp34
g3
(dp35
g5
(dp36
g7
VMQZDZD
p37
sg9
VMQZDZD
p38
sssg13
(lp39
(dp40
Vcreated_time
p41
V2016-10-14T05:48:29+0000
p42
sVmessage
p43
VOhh its goood
p44
sVfrom
p45
(dp46
g20
VAmontip Jankaewrae
p47
sg18
V1737978269759272
p48
ssg18
V1062761090487945_1063621310401923
p49
sassg41
V2016-10-13T10:40:21+0000
p50
sg43
VCrossing #Attabad #Lake, \u000aHunza Valley | Gilgit-Baltistan | Pakistan |
p51
sg16
Vphoto
p52
sg18
V297869513643777_1062761090487945
p53
s.