(dp0
Vreactions
p1
(dp2
Vpaging
p3
(dp4
Vcursors
p5
(dp6
Vafter
p7
VTVRBd01ERXlORFE0TlRrNE1EazFPakUwTnpZAM01EQTJOekk2TWpVME1EazJNVFl4TXc9PQZDZD
p8
sVbefore
p9
VTVRBd01ERXlORFE0TlRrNE1EazFPakUwTnpZAM01EQTJOekk2TWpVME1EazJNVFl4TXc9PQZDZD
p10
ssVnext
p11
Vhttps://graph.facebook.com/v2.6/297869513643777_1065340533563334/reactions?access_token=599965930180946%7C575aa5390a4589483de7f8cf99702788&limit=1&after=TVRBd01ERXlORFE0TlRrNE1EazFPakUwTnpZAM01EQTJOekk2TWpVME1EazJNVFl4TXc9PQZDZD
p12
ssVdata
p13
(lp14
(dp15
Vtype
p16
VLIKE
p17
sVid
p18
V208089682949317
p19
sVname
p20
VMuhammad Abdullah
p21
sassVshares
p22
(dp23
Vcount
p24
I5
ssVlink
p25
Vhttps://www.facebook.com/humpakistan.info/videos/1065340533563334/
p26
sVcreated_time
p27
V2016-10-16T04:39:24+0000
p28
sVmessage
p29
V#Butterflies
p30
sg16
Vvideo
p31
sg18
V297869513643777_1065340533563334
p32
s.