(dp0
Vreactions
p1
(dp2
Vpaging
p3
(dp4
Vcursors
p5
(dp6
Vafter
p7
VTVRBd01ERXpORGs0TWpNek1EY3dPakUwTnpZAek56TTBNRGM2TWpVME1EazJNVFl4TXc9PQZDZD
p8
sVbefore
p9
VTVRBd01ERXpORGs0TWpNek1EY3dPakUwTnpZAek56TTBNRGM2TWpVME1EazJNVFl4TXc9PQZDZD
p10
ssVnext
p11
Vhttps://graph.facebook.com/v2.6/297869513643777_1061323520631702/reactions?access_token=599965930180946%7C575aa5390a4589483de7f8cf99702788&summary=true&limit=1&after=TVRBd01ERXpORGs0TWpNek1EY3dPakUwTnpZAek56TTBNRGM2TWpVME1EazJNVFl4TXc9PQZDZD
p12
ssVdata
p13
(lp14
(dp15
Vtype
p16
VLIKE
p17
sVid
p18
V173880983071842
p19
sVname
p20
VArifa Sohail
p21
sasVsummary
p22
(dp23
Vtotal_count
p24
I37
sVviewer_reaction
p25
VNONE
p26
sssg20
VSkardu, Gilgit-Baltistan, Pakistan
p27
sVshares
p28
(dp29
Vcount
p30
I6
ssVlink
p31
Vhttps://www.facebook.com/humpakistan.info/photos/a.970586629705392.1073741868.297869513643777/1061323520631702/?type=3
p32
sVcreated_time
p33
V2016-10-11T15:50:47+0000
p34
sVmessage
p35
V#Skardu\u000aGilgit-Baltistan | Pakistan | \u000aA beautiful view desert, mountains, orchards and river..\u000awhat a megic of nature
p36
sg16
Vphoto
p37
sg18
V297869513643777_1061323520631702
p38
s.