(dp0
Vreactions
p1
(dp2
Vpaging
p3
(dp4
Vcursors
p5
(dp6
Vafter
p7
VTVRBd01ERXhPREV4TWpFek16UXhPakUwTnpZAM01ESXdPRFk2TWpVME1EazJNVFl4TXc9PQZDZD
p8
sVbefore
p9
VTVRBd01ERXhPREV4TWpFek16UXhPakUwTnpZAM01ESXdPRFk2TWpVME1EazJNVFl4TXc9PQZDZD
p10
ssVnext
p11
Vhttps://graph.facebook.com/v2.6/297869513643777_1065650130199041/reactions?access_token=599965930180946%7C575aa5390a4589483de7f8cf99702788&limit=1&after=TVRBd01ERXhPREV4TWpFek16UXhPakUwTnpZAM01ESXdPRFk2TWpVME1EazJNVFl4TXc9PQZDZD
p12
ssVdata
p13
(lp14
(dp15
Vtype
p16
VLIKE
p17
sVid
p18
V201267490276957
p19
sVname
p20
VBadar Uddin Sindhi Chhabroo
p21
sassg20
VCPEC
p22
sVlink
p23
Vhttps://www.facebook.com/humpakistan.info/photos/a.1065649860199068.1073741894.297869513643777/1065650130199041/?type=3
p24
sVcreated_time
p25
V2016-10-16T14:56:02+0000
p26
sVmessage
p27
VSeven Wind Power Projects 350 MW to be ready by next month in Sindh\u000aKarachi\u2014Seven wind power projects with cumulative capacity of 350 mega watts installed along the coastline in the Sindh province are almost ready and expected to start electricity generation by next month.\u000aThese cheap and environment-friendly wind power projects, each having the capacity of 50 mega watts, include Yunus Energy, Metro Power Company, Gul Wind Energy and Master Energy, an official of the Alternative Energy Development Board (AEDB) told APP here on Sunday.\u000aHe said that another windmill project with a capacity of 50MW is under construction in Jhimpir, Sindh. Sachal Energy Development (pvt) Limited (SEDL) is developing this energy project, and it is expected to be completed by mid of next year, he added.
p28
sg16
Vphoto
p29
sg18
V297869513643777_1065650130199041
p30
s.