(dp0
Vreactions
p1
(dp2
Vpaging
p3
(dp4
Vcursors
p5
(dp6
Vafter
p7
VTVRBd01EQXpOalUyTXpBMU9USTRPakUwTnpZAME56UXhNRFU2TWpVME1EazJNVFl4TXc9PQZDZD
p8
sVbefore
p9
VTVRBd01EQXpOalUyTXpBMU9USTRPakUwTnpZAME56UXhNRFU2TWpVME1EazJNVFl4TXc9PQZDZD
p10
ssVnext
p11
Vhttps://graph.facebook.com/v2.6/297869513643777_1059596517471069/reactions?access_token=599965930180946%7C575aa5390a4589483de7f8cf99702788&summary=true&limit=1&after=TVRBd01EQXpOalUyTXpBMU9USTRPakUwTnpZAME56UXhNRFU2TWpVME1EazJNVFl4TXc9PQZDZD
p12
ssVdata
p13
(lp14
(dp15
Vtype
p16
VLIKE
p17
sVid
p18
V928140797317788
p19
sVname
p20
VAnwar Ali
p21
sasVsummary
p22
(dp23
Vtotal_count
p24
I49
sVviewer_reaction
p25
VNONE
p26
sssg20
VAstore Valley
p27
sVshares
p28
(dp29
Vcount
p30
I2
ssVlink
p31
Vhttps://www.facebook.com/humpakistan.info/photos/a.1011185965645458.1073741885.297869513643777/1059596517471069/?type=3
p32
sVcreated_time
p33
V2016-10-09T10:08:02+0000
p34
sVmessage
p35
V#Rama #Meadow\u000aAstore | Gilgit-Baltistan | Pakistan |
p36
sg16
Vphoto
p37
sg18
V297869513643777_1059596517471069
p38
s.