(dp0
Vreactions
p1
(dp2
Vpaging
p3
(dp4
Vcursors
p5
(dp6
Vafter
p7
VTVRBd01ERXpORGs0TWpNek1EY3dPakUwTnpZAeU1UUTFNREU2TWpVME1EazJNVFl4TXc9PQZDZD
p8
sVbefore
p9
VTVRBd01ERXpORGs0TWpNek1EY3dPakUwTnpZAeU1UUTFNREU2TWpVME1EazJNVFl4TXc9PQZDZD
p10
ssVnext
p11
Vhttps://graph.facebook.com/v2.6/297869513643777_1058956550868399/reactions?access_token=599965930180946%7C575aa5390a4589483de7f8cf99702788&summary=true&limit=1&after=TVRBd01ERXpORGs0TWpNek1EY3dPakUwTnpZAeU1UUTFNREU2TWpVME1EazJNVFl4TXc9PQZDZD
p12
ssVdata
p13
(lp14
(dp15
Vtype
p16
VLIKE
p17
sVid
p18
V173880983071842
p19
sVname
p20
VArifa Sohail
p21
sasVsummary
p22
(dp23
Vtotal_count
p24
I99
sVviewer_reaction
p25
VNONE
p26
sssg20
VLAHORE
p27
sVshares
p28
(dp29
Vcount
p30
I15
ssVlink
p31
Vhttps://www.facebook.com/humpakistan.info/photos/a.963580400406015.1073741859.297869513643777/1058956550868399/?type=3
p32
sVcreated_time
p33
V2016-10-08T14:57:40+0000
p34
sVmessage
p35
VBahria Masjid\u000aLahore | Pakistan | \u000a\u2606 Photo by: Uzair Aziz\u2606
p36
sg16
Vphoto
p37
sg18
V297869513643777_1058956550868399
p38
s.