(dp0
Vreactions
p1
(dp2
Vpaging
p3
(dp4
Vcursors
p5
(dp6
Vafter
p7
VTVRBd01EQXpNRGcwTlRjeE9USTRPakUwTnpjeU5qQXhOVGs2TWpVME1EazJNVFl4TXc9PQZDZD
p8
sVbefore
p9
VTVRBd01EQXpNRGcwTlRjeE9USTRPakUwTnpjeU5qQXhOVGs2TWpVME1EazJNVFl4TXc9PQZDZD
p10
ssVnext
p11
Vhttps://graph.facebook.com/v2.6/297869513643777_1067114303385957/reactions?access_token=599965930180946%7C575aa5390a4589483de7f8cf99702788&limit=1&after=TVRBd01EQXpNRGcwTlRjeE9USTRPakUwTnpjeU5qQXhOVGs2TWpVME1EazJNVFl4TXc9PQZDZD
p12
ssVdata
p13
(lp14
(dp15
Vtype
p16
VLIKE
p17
sVid
p18
V1045414232238053
p19
sVname
p20
VGulBaz Khan
p21
sassVshares
p22
(dp23
Vcount
p24
I6
ssVlink
p25
Vhttps://www.facebook.com/humpakistan.info/videos/1067114303385957/
p26
sVcreated_time
p27
V2016-10-18T04:34:28+0000
p28
sVmessage
p29
V\u06cc\u0627\u0633\u0631 \u0634\u0627\u06c1 \u06a9\u0627 \u0648\u06c1 \u06a9\u06cc\u0686 \u062c\u0633 \u0646\u06d2 \u062f\u0628\u0626\u06cc \u0679\u06cc\u0633\u0679 \u06a9\u0627 \u0646\u062a\u06cc\u062c\u06c1 \u0628\u062f\u0644 \u062f\u06cc\u0627. \u000a\u0648\u06cc\u0688\u06cc\u0648 \u0628\u0634\u06a9\u0631\u06cc\u06c1 \u067e\u06cc \u0679\u06cc \u0648\u06cc \u0627\u0633\u067e\u0648\u0631\u0679\u0633
p30
sg16
Vvideo
p31
sg18
V297869513643777_1067114303385957
p32
s.