(dp0
Vreactions
p1
(dp2
Vpaging
p3
(dp4
Vcursors
p5
(dp6
Vafter
p7
VTVRBd01EQTVOamMwT0RNMk56a3pPakUwTnpZAMU1qQXhNRE02TWpVME1EazJNVFl4TXc9PQZDZD
p8
sVbefore
p9
VTVRBd01EQTVOamMwT0RNMk56a3pPakUwTnpZAMU1qQXhNRE02TWpVME1EazJNVFl4TXc9PQZDZD
p10
ssVnext
p11
Vhttps://graph.facebook.com/v2.6/297869513643777_1058910574206330/reactions?access_token=599965930180946%7C575aa5390a4589483de7f8cf99702788&summary=true&limit=1&after=TVRBd01EQTVOamMwT0RNMk56a3pPakUwTnpZAMU1qQXhNRE02TWpVME1EazJNVFl4TXc9PQZDZD
p12
ssVdata
p13
(lp14
(dp15
Vtype
p16
VLIKE
p17
sVid
p18
V360902214242270
p19
sVname
p20
VSheikh Usman
p21
sasVsummary
p22
(dp23
Vtotal_count
p24
I282
sVviewer_reaction
p25
VNONE
p26
sssg20
VKaghan-Naran, Pakistan
p27
sVshares
p28
(dp29
Vcount
p30
I68
ssVlink
p31
Vhttps://www.facebook.com/humpakistan.info/photos/a.965104680253587.1073741861.297869513643777/1058910574206330/?type=3
p32
sVcomments
p33
(dp34
g3
(dp35
g5
(dp36
g7
VMQZDZD
p37
sg9
VNQZDZD
p38
sssg13
(lp39
(dp40
Vcreated_time
p41
V2016-10-08T15:28:56+0000
p42
sVmessage
p43
VBeautiful more
p44
sVfrom
p45
(dp46
g20
VAmontip Jankaewrae
p47
sg18
V1737978269759272
p48
ssg18
V1058910574206330_1058971904200197
p49
sa(dp50
g41
V2016-10-10T07:06:58+0000
p51
sg43
VMasha Allah subhan Allah very nice
p52
sg45
(dp53
g20
VMuhammad Ali
p54
sg18
V212674302477800
p55
ssg18
V1058910574206330_1060275064069881
p56
sa(dp57
g41
V2016-10-08T19:01:09+0000
p58
sg43
VAwsome
p59
sg45
(dp60
g20
VMuhammad Nawaz
p61
sg18
V10154706853019297
p62
ssg18
V1058910574206330_1059108437519877
p63
sa(dp64
g41
V2016-10-08T15:21:24+0000
p65
sg43
VYeh JANNAT Nazir wadiyan..
p66
sg45
(dp67
g20
VAmir Saif
p68
sg18
V10209632552904010
p69
ssg18
V1058910574206330_1058968147533906
p70
sa(dp71
g41
V2016-10-08T19:15:32+0000
p72
sg43
VGorgeous place
p73
sg45
(dp74
g20
VAhmad Awais
p75
sg18
V169844430142548
p76
ssg18
V1058910574206330_1059114577519263
p77
sassg41
V2016-10-08T13:46:10+0000
p78
sg43
VKaghan Valley
p79
sg16
Vphoto
p80
sg18
V297869513643777_1058910574206330
p81
s.