(dp0
Vreactions
p1
(dp2
Vpaging
p3
(dp4
Vcursors
p5
(dp6
Vafter
p7
VTVRBd01ERXpOekV4TkRjeU1UY3pPakUwTnpZAd01EWTVPVEk2TWpVME1EazJNVFl4TXc9PQZDZD
p8
sVbefore
p9
VTVRBd01ERXpOekV4TkRjeU1UY3pPakUwTnpZAd01EWTVPVEk2TWpVME1EazJNVFl4TXc9PQZDZD
p10
ssVnext
p11
Vhttps://graph.facebook.com/v2.6/297869513643777_1053282571435797/reactions?access_token=599965930180946%7C575aa5390a4589483de7f8cf99702788&summary=true&limit=1&after=TVRBd01ERXpOekV4TkRjeU1UY3pPakUwTnpZAd01EWTVPVEk2TWpVME1EazJNVFl4TXc9PQZDZD
p12
ssVdata
p13
(lp14
(dp15
Vtype
p16
VLIKE
p17
sVid
p18
V148492035617845
p19
sVname
p20
VArif Ismail
p21
sasVsummary
p22
(dp23
Vtotal_count
p24
I7
sVviewer_reaction
p25
VNONE
p26
sssg20
VTimeline Photos
p27
sVcomments
p28
(dp29
g3
(dp30
g5
(dp31
g7
VMQZDZD
p32
sg9
VMQZDZD
p33
sssg13
(lp34
(dp35
Vcreated_time
p36
V2016-10-09T09:56:40+0000
p37
sVmessage
p38
VNice post
p39
sVfrom
p40
(dp41
g20
VArif Ismail
p42
sg18
V148492035617845
p43
ssg18
V1053282571435797_1059588634138524
p44
sassVlink
p45
Vhttps://www.facebook.com/humpakistan.info/photos/a.692310727532985.1073741829.297869513643777/1053282571435797/?type=3
p46
sg36
V2016-10-01T16:37:44+0000
p47
sg38
V\u06cc\u06a9\u0645 \u0627\u06a9\u062a\u0648\u0628\u0631 \u0628\u0632\u0631\u06af\u0648\u06ba \u06a9\u0627 \u0639\u0627\u0644\u0645\u06cc \u062f\u0646\u000a\u067e\u0627\u06a9\u0633\u062a\u0627\u0646 \u0633\u0645\u06cc\u062a \u062f\u0646\u06cc\u0627 \u0628\u06be\u0631 \u0627\u0642\u0648\u0627\u0645 \u0645\u062a\u062d\u062f\u06c1 \u06a9\u06d2 \u0632\u06cc\u0631 \u0627\u06c1\u062a\u0645\u0627\u0645 \u0628\u0632\u0631\u06af\u0648\u06ba \u06a9\u0627 \u0639\u0627\u0644\u0645\u06cc \u062f\u0646 \u0627\u0653\u062c \u0645\u0646\u0627\u06cc\u0627 \u062c\u0627\u0631\u06c1\u0627 \u06c1\u06d2\u06d4 \u0627\u0633 \u062f\u0646 \u06a9\u06d2 \u0645\u0646\u0627\u0646\u06d2 \u06a9\u0627 \u0645\u0642\u0635\u062f \u0628\u0632\u0631\u06af \u0627\u0641\u0631\u0627\u062f \u06a9\u06cc \u0636\u0631\u0648\u0631\u06cc\u0627\u062a\u2018 \u0645\u0633\u0627\u0626\u0644 \u0627\u0648\u0631 \u062a\u06a9\u0627\u0644\u06cc\u0641 \u06a9\u06d2 \u0628\u0627\u0631\u06d2 \u0645\u06cc\u06ba \u0645\u0639\u0627\u0634\u0631\u06d2 \u06a9\u0648 \u0627\u0653\u06af\u0627\u06c1\u06cc \u0641\u0631\u0627\u06c1\u0645 \u06a9\u0631\u0646\u0627 \u0627\u0648\u0631 \u0644\u0648\u06af\u0648\u06ba \u06a9\u06cc \u062a\u0648\u062c\u06c1 \u0628\u0632\u0631\u06af \u0627\u0641\u0631\u0627\u062f \u06a9\u06d2 \u062d\u0642\u0648\u0642 \u06a9\u06cc \u0637\u0631\u0641 \u062f\u0644\u0648\u0627\u0646\u0627\u06c1\u06d2\u06d4\u000a\u000a\u0628\u0632\u0631\u06af \u0634\u06c1\u0631\u06cc\u0648\u06ba \u06a9\u0627 \u0639\u0627\u0644\u0645\u06cc \u062f\u0646 \u0627\u0633 \u0644\u0626\u06d2 \u0628\u06be\u06cc \u0645\u0646\u0627\u06cc\u0627\u062c\u0627\u062a\u0627 \u06c1\u06d2 \u06a9\u06c1 \u0631\u06cc\u0679\u0627\u0626\u0631\u0688 \u060c \u0639\u0645\u0631 \u0631\u0633\u06cc\u062f\u06c1 \u0627\u0648\u0631 \u0628\u0632\u0631\u06af \u0627\u0641\u0631\u0627\u062f\u06a9\u0648 \u0632\u0646\u062f\u06af\u06cc \u06a9\u06d2 \u0627\u0653\u062e\u0631\u06cc \u0627\u06cc\u0627\u0645 \u0645\u06cc\u06ba \u062f\u0631\u067e\u06cc\u0634 \u0645\u0634\u06a9\u0644\u0627\u062a \u060c \u0645\u0633\u0627\u0626\u0644 \u060c \u067e\u0631\u06cc\u0634\u0627\u0646\u06cc\u0648\u06ba \u0633\u06d2 \u0646\u0626\u06cc \u0646\u0633\u0644 \u06a9\u0648 \u0627\u0653\u06af\u0627\u06c1 \u06a9\u06cc\u0627 \u062c\u0627\u0626\u06d2 \u062a\u0627\u06a9\u06c1 \u0648\u06c1 \u0628\u0632\u0631\u06af \u0634\u06c1\u0631\u06cc\u0648\u06ba \u06a9\u0648\u0639\u0645\u0631 \u06a9\u06d2 \u0627\u0653\u062e\u0631\u06cc \u062d\u0635\u06c1 \u0645\u06cc\u06ba \u06a9\u0633\u06cc \u0642\u0633\u0645 \u06a9\u06d2 \u0627\u062d\u0633\u0627\u0633 \u0645\u062d\u0631\u0648\u0645\u06cc \u0633\u06d2 \u0646\u062c\u0627\u062a \u062f\u0644\u0627 \u0633\u06a9\u06cc\u06ba \u06d4\u000a\u000a\u0627\u0633 \u062f\u0646 \u06a9\u06cc \u0645\u0646\u0627\u0633\u0628\u062a \u0633\u06d2 \u062a\u0642\u0631\u06cc\u0628\u0627\u062a\u2018 \u0633\u06cc\u0645\u06cc\u0646\u0627\u0631\u0632 \u0627\u0648\u0631 \u0648\u0631\u06a9\u0634\u0627\u067e\u0633 \u06a9\u0627 \u0627\u0646\u0639\u0642\u0627\u062f \u06a9\u06cc\u0627 \u062c\u0627\u062a\u0627 \u06c1\u06d2 \u062c\u0646 \u0645\u06cc\u06ba \u0645\u0639\u0627\u0634\u0631\u06d2 \u06a9\u06d2 \u0636\u0639\u06cc\u0641 \u0627\u0641\u0631\u0627\u062f \u06a9\u06cc \u062f\u06cc\u06a9\u06be \u0628\u06be\u0627\u0644 \u0627\u0648\u0631 \u0627\u0646 \u06a9\u06d2 \u062d\u0642\u0648\u0642 \u0633\u06d2 \u0645\u062a\u0639\u0644\u0642 \u0644\u0648\u06af\u0648\u06ba \u06a9\u0648 \u0627\u0653\u06af\u0627\u06c1\u06cc \u0641\u0631\u0627\u06c1\u0645 \u06a9\u06cc \u062c\u0627\u062a\u06cc \u06c1\u06d2\u06d4 \u000a\u000a\u067e\u0627\u06a9\u0633\u062a\u0627\u0646 \u062c\u06cc\u0633\u06d2 \u0645\u0633\u0644\u0645 \u0645\u0639\u0627\u0634\u0631\u06d2 \u0645\u06cc\u06ba \u0628\u06be\u06cc \u0628\u0691\u06cc \u062a\u06cc\u0632\u06cc \u06a9\u06d2 \u0633\u0627\u062a\u06be \u0628\u0632\u0631\u06af\u0648\u06ba \u06a9\u0648 \u062f\u0627\u0631\u0644\u06a9\u0641\u0627\u0644\u06c1 \u0627\u0648\u0631 \u062f\u0627\u0631\u0644\u0627\u0645\u0627\u0646 \u062c\u06cc\u0633\u06cc \u062c\u06af\u06c1\u0648\u06ba \u067e\u0631 \u0686\u06be\u0648\u0691 \u06a9\u0631 \u062c\u0627\u0646\u06d2 \u06a9\u06d2 \u0631\u062c\u062d\u0627\u0646 \u0645\u06cc\u06ba \u062a\u06cc\u0632\u06cc \u0627\u0653\u0626\u06cc \u06c1\u06d2 \u0627\u0648\u0631 \u0644\u0648\u06af \u0627\u067e\u0646\u06d2 \u0628\u0632\u0631\u06af\u0648\u06ba \u0633\u06d2 \u062f\u0648\u0631 \u06c1\u0648\u062a\u06d2 \u0686\u0644\u06d2 \u062c\u0627\u0631\u06c1\u06d2 \u06c1\u06cc\u06ba \u0627\u06cc\u0633\u06cc \u0635\u0648\u0631\u062a \u062d\u0627\u0644 \u0645\u06cc\u06ba \u0627\u0633 \u0642\u0633\u0645 \u06a9\u06d2 \u062f\u0646\u0648\u06ba \u06a9\u0648 \u0645\u0646\u0627\u0646\u0627 \u0639\u0648\u0627\u0645 \u06a9\u06cc \u062c\u0627\u0646\u0628 \u0633\u06d2 \u0627\u06cc\u06a9 \u0627\u0686\u06be\u0627 \u0627\u0642\u062f\u0627\u0645 \u0642\u0631\u0627\u0631 \u062f\u06cc\u0627 \u06af\u06cc\u0627 \u06c1\u06d2\u06d4
p48
sg16
Vphoto
p49
sg18
V297869513643777_1053282571435797
p50
s.