(dp0
Vreactions
p1
(dp2
Vpaging
p3
(dp4
Vcursors
p5
(dp6
Vafter
p7
VTVRBd01ERXhOamsxTnpJMk5qVTJPakUwTnpZAeE1qazFOekU2TWpVME1EazJNVFl4TXc9PQZDZD
p8
sVbefore
p9
VTVRBd01ERXhOamsxTnpJMk5qVTJPakUwTnpZAeE1qazFOekU2TWpVME1EazJNVFl4TXc9PQZDZD
p10
ssVnext
p11
Vhttps://graph.facebook.com/v2.6/297869513643777_1059838884113499/reactions?access_token=599965930180946%7C575aa5390a4589483de7f8cf99702788&summary=true&limit=1&after=TVRBd01ERXhOamsxTnpJMk5qVTJPakUwTnpZAeE1qazFOekU2TWpVME1EazJNVFl4TXc9PQZDZD
p12
ssVdata
p13
(lp14
(dp15
Vtype
p16
VLIKE
p17
sVid
p18
V285134345219754
p19
sVname
p20
VRana Abubakar
p21
sasVsummary
p22
(dp23
Vtotal_count
p24
I30
sVviewer_reaction
p25
VNONE
p26
sssg20
VTimeline Photos
p27
sVshares
p28
(dp29
Vcount
p30
I3
ssVlink
p31
Vhttps://www.facebook.com/humpakistan.info/photos/a.692310727532985.1073741829.297869513643777/1059838884113499/?type=3
p32
sVcomments
p33
(dp34
g3
(dp35
g5
(dp36
g7
VMTgZD
p37
sg9
VMzcZD
p38
ssg11
Vhttps://graph.facebook.com/v2.6/297869513643777_1059838884113499/comments?access_token=599965930180946%7C575aa5390a4589483de7f8cf99702788&limit=20&after=MTgZD
p39
ssg13
(lp40
(dp41
Vcreated_time
p42
V2016-10-10T04:01:15+0000
p43
sVmessage
p44
V\u06e9 \u0628\u0650\u0633\u0652\u0645\u0650 \u0627\u0644\u0644\u064e\u0651\u0647\u0650 \u0627\u0644\u0631\u064e\u0651\u062d\u0652\u0645\u064e\u0646\u0650 \u0627\u0644\u0631\u064e\u0651\u062d\u0650\u064a\u0645\u0650 \u06e9 \u0627\u0644\u0652\u062d\u064e\u0645\u0652\u062f\u064f \u0644\u0650\u0644\u064e\u0651\u0647\u0650 \u0631\u064e\u0628\u0650\u0651 \u0627\u0644\u0652\u0639\u064e\u0627\u0644\u064e\u0645\u0650\u064a\u0646\u064e \u06e9 \u0627\u0644\u0631\u064e\u0651\u062d\u0652\u0645\u064e\u0646\u0650 \u0627\u0644\u0631\u064e\u0651\u062d\u0650\u064a\u0645\u0650 \u06e9 \u0645\u064e\u0627\u0644\u0650\u0643\u0650 \u064a\u064e\u0648\u0652\u0645\u0650 \u0627\u0644\u062f\u0650\u0651\u064a\u0646\u0650\u06e9 \u0625\u0650\u064a\u064e\u0651\u0627\u0643\u064e \u0646\u064e\u0639\u0652\u0628\u064f\u062f\u064f \u0648\u064e\u0625\u0650\u064a\u064e\u0651\u0627\u0643\u064e \u0646\u064e\u0633\u0652\u062a\u064e\u0639\u0650\u064a\u0646\u064f \u06e9 \u0627\u0647\u0652\u062f\u0650\u0646\u064e\u0627 \u0627\u0644\u0635\u0650\u0651\u0631\u064e\u0627\u0637\u064e \u0627\u0644\u0652\u0645\u064f\u0633\u0652\u062a\u064e\u0642\u0650\u064a\u0645\u064e \u06e9 \u0635\u0650\u0631\u064e\u0627\u0637\u064e \u0627\u0644\u064e\u0651\u0630\u0650\u064a\u0646\u064e \u0623\u064e\u0646\u0652\u0639\u064e\u0645\u0652\u062a\u064e \u0639\u064e\u0644\u064e\u064a\u0652\u0647\u0650\u0645\u0652 \u063a\u064e\u064a\u0652\u0631\u0650 \u0627\u0644\u0652\u0645\u064e\u063a\u0652\u0636\u064f\u0648\u0628\u0650 \u0639\u064e\u0644\u064e\u064a\u0652\u0647\u0650\u0645\u0652 \u0648\u064e\u0644\u064e\u0627 \u0627\u0644\u0636\u064e\u0651\u0627\u0644\u0650\u0651\u064a\u0646\u064e
p45
sVfrom
p46
(dp47
g20
VHUM PAKISTAN
p48
sg18
V297869513643777
p49
ssg18
V1059838884113499_1060188464078541
p50
sa(dp51
g42
V2016-10-10T10:06:21+0000
p52
sg44
V\u06e9 \u0628\u0650\u0633\u0652\u0645\u0650 \u0627\u0644\u0644\u064e\u0651\u0647\u0650 \u0627\u0644\u0631\u064e\u0651\u062d\u0652\u0645\u064e\u0646\u0650 \u0627\u0644\u0631\u064e\u0651\u062d\u0650\u064a\u0645\u0650 \u06e9 \u0627\u0644\u0652\u062d\u064e\u0645\u0652\u062f\u064f \u0644\u0650\u0644\u064e\u0651\u0647\u0650 \u0631\u064e\u0628\u0650\u0651 \u0627\u0644\u0652\u0639\u064e\u0627\u0644\u064e\u0645\u0650\u064a\u0646\u064e \u06e9 \u0627\u0644\u0631\u064e\u0651\u062d\u0652\u0645\u064e\u0646\u0650 \u0627\u0644\u0631\u064e\u0651\u062d\u0650\u064a\u0645\u0650 \u06e9 \u0645\u064e\u0627\u0644\u0650\u0643\u0650 \u064a\u064e\u0648\u0652\u0645\u0650 \u0627\u0644\u062f\u0650\u0651\u064a\u0646\u0650\u06e9 \u0625\u0650\u064a\u064e\u0651\u0627\u0643\u064e \u0646\u064e\u0639\u0652\u0628\u064f\u062f\u064f \u0648\u064e\u0625\u0650\u064a\u064e\u0651\u0627\u0643\u064e \u0646\u064e\u0633\u0652\u062a\u064e\u0639\u0650\u064a\u0646\u064f \u06e9 \u0627\u0647\u0652\u062f\u0650\u0646\u064e\u0627 \u0627\u0644\u0635\u0650\u0651\u0631\u064e\u0627\u0637\u064e \u0627\u0644\u0652\u0645\u064f\u0633\u0652\u062a\u064e\u0642\u0650\u064a\u0645\u064e \u06e9 \u0635\u0650\u0631\u064e\u0627\u0637\u064e \u0627\u0644\u064e\u0651\u0630\u0650\u064a\u0646\u064e \u0623\u064e\u0646\u0652\u0639\u064e\u0645\u0652\u062a\u064e \u0639\u064e\u0644\u064e\u064a\u0652\u0647\u0650\u0645\u0652 \u063a\u064e\u064a\u0652\u0631\u0650 \u0627\u0644\u0652\u0645\u064e\u063a\u0652\u0636\u064f\u0648\u0628\u0650 \u0639\u064e\u0644\u064e\u064a\u0652\u0647\u0650\u0645\u0652 \u0648\u064e\u0644\u064e\u0627 \u0627\u0644\u0636\u064e\u0651\u0627\u0644\u0650\u0651\u064a\u0646\u064e
p53
sg46
(dp54
g20
VSaleem Shah
p55
sg18
V1177631598983396
p56
ssg18
V1059838884113499_1060356550728399
p57
sa(dp58
g42
V2016-10-10T15:15:22+0000
p59
sg44
V\u06e9 \u0628\u0650\u0633\u0652\u0645\u0650 \u0627\u0644\u0644\u064e\u0651\u0647\u0650 \u0627\u0644\u0631\u064e\u0651\u062d\u0652\u0645\u064e\u0646\u0650 \u0627\u0644\u0631\u064e\u0651\u062d\u0650\u064a\u0645\u0650 \u06e9 \u0627\u0644\u0652\u062d\u064e\u0645\u0652\u062f\u064f \u0644\u0650\u0644\u064e\u0651\u0647\u0650 \u0631\u064e\u0628\u0650\u0651 \u0627\u0644\u0652\u0639\u064e\u0627\u0644\u064e\u0645\u0650\u064a\u0646\u064e \u06e9 \u0627\u0644\u0631\u064e\u0651\u062d\u0652\u0645\u064e\u0646\u0650 \u0627\u0644\u0631\u064e\u0651\u062d\u0650\u064a\u0645\u0650 \u06e9 \u0645\u064e\u0627\u0644\u0650\u0643\u0650 \u064a\u064e\u0648\u0652\u0645\u0650 \u0627\u0644\u062f\u0650\u0651\u064a\u0646\u0650\u06e9 \u0625\u0650\u064a\u064e\u0651\u0627\u0643\u064e \u0646\u064e\u0639\u0652\u0628\u064f\u062f\u064f \u0648\u064e\u0625\u0650\u064a\u064e\u0651\u0627\u0643\u064e \u0646\u064e\u0633\u0652\u062a\u064e\u0639\u0650\u064a\u0646\u064f \u06e9 \u0627\u0647\u0652\u062f\u0650\u0646\u064e\u0627 \u0627\u0644\u0635\u0650\u0651\u0631\u064e\u0627\u0637\u064e \u0627\u0644\u0652\u0645\u064f\u0633\u0652\u062a\u064e\u0642\u0650\u064a\u0645\u064e \u06e9 \u0635\u0650\u0631\u064e\u0627\u0637\u064e \u0627\u0644\u064e\u0651\u0630\u0650\u064a\u0646\u064e \u0623\u064e\u0646\u0652\u0639\u064e\u0645\u0652\u062a\u064e \u0639\u064e\u0644\u064e\u064a\u0652\u0647\u0650\u0645\u0652 \u063a\u064e\u064a\u0652\u0631\u0650 \u0627\u0644\u0652\u0645\u064e\u063a\u0652\u0636\u064f\u0648\u0628\u0650 \u0639\u064e\u0644\u064e\u064a\u0652\u0647\u0650\u0645\u0652 \u0648\u064e\u0644\u064e\u0627 \u0627\u0644\u0636\u064e\u0651\u0627\u0644\u0650\u0651\u064a\u0646\u064e
p60
sg46
(dp61
g20
VImran Ali Asim
p62
sg18
V984917938284866
p63
ssg18
V1059838884113499_1060536570710397
p64
sa(dp65
g42
V2016-10-09T17:12:04+0000
p66
sg44
V\u06e9 \u0628\u0650\u0633\u0652\u0645\u0650 \u0627\u0644\u0644\u064e\u0651\u0647\u0650 \u0627\u0644\u0631\u064e\u0651\u062d\u0652\u0645\u064e\u0646\u0650 \u0627\u0644\u0631\u064e\u0651\u062d\u0650\u064a\u0645\u0650 \u06e9 \u0627\u0644\u0652\u062d\u064e\u0645\u0652\u062f\u064f \u0644\u0650\u0644\u064e\u0651\u0647\u0650 \u0631\u064e\u0628\u0650\u0651 \u0627\u0644\u0652\u0639\u064e\u0627\u0644\u064e\u0645\u0650\u064a\u0646\u064e \u06e9 \u0627\u0644\u0631\u064e\u0651\u062d\u0652\u0645\u064e\u0646\u0650 \u0627\u0644\u0631\u064e\u0651\u062d\u0650\u064a\u0645\u0650 \u06e9 \u0645\u064e\u0627\u0644\u0650\u0643\u0650 \u064a\u064e\u0648\u0652\u0645\u0650 \u0627\u0644\u062f\u0650\u0651\u064a\u0646\u0650\u06e9 \u0625\u0650\u064a\u064e\u0651\u0627\u0643\u064e \u0646\u064e\u0639\u0652\u0628\u064f\u062f\u064f \u0648\u064e\u0625\u0650\u064a\u064e\u0651\u0627\u0643\u064e \u0646\u064e\u0633\u0652\u062a\u064e\u0639\u0650\u064a\u0646\u064f \u06e9 \u0627\u0647\u0652\u062f\u0650\u0646\u064e\u0627 \u0627\u0644\u0635\u0650\u0651\u0631\u064e\u0627\u0637\u064e \u0627\u0644\u0652\u0645\u064f\u0633\u0652\u062a\u064e\u0642\u0650\u064a\u0645\u064e \u06e9 \u0635\u0650\u0631\u064e\u0627\u0637\u064e \u0627\u0644\u064e\u0651\u0630\u0650\u064a\u0646\u064e \u0623\u064e\u0646\u0652\u0639\u064e\u0645\u0652\u062a\u064e \u0639\u064e\u0644\u064e\u064a\u0652\u0647\u0650\u0645\u0652 \u063a\u064e\u064a\u0652\u0631\u0650 \u0627\u0644\u0652\u0645\u064e\u063a\u0652\u0636\u064f\u0648\u0628\u0650 \u0639\u064e\u0644\u064e\u064a\u0652\u0647\u0650\u0645\u0652 \u0648\u064e\u0644\u064e\u0627 \u0627\u0644\u0636\u064e\u0651\u0627\u0644\u0650\u0651\u064a\u0646\u064e
p67
sg46
(dp68
g20
VSyed Hasan
p69
sg18
V906851309449946
p70
ssg18
V1059838884113499_1059846537446067
p71
sa(dp72
g42
V2016-10-10T20:00:15+0000
p73
sg44
V
p74
sg46
(dp75
g20
VRana Abubakar
p76
sg18
V285134345219754
p77
ssg18
V1059838884113499_1060702430693811
p78
sa(dp79
g42
V2016-10-10T15:52:08+0000
p80
sg44
VWow it's work
p81
sg46
(dp82
g20
VSaad Aftab
p83
sg18
V638605702988639
p84
ssg18
V1059838884113499_1060559987374722
p85
sa(dp86
g42
V2016-10-10T11:34:34+0000
p87
sg44
V@(612890285406557:)
p88
sg46
(dp89
g20
VGhulam Muratza Noor
p90
sg18
V1191424784248729
p91
ssg18
V1059838884113499_1060401647390556
p92
sa(dp93
g42
V2016-10-10T16:07:12+0000
p94
sg44
V@(612890285406557:)
p95
sg46
(dp96
g20
VRashad Mehmood
p97
sg18
V2158262357733214
p98
ssg18
V1059838884113499_1060567694040618
p99
sa(dp100
g42
V2016-10-09T18:32:38+0000
p101
sg44
V@(612890285403557:)
p102
sg46
(dp103
g20
VAyesha Faisal
p104
sg18
V559138524295199
p105
ssg18
V1059838884113499_1059892374108150
p106
sa(dp107
g42
V2016-10-10T18:34:47+0000
p108
sg44
V@(612890285403357:)
p109
sg46
(dp110
g20
VZeeshan Malik
p111
sg18
V362148467461622
p112
ssg18
V1059838884113499_1060646817366039
p113
sa(dp114
g42
V2016-10-10T18:32:52+0000
p115
sg44
V@(612890285403557:)
p116
sg46
(dp117
g20
VZeeshan Malik
p118
sg18
V362148467461622
p119
ssg18
V1059838884113499_1060645900699464
p120
sa(dp121
g42
V2016-10-10T11:38:41+0000
p122
sg44
V@ [612890285403557:]
p123
sg46
(dp124
g20
VMuhammad Faizan
p125
sg18
V1306558189397092
p126
ssg18
V1059838884113499_1060405870723467
p127
sa(dp128
g42
V2016-10-10T11:38:01+0000
p129
sg44
V@ [612890285403557:]
p130
sg46
(dp131
g20
VMuhammad Faizan
p132
sg18
V1306558189397092
p133
ssg18
V1059838884113499_1060405020723552
p134
sa(dp135
g42
V2016-10-10T04:34:31+0000
p136
sg44
V612890285403557
p137
sg46
(dp138
g20
VAsadUllah Asad Ullah
p139
sg18
V10207888357507027
p140
ssg18
V1059838884113499_1060201460743908
p141
sa(dp142
g42
V2016-10-10T11:33:54+0000
p143
sg44
V@
p144
sg46
(dp145
g20
VGhulam Muratza Noor
p146
sg18
V1191424784248729
p147
ssg18
V1059838884113499_1060401360723918
p148
sa(dp149
g42
V2016-10-10T12:34:14+0000
p150
sg44
V@(612890285403557:)
p151
sg46
(dp152
g20
VSadaqat Ali
p153
sg18
V1687571571559311
p154
ssg18
V1059838884113499_1060435007387220
p155
sa(dp156
g42
V2016-10-10T10:09:03+0000
p157
sg44
V61289085403557
p158
sg46
(dp159
g20
VSadaqat Ali
p160
sg18
V1687571571559311
p161
ssg18
V1059838884113499_1060358680728186
p162
sa(dp163
g42
V2016-10-10T05:49:46+0000
p164
sg44
V@(612890285403557:)
p165
sg46
(dp166
g20
VShahid Nawaz
p167
sg18
V1742190356027821
p168
ssg18
V1059838884113499_1060236867407034
p169
sa(dp170
g42
V2016-10-10T03:22:47+0000
p171
sg44
VZabardast
p172
sg46
(dp173
g20
VAhmad Subhani
p174
sg18
V1281550621876160
p175
ssg18
V1059838884113499_1060172344080153
p176
sa(dp177
g42
V2016-10-09T19:22:59+0000
p178
sg44
VDekha bhai hmmm ny kar dekhya na
p179
sg46
(dp180
g20
VMuhammad Saleem Taj
p181
sg18
V997029587110002
p182
ssg18
V1059838884113499_1059916834105704
p183
sassg42
V2016-10-09T16:58:09+0000
p184
sg16
Vphoto
p185
sg18
V297869513643777_1059838884113499
p186
s.