(dp0
Vreactions
p1
(dp2
Vpaging
p3
(dp4
Vcursors
p5
(dp6
Vafter
p7
VTVRBd01ERXlOams0TnpBNU56STJPakUwTnpVM01EY3dPREk2TWpVME1EazJNVFl4TXc9PQZDZD
p8
sVbefore
p9
VTVRBd01ERXlOams0TnpBNU56STJPakUwTnpVM01EY3dPREk2TWpVME1EazJNVFl4TXc9PQZDZD
p10
ssVnext
p11
Vhttps://graph.facebook.com/v2.6/297869513643777_1054940507936670/reactions?access_token=599965930180946%7C575aa5390a4589483de7f8cf99702788&summary=true&limit=1&after=TVRBd01ERXlOams0TnpBNU56STJPakUwTnpVM01EY3dPREk2TWpVME1EazJNVFl4TXc9PQZDZD
p12
ssVdata
p13
(lp14
(dp15
Vtype
p16
VLIKE
p17
sVid
p18
V212913639141925
p19
sVname
p20
VAlfredo Labajos
p21
sasVsummary
p22
(dp23
Vtotal_count
p24
I42
sVviewer_reaction
p25
VNONE
p26
sssg20
VIslamabad, Pakistan
p27
sVshares
p28
(dp29
Vcount
p30
I8
ssVlink
p31
Vhttps://www.facebook.com/humpakistan.info/photos/a.906799739417415.1073741845.297869513643777/1054940507936670/?type=3
p32
sVcreated_time
p33
V2016-10-03T15:15:47+0000
p34
sVmessage
p35
V#Centaurus\u000aIslamabad |Pakistan | \u000a\u2606Photo by: Aqsa Noor\u2606
p36
sg16
Vphoto
p37
sg18
V297869513643777_1054940507936670
p38
s.