(dp0
Vreactions
p1
(dp2
Vpaging
p3
(dp4
Vcursors
p5
(dp6
Vafter
p7
VTVRBd01EQXlOalUxTURFMU16ZAzVPakUwTnpjNE9UZAzBPVFU2TWpVME1EazJNVFl4TXc9PQZDZD
p8
sVbefore
p9
VTVRBd01EQXlOalUxTURFMU16ZAzVPakUwTnpjNE9UZAzBPVFU2TWpVME1EazJNVFl4TXc9PQZDZD
p10
ssVnext
p11
Vhttps://graph.facebook.com/v2.6/297869513643777_1078333992263988/reactions?access_token=599965930180946%7C575aa5390a4589483de7f8cf99702788&limit=1&after=TVRBd01EQXlOalUxTURFMU16ZAzVPakUwTnpjNE9UZAzBPVFU2TWpVME1EazJNVFl4TXc9PQZDZD
p12
ssVdata
p13
(lp14
(dp15
Vtype
p16
VLIKE
p17
sVid
p18
V1041424402622717
p19
sVname
p20
VKhatir Mustafa
p21
sassg20
VSwat Valley, Pakistan
p22
sVcomments
p23
(dp24
g3
(dp25
g5
(dp26
g7
VMQZDZD
p27
sg9
VMQZDZD
p28
sssg13
(lp29
(dp30
Vcreated_time
p31
V2016-10-31T07:02:55+0000
p32
sVmessage
p33
VMuskaan Dulara,Huma Irfan chalo chalen
p34
sVfrom
p35
(dp36
g20
VPrincess Pari
p37
sg18
V918932898238463
p38
ssg18
V1078333992263988_1078375428926511
p39
sassVlink
p40
Vhttps://www.facebook.com/humpakistan.info/photos/a.940776269353095.1073741850.297869513643777/1078333992263988/?type=3
p41
sg31
V2016-10-31T06:02:31+0000
p42
sg33
VBeauty of #Kalam Covered with snow\u000aSwat Valley | KPK | Pakistan |
p43
sg16
Vphoto
p44
sg18
V297869513643777_1078333992263988
p45
s.