(dp0
Vreactions
p1
(dp2
Vpaging
p3
(dp4
Vcursors
p5
(dp6
Vafter
p7
VTVRBd01ERXhNVE0zTlRjMk56VXpPakUwTnpjNE9UVTROVGM2TWpVME1EazJNVFl4TXc9PQZDZD
p8
sVbefore
p9
VTVRBd01ERXhNVE0zTlRjMk56VXpPakUwTnpjNE9UVTROVGM2TWpVME1EazJNVFl4TXc9PQZDZD
p10
ssVnext
p11
Vhttps://graph.facebook.com/v2.6/297869513643777_1074893559274698/reactions?access_token=599965930180946%7C575aa5390a4589483de7f8cf99702788&limit=1&after=TVRBd01ERXhNVE0zTlRjMk56VXpPakUwTnpjNE9UVTROVGM2TWpVME1EazJNVFl4TXc9PQZDZD
p12
ssVdata
p13
(lp14
(dp15
Vtype
p16
VLIKE
p17
sVid
p18
V312721359109114
p19
sVname
p20
VRafi Ullah
p21
sassg20
VIslamabad, Pakistan
p22
sVshares
p23
(dp24
Vcount
p25
I20
ssVlink
p26
Vhttps://www.facebook.com/humpakistan.info/photos/a.906799739417415.1073741845.297869513643777/1074893559274698/?type=3
p27
sVcomments
p28
(dp29
g3
(dp30
g5
(dp31
g7
VMQZDZD
p32
sg9
VMgZDZD
p33
sssg13
(lp34
(dp35
Vcreated_time
p36
V2016-10-27T09:59:33+0000
p37
sVmessage
p38
Vvery nice view,  what a beutiful sight. i like it.
p39
sVfrom
p40
(dp41
g20
VNisar Fateh
p42
sg18
V10207370175472636
p43
ssg18
V1074893559274698_1074949125935808
p44
sa(dp45
g36
V2016-10-27T09:58:44+0000
p46
sg38
Vvery nice view.  like it. what a beautiful sight.
p47
sg40
(dp48
g20
VNisar Fateh
p49
sg18
V10207370175472636
p50
ssg18
V1074893559274698_1074947602602627
p51
sassg36
V2016-10-27T08:04:41+0000
p52
sg38
V#Islamabad , Pakistan
p53
sg16
Vphoto
p54
sg18
V297869513643777_1074893559274698
p55
s.