(dp0
Vreactions
p1
(dp2
Vpaging
p3
(dp4
Vcursors
p5
(dp6
Vafter
p7
VTVRBd01EQXlOelUwTXpFM09EWTRPakUwTnpjeE5UVTRNRFk2TWpVME1EazJNVFl4TXc9PQZDZD
p8
sVbefore
p9
VTVRBd01EQXlOelUwTXpFM09EWTRPakUwTnpjeE5UVTRNRFk2TWpVME1EazJNVFl4TXc9PQZDZD
p10
ssVnext
p11
Vhttps://graph.facebook.com/v2.6/297869513643777_1067609556669765/reactions?access_token=599965930180946%7C575aa5390a4589483de7f8cf99702788&limit=1&after=TVRBd01EQXlOelUwTXpFM09EWTRPakUwTnpjeE5UVTRNRFk2TWpVME1EazJNVFl4TXc9PQZDZD
p12
ssVdata
p13
(lp14
(dp15
Vtype
p16
VLIKE
p17
sVid
p18
V901381136630355
p19
sVname
p20
VMalik Bilal
p21
sassg20
VAbbottabad
p22
sVshares
p23
(dp24
Vcount
p25
I5
ssVlink
p26
Vhttps://www.facebook.com/humpakistan.info/photos/a.1030741880356533.1073741890.297869513643777/1067609556669765/?type=3
p27
sVcreated_time
p28
V2016-10-18T18:39:27+0000
p29
sVmessage
p30
V#Thandiyani\u000aAbbottabad | Pakistan |
p31
sg16
Vphoto
p32
sg18
V297869513643777_1067609556669765
p33
s.