(dp0
Vreactions
p1
(dp2
Vpaging
p3
(dp4
Vcursors
p5
(dp6
Vafter
p7
VTVRBd01ERXpNemszTkRrM01EWXpPakUwTnpZANU5USXdPVGs2TWpVME1EazJNVFl4TXc9PQZDZD
p8
sVbefore
p9
VTVRBd01ERXpNemszTkRrM01EWXpPakUwTnpZANU5USXdPVGs2TWpVME1EazJNVFl4TXc9PQZDZD
p10
ssVnext
p11
Vhttps://graph.facebook.com/v2.6/297869513643777_1064939810270073/reactions?access_token=599965930180946%7C575aa5390a4589483de7f8cf99702788&limit=1&after=TVRBd01ERXpNemszTkRrM01EWXpPakUwTnpZANU5USXdPVGs2TWpVME1EazJNVFl4TXc9PQZDZD
p12
ssVdata
p13
(lp14
(dp15
Vtype
p16
VLIKE
p17
sVid
p18
V181824942274088
p19
sVname
p20
VZafar Kalar Zafar Kalar
p21
sassVlink
p22
Vhttps://www.facebook.com/humpakistan.info/videos/1064939810270073/
p23
sVcreated_time
p24
V2016-10-15T17:02:30+0000
p25
sVmessage
p26
V\u06af\u0644\u06af\u062a\u000a\u0686\u0627\u0626\u06cc\u0646\u06c1 \u06a9\u0627 18 \u06af\u0627\u0691\u06cc\u0648\u06ba \u067e\u0631 \u0645\u0634\u062a\u0645\u0644 \u067e\u0627\u06a9 \u0686\u06cc\u0646 \u0641\u0631\u06cc\u0646\u0688 \u0634\u067e \u06a9\u0627\u0631 \u0631\u06cc\u0644\u06cc \u062e\u0646\u062c\u0631\u0627\u0628 \u0679\u0627\u067e \u06a9\u06d2 \u0631\u0627\u0633\u062a\u06d2 \u06af\u0644\u06af\u062a \u0628\u0644\u062a\u0633\u062a\u0627\u0646 \u067e\u06c1\u0646\u0686 \u06af\u0626\u06cc\u06d4\u0627\u0639\u0644\u06cc \u0633\u06cc\u0627\u0633\u06cc \u0633\u0648\u0644 \u0627\u0648\u0631 \u0641\u0648\u062c\u06cc \u0642\u06cc\u0627\u062f\u062a \u0646\u06d2 \u0627\u0633\u062a\u0642\u0628\u0627\u0644 \u06a9\u06cc\u0627\u06d4
p27
sg16
Vvideo
p28
sg18
V297869513643777_1064939810270073
p29
s.