(dp0
Vreactions
p1
(dp2
Vpaging
p3
(dp4
Vcursors
p5
(dp6
Vafter
p7
VTVRBd01EQTFNVGN5TnpZAeU5EZA3dPakUwTnpVME5qYzFOVE02TWpVME1EazJNVFl4TXc9PQZDZD
p8
sVbefore
p9
VTVRBd01EQTFNVGN5TnpZAeU5EZA3dPakUwTnpVME5qYzFOVE02TWpVME1EazJNVFl4TXc9PQZDZD
p10
ssVnext
p11
Vhttps://graph.facebook.com/v2.6/297869513643777_1053616864735701/reactions?access_token=599965930180946%7C575aa5390a4589483de7f8cf99702788&summary=true&limit=1&after=TVRBd01EQTFNVGN5TnpZAeU5EZA3dPakUwTnpVME5qYzFOVE02TWpVME1EazJNVFl4TXc9PQZDZD
p12
ssVdata
p13
(lp14
(dp15
Vtype
p16
VLIKE
p17
sVid
p18
V617862878396132
p19
sVname
p20
VJamshid Parwana
p21
sasVsummary
p22
(dp23
Vtotal_count
p24
I19
sVviewer_reaction
p25
VNONE
p26
sssg20
VBrids, Flowers & Butterflies
p27
sVshares
p28
(dp29
Vcount
p30
I3
ssVlink
p31
Vhttps://www.facebook.com/humpakistan.info/photos/a.946430838787638.1073741853.297869513643777/1053616864735701/?type=3
p32
sVcreated_time
p33
V2016-10-02T00:49:40+0000
p34
sg16
Vphoto
p35
sg18
V297869513643777_1053616864735701
p36
s.