(dp0
Vreactions
p1
(dp2
Vpaging
p3
(dp4
Vcursors
p5
(dp6
Vafter
p7
VTVRBd01EQTVPVEV5TVRBMk9EQTFPakUwTnpjeE5ESXdORFE2TWpVME1EazJNVFl4TXc9PQZDZD
p8
sVbefore
p9
VTVRBd01EQTVPVEV5TVRBMk9EQTFPakUwTnpjeE5ESXdORFE2TWpVME1EazJNVFl4TXc9PQZDZD
p10
ssVnext
p11
Vhttps://graph.facebook.com/v2.6/297869513643777_1069453946485326/reactions?access_token=599965930180946%7C575aa5390a4589483de7f8cf99702788&limit=1&after=TVRBd01EQTVPVEV5TVRBMk9EQTFPakUwTnpjeE5ESXdORFE2TWpVME1EazJNVFl4TXc9PQZDZD
p12
ssVdata
p13
(lp14
(dp15
Vtype
p16
VLIKE
p17
sVid
p18
V369270083413392
p19
sVname
p20
VAwais Ijaz
p21
sassg20
VChitral Valley
p22
sVshares
p23
(dp24
Vcount
p25
I21
ssVlink
p26
Vhttps://www.facebook.com/humpakistan.info/photos/a.995259260571462.1073741879.297869513643777/1069453946485326/?type=3
p27
sVcomments
p28
(dp29
g3
(dp30
g5
(dp31
g7
VMQZDZD
p32
sg9
VMwZDZD
p33
sssg13
(lp34
(dp35
Vcreated_time
p36
V2016-10-21T02:16:12+0000
p37
sVmessage
p38
VDekhi hwe
p39
sVfrom
p40
(dp41
g20
VNoor Ul Sehar
p42
sg18
V704149319738741
p43
ssg18
V1069453946485326_1069528869811167
p44
sa(dp45
g36
V2016-10-21T09:22:56+0000
p46
sg38
VSuperb
p47
sg40
(dp48
g20
VFazal Tahir
p49
sg18
V1724794741177396
p50
ssg18
V1069453946485326_1069750609788993
p51
sa(dp52
g36
V2016-10-21T01:06:13+0000
p53
sg38
VNoor Ul Sehar watch
p54
sg40
(dp55
g20
VHamza Malik
p56
sg18
V1777242295857881
p57
ssg18
V1069453946485326_1069489476481773
p58
sassg36
V2016-10-20T23:48:02+0000
p59
sg38
V#Laspur #Valley \u000aChitral | KPK | Pakistan |
p60
sg16
Vphoto
p61
sg18
V297869513643777_1069453946485326
p62
s.