(dp0
Vreactions
p1
(dp2
Vpaging
p3
(dp4
Vcursors
p5
(dp6
Vafter
p7
VTVRBd01ERXhOelV5T1RBeU56ZAzRPakUwTnpVMk5EazFNVEk2TWpVME1EazJNVFl4TXc9PQZDZD
p8
sVbefore
p9
VTVRBd01ERXhOelV5T1RBeU56ZAzRPakUwTnpVMk5EazFNVEk2TWpVME1EazJNVFl4TXc9PQZDZD
p10
ssVnext
p11
Vhttps://graph.facebook.com/v2.6/297869513643777_1054962111267843/reactions?access_token=599965930180946%7C575aa5390a4589483de7f8cf99702788&summary=true&limit=1&after=TVRBd01ERXhOelV5T1RBeU56ZAzRPakUwTnpVMk5EazFNVEk2TWpVME1EazJNVFl4TXc9PQZDZD
p12
ssVdata
p13
(lp14
(dp15
Vtype
p16
VLIKE
p17
sVid
p18
V265076587227436
p19
sVname
p20
VMuhammad Anis
p21
sasVsummary
p22
(dp23
Vtotal_count
p24
I38
sVviewer_reaction
p25
VNONE
p26
sssg20
VTimeline Photos
p27
sVshares
p28
(dp29
Vcount
p30
I20
ssVlink
p31
Vhttps://www.facebook.com/humpakistan.info/photos/a.692310727532985.1073741829.297869513643777/1054962111267843/?type=3
p32
sVcomments
p33
(dp34
g3
(dp35
g5
(dp36
g7
VMQZDZD
p37
sg9
VMgZDZD
p38
sssg13
(lp39
(dp40
Vcreated_time
p41
V2016-10-03T21:28:24+0000
p42
sVmessage
p43
VYani pakistani carancy khtm hone wale hy? ????
p44
sVfrom
p45
(dp46
g20
VFawad Saeed Swati
p47
sg18
V1231492783590012
p48
ssg18
V1054962111267843_1055181384579249
p49
sa(dp50
g41
V2016-10-03T17:41:49+0000
p51
sg43
Vinna lillah e waa inna illehi rajion n gov pe fatiha. ....
p52
sg45
(dp53
g20
VNaseem Sara
p54
sg18
V2136093263282945
p55
ssg18
V1054962111267843_1055026414594746
p56
sassg41
V2016-10-03T15:50:28+0000
p57
sg16
Vphoto
p58
sg18
V297869513643777_1054962111267843
p59
s.