(dp0
Vreactions
p1
(dp2
Vpaging
p3
(dp4
Vcursors
p5
(dp6
Vafter
p7
VTVRBd01ERXpOVFkzT1RJME9EWXlPakUwTnpZAd01qZAzBPVEU2TWpVME1EazJNVFl4TXc9PQZDZD
p8
sVbefore
p9
VTVRBd01ERXpOVFkzT1RJME9EWXlPakUwTnpZAd01qZAzBPVEU2TWpVME1EazJNVFl4TXc9PQZDZD
p10
ssVnext
p11
Vhttps://graph.facebook.com/v2.6/297869513643777_1055663324531055/reactions?access_token=599965930180946%7C575aa5390a4589483de7f8cf99702788&summary=true&limit=1&after=TVRBd01ERXpOVFkzT1RJME9EWXlPakUwTnpZAd01qZAzBPVEU2TWpVME1EazJNVFl4TXc9PQZDZD
p12
ssVdata
p13
(lp14
(dp15
Vtype
p16
VLIKE
p17
sVid
p18
V163083534153910
p19
sVname
p20
VSher Muhamad
p21
sasVsummary
p22
(dp23
Vtotal_count
p24
I104
sVviewer_reaction
p25
VNONE
p26
sssg20
VKarakoram Highway, Gilgit-Baltistan, Pakistan
p27
sVshares
p28
(dp29
Vcount
p30
I24
ssVlink
p31
Vhttps://www.facebook.com/humpakistan.info/photos/a.969023036528418.1073741866.297869513643777/1055663324531055/?type=3
p32
sVcomments
p33
(dp34
g3
(dp35
g5
(dp36
g7
VMQZDZD
p37
sg9
VMQZDZD
p38
sssg13
(lp39
(dp40
Vcreated_time
p41
V2016-10-04T13:01:01+0000
p42
sVmessage
p43
V\u2764 ADD CLOSE || HUM PAKISTAN \u2764\u000a\u000a\u2764 BOT USED BY ||  Rana Daniyal \u2764\u000a\u000a\u2764 MUJAHID KHAN\u2122 || SITE : MUJJU .ML \u2764
p44
sVfrom
p45
(dp46
g20
VRana Daniyal
p47
sg18
V1835033970072108
p48
ssg18
V1055663324531055_1055667397863981
p49
sassg41
V2016-10-04T12:53:56+0000
p50
sg43
V#KKH \u000a&\u000a#PASU_CONES\u000aGilgit-Baltistan | Pakistan |
p51
sg16
Vphoto
p52
sg18
V297869513643777_1055663324531055
p53
s.