(dp0
Vreactions
p1
(dp2
Vpaging
p3
(dp4
Vcursors
p5
(dp6
Vafter
p7
VTVRBd01ERXpNemszTkRrM01EWXpPakUwTnpZANU5USXhNRGM2TWpVME1EazJNVFl4TXc9PQZDZD
p8
sVbefore
p9
VTVRBd01ERXpNemszTkRrM01EWXpPakUwTnpZANU5USXhNRGM2TWpVME1EazJNVFl4TXc9PQZDZD
p10
ssVnext
p11
Vhttps://graph.facebook.com/v2.6/297869513643777_1064108503686537/reactions?access_token=599965930180946%7C575aa5390a4589483de7f8cf99702788&limit=1&after=TVRBd01ERXpNemszTkRrM01EWXpPakUwTnpZANU5USXhNRGM2TWpVME1EazJNVFl4TXc9PQZDZD
p12
ssVdata
p13
(lp14
(dp15
Vtype
p16
VLIKE
p17
sVid
p18
V181824942274088
p19
sVname
p20
VZafar Kalar Zafar Kalar
p21
sassg20
VTimeline Photos
p22
sVshares
p23
(dp24
Vcount
p25
I4
ssVlink
p26
Vhttps://www.facebook.com/humpakistan.info/photos/a.692310727532985.1073741829.297869513643777/1064108503686537/?type=3
p27
sVcreated_time
p28
V2016-10-14T17:56:47+0000
p29
sVmessage
p30
V300 up for #Azhar #Ali . Azhar has become 4th Pakistan batsman to score a Test triple century. With this inning, Azhar Ali has the highest ever individual score of 302* in day-night Test cricket. He is also the first to score a century, double century and triple century in a day-night Test match #PAKvWI
p31
sg16
Vphoto
p32
sg18
V297869513643777_1064108503686537
p33
s.