(dp0
Vreactions
p1
(dp2
Vpaging
p3
(dp4
Vcursors
p5
(dp6
Vafter
p7
VTVRBd01ERXlORFE0TlRrNE1EazFPakUwTnpjMU56UXlNRFU2TWpVME1EazJNVFl4TXc9PQZDZD
p8
sVbefore
p9
VTVRBd01ERXlORFE0TlRrNE1EazFPakUwTnpjMU56UXlNRFU2TWpVME1EazJNVFl4TXc9PQZDZD
p10
ssVnext
p11
Vhttps://graph.facebook.com/v2.6/297869513643777_1069731453124242/reactions?access_token=599965930180946%7C575aa5390a4589483de7f8cf99702788&limit=1&after=TVRBd01ERXlORFE0TlRrNE1EazFPakUwTnpjMU56UXlNRFU2TWpVME1EazJNVFl4TXc9PQZDZD
p12
ssVdata
p13
(lp14
(dp15
Vtype
p16
VLIKE
p17
sVid
p18
V208089682949317
p19
sVname
p20
VMuhammad Abdullah
p21
sassg20
VSkardu, Gilgit-Baltistan, Pakistan
p22
sVshares
p23
(dp24
Vcount
p25
I30
ssVlink
p26
Vhttps://www.facebook.com/humpakistan.info/photos/a.970586629705392.1073741868.297869513643777/1069731453124242/?type=3
p27
sVcreated_time
p28
V2016-10-21T08:35:31+0000
p29
sVmessage
p30
VFrozen Shangrila Resorts, Skardu <3\u000aGilgit-Baltistan | Pakistan |
p31
sg16
Vphoto
p32
sg18
V297869513643777_1069731453124242
p33
s.