(dp0
Vreactions
p1
(dp2
Vpaging
p3
(dp4
Vcursors
p5
(dp6
Vafter
p7
VTVRBd01ERXpNemszTkRrM01EWXpPakUwTnpZANU5USXdPVFk2TWpVME1EazJNVFl4TXc9PQZDZD
p8
sVbefore
p9
VTVRBd01ERXpNemszTkRrM01EWXpPakUwTnpZANU5USXdPVFk2TWpVME1EazJNVFl4TXc9PQZDZD
p10
ssVnext
p11
Vhttps://graph.facebook.com/v2.6/297869513643777_1064955260268528/reactions?access_token=599965930180946%7C575aa5390a4589483de7f8cf99702788&limit=1&after=TVRBd01ERXpNemszTkRrM01EWXpPakUwTnpZANU5USXdPVFk2TWpVME1EazJNVFl4TXc9PQZDZD
p12
ssVdata
p13
(lp14
(dp15
Vtype
p16
VLIKE
p17
sVid
p18
V181824942274088
p19
sVname
p20
VZafar Kalar Zafar Kalar
p21
sassg20
VKarakoram Highway, Gilgit-Baltistan, Pakistan
p22
sVshares
p23
(dp24
Vcount
p25
I28
ssVlink
p26
Vhttps://www.facebook.com/humpakistan.info/photos/a.969023036528418.1073741866.297869513643777/1064955260268528/?type=3
p27
sVcreated_time
p28
V2016-10-15T17:24:06+0000
p29
sVmessage
p30
VKarakoram Highway <3\u000aGilgit-Baltistan | Pakistan |
p31
sg16
Vphoto
p32
sg18
V297869513643777_1064955260268528
p33
s.