(dp0
Vreactions
p1
(dp2
Vpaging
p3
(dp4
Vcursors
p5
(dp6
Vafter
p7
VTVRBd01EQTBNelV6TURjMk5qTTBPakUwTnpZAM09EZAzBPVGM2TnpnNE5qUTRNRE0zT1RFek16RXkZD
p8
sVbefore
p9
VTVRBd01EQTBNelV6TURjMk5qTTBPakUwTnpZAM09EZAzBPVGM2TnpnNE5qUTRNRE0zT1RFek16RXkZD
p10
ssVnext
p11
Vhttps://graph.facebook.com/v2.6/297869513643777_1063802727050448/reactions?access_token=599965930180946%7C575aa5390a4589483de7f8cf99702788&summary=true&limit=1&after=TVRBd01EQTBNelV6TURjMk5qTTBPakUwTnpZAM09EZAzBPVGM2TnpnNE5qUTRNRE0zT1RFek16RXkZD
p12
ssVdata
p13
(lp14
(dp15
Vtype
p16
VWOW
p17
sVid
p18
V658265547661875
p19
sVname
p20
VAsif Abbas
p21
sasVsummary
p22
(dp23
Vtotal_count
p24
I62
sVviewer_reaction
p25
VNONE
p26
sssg20
VPhotos from HUM PAKISTAN's post
p27
sVshares
p28
(dp29
Vcount
p30
I8
ssVlink
p31
Vhttps://www.facebook.com/humpakistan.info/photos/a.691819494248775.1073741826.297869513643777/1063802190383835/?type=3
p32
sVcreated_time
p33
V2016-10-14T10:51:03+0000
p34
sVmessage
p35
VMaking of #Pink #Balls in \u000a#Sialkot #Pakistan
p36
sg16
Vphoto
p37
sg18
V297869513643777_1063802727050448
p38
s.