(dp0
Vreactions
p1
(dp2
Vpaging
p3
(dp4
Vcursors
p5
(dp6
Vafter
p7
VTVRBd01EQTNNelkyTlRZAeU9EZAzFPakUwTnpVNU5ETXdOekE2TWpVME1EazJNVFl4TXc9PQZDZD
p8
sVbefore
p9
VTVRBd01EQTNNelkyTlRZAeU9EZAzFPakUwTnpVNU5ETXdOekE2TWpVME1EazJNVFl4TXc9PQZDZD
p10
ssVnext
p11
Vhttps://graph.facebook.com/v2.6/297869513643777_1055572011206853/reactions?access_token=599965930180946%7C575aa5390a4589483de7f8cf99702788&summary=true&limit=1&after=TVRBd01EQTNNelkyTlRZAeU9EZAzFPakUwTnpVNU5ETXdOekE2TWpVME1EazJNVFl4TXc9PQZDZD
p12
ssVdata
p13
(lp14
(dp15
Vtype
p16
VLIKE
p17
sVid
p18
V1792716310983904
p19
sVname
p20
VHaji Ishaq Khaplu
p21
sasVsummary
p22
(dp23
Vtotal_count
p24
I108
sVviewer_reaction
p25
VNONE
p26
sssg20
VSkardu, Gilgit-Baltistan, Pakistan
p27
sVshares
p28
(dp29
Vcount
p30
I35
ssVlink
p31
Vhttps://www.facebook.com/humpakistan.info/photos/a.970586629705392.1073741868.297869513643777/1055572011206853/?type=3
p32
sVcomments
p33
(dp34
g3
(dp35
g5
(dp36
g7
VMQZDZD
p37
sg9
VNgZDZD
p38
sssg13
(lp39
(dp40
Vcreated_time
p41
V2016-10-04T17:32:26+0000
p42
sVmessage
p43
VWow beautiful
p44
sVfrom
p45
(dp46
g20
VSamiya Rizvi
p47
sg18
V332330667123283
p48
ssg18
V1055572011206853_1055860104511377
p49
sa(dp50
g41
V2016-10-04T12:48:02+0000
p51
sg43
VMashaallah kithanie hassen jaga hai
p52
sg45
(dp53
g20
VShabana Shahnawaz
p54
sg18
V586232011566121
p55
ssg18
V1055572011206853_1055660831197971
p56
sa(dp57
g41
V2016-10-04T16:33:07+0000
p58
sg43
VHum sub jahay gay inshallah
p59
sg45
(dp60
g20
VArshad Chini
p61
sg18
V1009096309219057
p62
ssg18
V1055572011206853_1055814874515900
p63
sa(dp64
g41
V2016-10-04T17:31:38+0000
p65
sg43
VSamiya Rizvi check
p66
sg45
(dp67
g20
VHamza Malik
p68
sg18
V1777242295857881
p69
ssg18
V1055572011206853_1055859697844751
p70
sa(dp71
g41
V2016-10-04T16:15:56+0000
p72
sg43
VArshad Chini  chacho mujhe yaha jana tha\U0001f622
p73
sg45
(dp74
g20
VPrincess Pari
p75
sg18
V918932898238463
p76
ssg18
V1055572011206853_1055797284517659
p77
sassg41
V2016-10-04T09:57:45+0000
p78
sg43
V#ShangrillaResorts\u000aSkardu |Gilgit-Baltistan| Pakistan | \u000a\u2606Photo by: Munib Sheikh\u2606
p79
sg16
Vphoto
p80
sg18
V297869513643777_1055572011206853
p81
s.