(dp0
Vreactions
p1
(dp2
Vpaging
p3
(dp4
Vcursors
p5
(dp6
Vafter
p7
VTlRBek1UZAzNNakkzT2pFME56Y3dPRGs1T0RBNk1qVTBNRGsyTVRZAeE13PT0ZD
p8
sVbefore
p9
VTlRBek1UZAzNNakkzT2pFME56Y3dPRGs1T0RBNk1qVTBNRGsyTVRZAeE13PT0ZD
p10
ssVnext
p11
Vhttps://graph.facebook.com/v2.6/297869513643777_1069433043154083/reactions?access_token=599965930180946%7C575aa5390a4589483de7f8cf99702788&limit=1&after=TlRBek1UZAzNNakkzT2pFME56Y3dPRGs1T0RBNk1qVTBNRGsyTVRZAeE13PT0ZD
p12
ssVdata
p13
(lp14
(dp15
Vtype
p16
VLIKE
p17
sVid
p18
V10156198263627228
p19
sVname
p20
VFaheem Khan
p21
sassg20
VTimeline Photos
p22
sVshares
p23
(dp24
Vcount
p25
I8
ssVlink
p26
Vhttps://www.facebook.com/humpakistan.info/photos/a.692310727532985.1073741829.297869513643777/1069433043154083/?type=3
p27
sVcreated_time
p28
V2016-10-20T23:04:36+0000
p29
sg16
Vphoto
p30
sg18
V297869513643777_1069433043154083
p31
s.