(dp0
Vreactions
p1
(dp2
Vpaging
p3
(dp4
Vcursors
p5
(dp6
Vafter
p7
VTVRBd01ERXpORGs0TWpNek1EY3dPakUwTnpjeE5UWXlPRFE2TWpVME1EazJNVFl4TXc9PQZDZD
p8
sVbefore
p9
VTVRBd01ERXpORGs0TWpNek1EY3dPakUwTnpjeE5UWXlPRFE2TWpVME1EazJNVFl4TXc9PQZDZD
p10
ssVnext
p11
Vhttps://graph.facebook.com/v2.6/297869513643777_1066428220121232/reactions?access_token=599965930180946%7C575aa5390a4589483de7f8cf99702788&limit=1&after=TVRBd01ERXpORGs0TWpNek1EY3dPakUwTnpjeE5UWXlPRFE2TWpVME1EazJNVFl4TXc9PQZDZD
p12
ssVdata
p13
(lp14
(dp15
Vtype
p16
VLIKE
p17
sVid
p18
V173880983071842
p19
sVname
p20
VArifa Sohail
p21
sassg20
VHUNZA VALLEY
p22
sVshares
p23
(dp24
Vcount
p25
I9
ssVlink
p26
Vhttps://www.facebook.com/humpakistan.info/photos/a.961669193930469.1073741858.297869513643777/1066428220121232/?type=3
p27
sVcreated_time
p28
V2016-10-17T14:05:24+0000
p29
sVmessage
p30
V#Khunjarab #pass
p31
sg16
Vphoto
p32
sg18
V297869513643777_1066428220121232
p33
s.