(dp0
Vreactions
p1
(dp2
Vpaging
p3
(dp4
Vcursors
p5
(dp6
Vafter
p7
VTVRBd01EQTJORGN3T0RBMU5qVTNPakUwTnpjeE5qRXpORGM2TWpVME1EazJNVFl4TXc9PQZDZD
p8
sVbefore
p9
VTVRBd01EQTJORGN3T0RBMU5qVTNPakUwTnpjeE5qRXpORGM2TWpVME1EazJNVFl4TXc9PQZDZD
p10
ssVnext
p11
Vhttps://graph.facebook.com/v2.6/297869513643777_1067126010051453/reactions?access_token=599965930180946%7C575aa5390a4589483de7f8cf99702788&limit=1&after=TVRBd01EQTJORGN3T0RBMU5qVTNPakUwTnpjeE5qRXpORGM2TWpVME1EazJNVFl4TXc9PQZDZD
p12
ssVdata
p13
(lp14
(dp15
Vtype
p16
VLIKE
p17
sVid
p18
V2128179864074353
p19
sVname
p20
VNoor Muhammad
p21
sassVshares
p22
(dp23
Vcount
p24
I12
ssVlink
p25
Vhttps://www.facebook.com/humpakistan.info/videos/1067126010051453/
p26
sVcreated_time
p27
V2016-10-18T05:00:24+0000
p28
sVmessage
p29
VA silent Message For Media..
p30
sg16
Vvideo
p31
sg18
V297869513643777_1067126010051453
p32
s.