(dp0
Vreactions
p1
(dp2
Vpaging
p3
(dp4
Vcursors
p5
(dp6
Vafter
p7
VTVRBd01EQTNPVEV6TlRNd016azBPakUwTnpjek16STNPVEU2TWpVME1EazJNVFl4TXc9PQZDZD
p8
sVbefore
p9
VTVRBd01EQTNPVEV6TlRNd016azBPakUwTnpjek16STNPVEU2TWpVME1EazJNVFl4TXc9PQZDZD
p10
ssVnext
p11
Vhttps://graph.facebook.com/v2.6/297869513643777_1071879286242792/reactions?access_token=599965930180946%7C575aa5390a4589483de7f8cf99702788&limit=1&after=TVRBd01EQTNPVEV6TlRNd016azBPakUwTnpjek16STNPVEU2TWpVME1EazJNVFl4TXc9PQZDZD
p12
ssVdata
p13
(lp14
(dp15
Vtype
p16
VLIKE
p17
sVid
p18
V1778094619130972
p19
sVname
p20
VKhuram Shahzad
p21
sassg20
VTimeline Photos
p22
sVlink
p23
Vhttps://www.facebook.com/humpakistan.info/photos/a.692310727532985.1073741829.297869513643777/1071879286242792/?type=3
p24
sVcreated_time
p25
V2016-10-23T16:28:31+0000
p26
sVmessage
p27
V#Thar #Desert
p28
sg16
Vphoto
p29
sg18
V297869513643777_1071879286242792
p30
s.