(dp0
Vreactions
p1
(dp2
Vpaging
p3
(dp4
Vcursors
p5
(dp6
Vafter
p7
VTVRBd01EQXlOelUwTXpFM09EWTRPakUwTnpjeE5UVTNPRGs2TWpVME1EazJNVFl4TXc9PQZDZD
p8
sVbefore
p9
VTVRBd01EQXlOelUwTXpFM09EWTRPakUwTnpjeE5UVTNPRGs2TWpVME1EazJNVFl4TXc9PQZDZD
p10
ssVnext
p11
Vhttps://graph.facebook.com/v2.6/297869513643777_1068891046541616/reactions?access_token=599965930180946%7C575aa5390a4589483de7f8cf99702788&limit=1&after=TVRBd01EQXlOelUwTXpFM09EWTRPakUwTnpjeE5UVTNPRGs2TWpVME1EazJNVFl4TXc9PQZDZD
p12
ssVdata
p13
(lp14
(dp15
Vtype
p16
VLIKE
p17
sVid
p18
V901381136630355
p19
sVname
p20
VMalik Bilal
p21
sassVshares
p22
(dp23
Vcount
p24
I7
ssVlink
p25
Vhttps://www.facebook.com/humpakistan.info/videos/1068891046541616/
p26
sVcomments
p27
(dp28
g3
(dp29
g5
(dp30
g7
VMQZDZD
p31
sg9
VMQZDZD
p32
sssg13
(lp33
(dp34
Vcreated_time
p35
V2016-10-20T09:55:53+0000
p36
sVmessage
p37
VMasha ALLAH
p38
sVfrom
p39
(dp40
g20
VBilal Iqbal
p41
sg18
V1305848119467875
p42
ssg18
V1068891046541616_1068974993199888
p43
sassg35
V2016-10-20T06:44:56+0000
p44
sg37
V\u0645\u0627\u0634\u0627\u0621\u0627\u0644\u0644\u06c1 \u06d4\u06d4\u06d4 \u0636\u0631\u0648\u0631 \u0633\u0646\u0626\u06cc\u06d2\u06d4\u06d4\u06d4
p45
sg16
Vvideo
p46
sg18
V297869513643777_1068891046541616
p47
s.