(dp0
Vreactions
p1
(dp2
Vpaging
p3
(dp4
Vcursors
p5
(dp6
Vafter
p7
VTVRBd01EQTNOelF3TVRreE56WTNPakUwTnpjME5qRTRNVEU2TWpVME1EazJNVFl4TXc9PQZDZD
p8
sVbefore
p9
VTVRBd01EQTNOelF3TVRreE56WTNPakUwTnpjME5qRTRNVEU2TWpVME1EazJNVFl4TXc9PQZDZD
p10
ssVnext
p11
Vhttps://graph.facebook.com/v2.6/297869513643777_1067044010059653/reactions?access_token=599965930180946%7C575aa5390a4589483de7f8cf99702788&limit=1&after=TVRBd01EQTNOelF3TVRreE56WTNPakUwTnpjME5qRTRNVEU2TWpVME1EazJNVFl4TXc9PQZDZD
p12
ssVdata
p13
(lp14
(dp15
Vtype
p16
VLIKE
p17
sVid
p18
V1836769436591045
p19
sVname
p20
VAnwar Ali
p21
sassg20
VTimeline Photos
p22
sVshares
p23
(dp24
Vcount
p25
I58
ssVlink
p26
Vhttps://www.facebook.com/humpakistan.info/photos/a.692310727532985.1073741829.297869513643777/1067044010059653/?type=3
p27
sVcomments
p28
(dp29
g3
(dp30
g5
(dp31
g7
VMQZDZD
p32
sg9
VNAZDZD
p33
sssg13
(lp34
(dp35
Vcreated_time
p36
V2016-10-18T07:01:21+0000
p37
sVmessage
p38
VRight...
p39
sVfrom
p40
(dp41
g20
VMahmood Ch
p42
sg18
V568107320049882
p43
ssg18
V1067044010059653_1067183276712393
p44
sa(dp45
g36
V2016-10-19T04:51:54+0000
p46
sg38
VKoi nikaal leta he jb bhe lagwaya he
p47
sg40
(dp48
g20
VKamran Ali
p49
sg18
V1232503296820851
p50
ssg18
V1067044010059653_1067978689966185
p51
sa(dp52
g36
V2016-10-18T04:51:01+0000
p53
sg38
VMuhammad Naeem Wali, Syed Haseeb, Ubaid Mahya, Ashar Siddiqui, Raja Zartab Ahmed Khan, Mutahhar Zafar
p54
sg40
(dp55
g20
VSyed Shahid Ali
p56
sg18
V10155427549575031
p57
ssg18
V1067044010059653_1067122230051831
p58
sa(dp59
g36
V2016-10-18T09:53:17+0000
p60
sg38
VShani Malik
p61
sg40
(dp62
g20
VAkbar Khan
p63
sg18
V1083107345140787
p64
ssg18
V1067044010059653_1067261333371254
p65
sassg36
V2016-10-18T02:37:12+0000
p66
sg38
VA public service message\u000a\u0627\u0646\u0633\u0627\u0646\u06cc \u062c\u0627\u0646\u0648\u06ba \u06a9\u06d2 \u0636\u06cc\u0627\u0639 \u06a9\u0648 \u0631\u0648\u06a9\u0646\u06d2 \u06a9\u06d2 \u0644\u06cc\u06d2 \u0634\u06cc\u0626\u0631 \u06a9\u0631\u06cc\u06ba\u06d4
p67
sg16
Vphoto
p68
sg18
V297869513643777_1067044010059653
p69
s.