(dp0
Vreactions
p1
(dp2
Vpaging
p3
(dp4
Vcursors
p5
(dp6
Vafter
p7
VTVRBd01ERXhOamcwTkRNNE1qYzNPakUwTnpjME1USTBORFk2TWpVME1EazJNVFl4TXc9PQZDZD
p8
sVbefore
p9
VTVRBd01ERXhOamcwTkRNNE1qYzNPakUwTnpjME1USTBORFk2TWpVME1EazJNVFl4TXc9PQZDZD
p10
ssVnext
p11
Vhttps://graph.facebook.com/v2.6/297869513643777_1069478839816170/reactions?access_token=599965930180946%7C575aa5390a4589483de7f8cf99702788&limit=1&after=TVRBd01ERXhOamcwTkRNNE1qYzNPakUwTnpjME1USTBORFk2TWpVME1EazJNVFl4TXc9PQZDZD
p12
ssVdata
p13
(lp14
(dp15
Vtype
p16
VLIKE
p17
sVid
p18
V289355101463969
p19
sVname
p20
VMuhammad Saleem
p21
sassVshares
p22
(dp23
Vcount
p24
I39
ssVlink
p25
Vhttps://www.facebook.com/humpakistan.info/videos/1069478839816170/
p26
sVcomments
p27
(dp28
g3
(dp29
g5
(dp30
g7
VMQZDZD
p31
sg9
VMQZDZD
p32
sssg13
(lp33
(dp34
Vcreated_time
p35
V2016-10-21T07:41:22+0000
p36
sVmessage
p37
VHahaha
p38
sVfrom
p39
(dp40
g20
VNawo Awan
p41
sg18
V281520858908346
p42
ssg18
V1069478839816170_1069699553127432
p43
sassg35
V2016-10-21T00:50:04+0000
p44
sg37
V\u0627\u0645\u0627\u06ba \u06a9\u06cc \u0633\u0631\u062c\u06cc\u06a9\u0644 \u0633\u0679\u0631\u0627\u0626\u06cc\u06a9
p45
sg16
Vvideo
p46
sg18
V297869513643777_1069478839816170
p47
s.