(dp0
Vreactions
p1
(dp2
Vpaging
p3
(dp4
Vcursors
p5
(dp6
Vafter
p7
VTVRBd01ERXpNVGczTVRrME5qRXhPakUwTnpVME1URTJOams2TWpVME1EazJNVFl4TXc9PQZDZD
p8
sVbefore
p9
VTVRBd01ERXpNVGczTVRrME5qRXhPakUwTnpVME1URTJOams2TWpVME1EazJNVFl4TXc9PQZDZD
p10
ssVnext
p11
Vhttps://graph.facebook.com/v2.6/297869513643777_1052714798159241/reactions?access_token=599965930180946%7C575aa5390a4589483de7f8cf99702788&summary=true&limit=1&after=TVRBd01ERXpNVGczTVRrME5qRXhPakUwTnpVME1URTJOams2TWpVME1EazJNVFl4TXc9PQZDZD
p12
ssVdata
p13
(lp14
(dp15
Vtype
p16
VLIKE
p17
sVid
p18
V188477494935156
p19
sVname
p20
VRaja Ahmed
p21
sasVsummary
p22
(dp23
Vtotal_count
p24
I41
sVviewer_reaction
p25
VNONE
p26
sssg20
VSwat Valley, Pakistan
p27
sVshares
p28
(dp29
Vcount
p30
I5
ssVlink
p31
Vhttps://www.facebook.com/humpakistan.info/photos/a.940776269353095.1073741850.297869513643777/1052714798159241/?type=3
p32
sVcreated_time
p33
V2016-10-01T02:05:04+0000
p34
sVmessage
p35
V#Maho-dand #Lake (on 21st august 2016)\u000a Kalam valley | swat | KPK | Pakistan |\u000aPhoto by : Cerelac Khan
p36
sg16
Vphoto
p37
sg18
V297869513643777_1052714798159241
p38
s.