(dp0
Vreactions
p1
(dp2
Vpaging
p3
(dp4
Vcursors
p5
(dp6
Vafter
p7
VTVRBd01EQTNOelExTURnMk5UYzRPakUwTnpZAek5qRXpORGM2TWpVME1EazJNVFl4TXc9PQZDZD
p8
sVbefore
p9
VTVRBd01EQTNOelExTURnMk5UYzRPakUwTnpZAek5qRXpORGM2TWpVME1EazJNVFl4TXc9PQZDZD
p10
ssVnext
p11
Vhttps://graph.facebook.com/v2.6/297869513643777_1059634684133919/reactions?access_token=599965930180946%7C575aa5390a4589483de7f8cf99702788&summary=true&limit=1&after=TVRBd01EQTNOelExTURnMk5UYzRPakUwTnpZAek5qRXpORGM2TWpVME1EazJNVFl4TXc9PQZDZD
p12
ssVdata
p13
(lp14
(dp15
Vtype
p16
VLIKE
p17
sVid
p18
V1838134906454661
p19
sVname
p20
VKashif Ali Dayo
p21
sasVsummary
p22
(dp23
Vtotal_count
p24
I8
sVviewer_reaction
p25
VNONE
p26
sssVshares
p27
(dp28
Vcount
p29
I3
ssVlink
p30
Vhttps://www.facebook.com/humpakistan.info/videos/1059634684133919/
p31
sVcreated_time
p32
V2016-10-09T11:18:59+0000
p33
sVmessage
p34
V\u0644\u0627\u06c1\u0648\u0631: \u062a\u0631\u0642\u06cc\u0627\u062a\u06cc \u0645\u0646\u0635\u0648\u0628\u0648\u06ba \u06a9\u06cc \u0631\u0627\u06c1 \u0645\u06cc\u06ba \u0622\u0646\u06d2 \u0648\u0627\u0644\u06d2 \u062f\u0631\u062e\u062a \u0627\u0628 \u0646\u06c1\u06cc\u06ba \u06a9\u0679\u06cc\u06ba \u06af\u06d2. \u0644\u0627\u06c1\u0648\u0631 \u0645\u06cc\u06ba \u0645\u06cc\u0679\u0631\u0648 \u06a9\u06cc \u062a\u0639\u0645\u06cc\u0631 \u06c1\u0648 \u06cc\u0627 \u0627\u0648\u0631\u0646\u062c \u0644\u0627\u0626\u0646\u060c \u06a9\u0648\u0626\u06cc \u0628\u06be\u06cc \u062a\u0631\u0642\u06cc\u0627\u062a\u06cc \u0645\u0646\u0635\u0648\u0628\u06c1 \u06c1\u0648 \u0633\u0628 \u0633\u06d2 \u067e\u06c1\u0644\u06d2 \u0648\u06c1 \u062f\u0631\u062e\u062a \u06a9\u0679\u062a\u06d2 \u06c1\u06cc\u06ba \u062c\u0648 \u0627\u0633 \u0645\u0646\u0635\u0648\u0628\u06d2 \u06a9\u06d2 \u0631\u0627\u0633\u062a\u06d2 \u0645\u06cc\u06ba \u0622\u062a\u06d2 \u06c1\u06cc\u06ba\u06d4 \u067e\u0646\u062c\u0627\u0628 \u06c1\u0627\u0631\u0679\u06cc \u000a\u06a9\u0644\u0686\u0631\u0627\u062a\u06be\u0627\u0631\u0679\u06cc \u0646\u06d2 \u0627\u0633 \u0645\u0633\u0626\u0644\u06d2 \u06a9\u0627 \u0627\u06cc\u06a9 \u0646\u06cc\u0627 \u062d\u0644 \u0646\u06a9\u0627\u0644\u0627 \u06c1\u06d2\u06d4\u000aVideo courtesy : BBC URDU
p35
sg16
Vvideo
p36
sg18
V297869513643777_1059634684133919
p37
s.