(dp0
Vreactions
p1
(dp2
Vpaging
p3
(dp4
Vcursors
p5
(dp6
Vafter
p7
VTVRBd01EQXlOalUxTURFMU16ZAzVPakUwTnpjNE9UZAzFPRGM2TWpVME1EazJNVFl4TXc9PQZDZD
p8
sVbefore
p9
VTVRBd01EQXlOalUxTURFMU16ZAzVPakUwTnpjNE9UZAzFPRGM2TWpVME1EazJNVFl4TXc9PQZDZD
p10
ssVnext
p11
Vhttps://graph.facebook.com/v2.6/297869513643777_1077565735674147/reactions?access_token=599965930180946%7C575aa5390a4589483de7f8cf99702788&limit=1&after=TVRBd01EQXlOalUxTURFMU16ZAzVPakUwTnpjNE9UZAzFPRGM2TWpVME1EazJNVFl4TXc9PQZDZD
p12
ssVdata
p13
(lp14
(dp15
Vtype
p16
VLIKE
p17
sVid
p18
V1041424402622717
p19
sVname
p20
VKhatir Mustafa
p21
sassg20
VTimeline Photos
p22
sVshares
p23
(dp24
Vcount
p25
I6
ssVlink
p26
Vhttps://www.facebook.com/humpakistan.info/photos/a.692310727532985.1073741829.297869513643777/1077565735674147/?type=3
p27
sVcomments
p28
(dp29
g3
(dp30
g5
(dp31
g7
VMgZDZD
p32
sg9
VMgZDZD
p33
sssg13
(lp34
(dp35
Vcreated_time
p36
V2016-10-30T23:15:52+0000
p37
sVmessage
p38
VJhot k Hath Paon hoty to teri sahi dhulai karta...Ye Antarctica ki picture hai.
p39
sVfrom
p40
(dp41
g20
VMuhammad Luqman
p42
sg18
V1109921142457255
p43
ssg18
V1077565735674147_1078130688950985
p44
sassg36
V2016-10-30T09:44:35+0000
p45
sg38
VBaltoro Glacier
p46
sg16
Vphoto
p47
sg18
V297869513643777_1077565735674147
p48
s.