(dp0
Vreactions
p1
(dp2
Vpaging
p3
(dp4
Vcursors
p5
(dp6
Vafter
p7
VTVRBNE9UUTJNakU0T1RveE5EYzFPVFk0TnpreU9qSTFOREE1TmpFMk1UTT0ZD
p8
sVbefore
p9
VTVRBNE9UUTJNakU0T1RveE5EYzFPVFk0TnpreU9qSTFOREE1TmpFMk1UTT0ZD
p10
ssVnext
p11
Vhttps://graph.facebook.com/v2.6/297869513643777_1058048720959182/reactions?access_token=599965930180946%7C575aa5390a4589483de7f8cf99702788&summary=true&limit=1&after=TVRBNE9UUTJNakU0T1RveE5EYzFPVFk0TnpreU9qSTFOREE1TmpFMk1UTT0ZD
p12
ssVdata
p13
(lp14
(dp15
Vtype
p16
VLIKE
p17
sVid
p18
V10211172610486321
p19
sVname
p20
VHaroon Riaz
p21
sasVsummary
p22
(dp23
Vtotal_count
p24
I91
sVviewer_reaction
p25
VNONE
p26
sssg20
VKaghan-Naran, Pakistan
p27
sVshares
p28
(dp29
Vcount
p30
I15
ssVlink
p31
Vhttps://www.facebook.com/humpakistan.info/photos/a.965104680253587.1073741861.297869513643777/1058048720959182/?type=3
p32
sVcreated_time
p33
V2016-10-07T11:25:12+0000
p34
sVmessage
p35
V#Babusar #top \u000aKagha-Naran | KPK | Pakistan
p36
sg16
Vphoto
p37
sg18
V297869513643777_1058048720959182
p38
s.