(dp0
Vreactions
p1
(dp2
Vpaging
p3
(dp4
Vcursors
p5
(dp6
Vafter
p7
VTVRBd01ERXpOekV4TkRjeU1UY3pPakUwTnpZAd01EWTJORGs2TWpVME1EazJNVFl4TXc9PQZDZD
p8
sVbefore
p9
VTVRBd01ERXpOekV4TkRjeU1UY3pPakUwTnpZAd01EWTJORGs2TWpVME1EazJNVFl4TXc9PQZDZD
p10
ssVnext
p11
Vhttps://graph.facebook.com/v2.6/297869513643777_1054937457936975/reactions?access_token=599965930180946%7C575aa5390a4589483de7f8cf99702788&summary=true&limit=1&after=TVRBd01ERXpOekV4TkRjeU1UY3pPakUwTnpZAd01EWTJORGs2TWpVME1EazJNVFl4TXc9PQZDZD
p12
ssVdata
p13
(lp14
(dp15
Vtype
p16
VLIKE
p17
sVid
p18
V148492035617845
p19
sVname
p20
VArif Ismail
p21
sasVsummary
p22
(dp23
Vtotal_count
p24
I59
sVviewer_reaction
p25
VNONE
p26
sssg20
VFairy Meadows & Nanga Purbat, Gilgit-Baltistan, Pakistan
p27
sVshares
p28
(dp29
Vcount
p30
I11
ssVlink
p31
Vhttps://www.facebook.com/humpakistan.info/photos/a.987391828024872.1073741875.297869513643777/1054937457936975/?type=3
p32
sVcomments
p33
(dp34
g3
(dp35
g5
(dp36
g7
VMQZDZD
p37
sg9
VMQZDZD
p38
sssg13
(lp39
(dp40
Vcreated_time
p41
V2016-10-03T23:45:24+0000
p42
sVmessage
p43
Vwonderful place
p44
sVfrom
p45
(dp46
g20
VEid Amon
p47
sg18
V1808944726044035
p48
ssg18
V1054937457936975_1055258197904901
p49
sassg41
V2016-10-03T15:12:51+0000
p50
sg43
V#Fairy #Meadow\u000aGilgit-Baltistan | Pakistan | \u000a\u2606 Photo by: M.Akram Attari \u2606
p51
sg16
Vphoto
p52
sg18
V297869513643777_1054937457936975
p53
s.