(dp0
Vreactions
p1
(dp2
Vpaging
p3
(dp4
Vcursors
p5
(dp6
Vafter
p7
VTVRBd01EQTNPRGd3TVRFek5qSTBPakUwTnpjMk5qQXlORGM2TWpVME1EazJNVFl4TXc9PQZDZD
p8
sVbefore
p9
VTVRBd01EQTNPRGd3TVRFek5qSTBPakUwTnpjMk5qQXlORGM2TWpVME1EazJNVFl4TXc9PQZDZD
p10
ssVnext
p11
Vhttps://graph.facebook.com/v2.6/297869513643777_1070663869697667/reactions?access_token=599965930180946%7C575aa5390a4589483de7f8cf99702788&limit=1&after=TVRBd01EQTNPRGd3TVRFek5qSTBPakUwTnpjMk5qQXlORGM2TWpVME1EazJNVFl4TXc9PQZDZD
p12
ssVdata
p13
(lp14
(dp15
Vtype
p16
VLIKE
p17
sVid
p18
V1776571249282195
p19
sVname
p20
VMunaver Khan
p21
sassg20
VHUNZA VALLEY
p22
sVshares
p23
(dp24
Vcount
p25
I92
ssVlink
p26
Vhttps://www.facebook.com/humpakistan.info/photos/a.961669193930469.1073741858.297869513643777/1070663869697667/?type=3
p27
sVcreated_time
p28
V2016-10-22T08:50:21+0000
p29
sVmessage
p30
VSplendid Hunza Valley, Pakistan
p31
sg16
Vphoto
p32
sg18
V297869513643777_1070663869697667
p33
s.