(dp0
Vreactions
p1
(dp2
Vpaging
p3
(dp4
Vcursors
p5
(dp6
Vafter
p7
VTVRBd01ERXpOVFkzT1RJME9EWXlPakUwTnpZAd01qZAzBOems2TWpVME1EazJNVFl4TXc9PQZDZD
p8
sVbefore
p9
VTVRBd01ERXpOVFkzT1RJME9EWXlPakUwTnpZAd01qZAzBOems2TWpVME1EazJNVFl4TXc9PQZDZD
p10
ssVnext
p11
Vhttps://graph.facebook.com/v2.6/297869513643777_1056152977815423/reactions?access_token=599965930180946%7C575aa5390a4589483de7f8cf99702788&summary=true&limit=1&after=TVRBd01ERXpOVFkzT1RJME9EWXlPakUwTnpZAd01qZAzBOems2TWpVME1EazJNVFl4TXc9PQZDZD
p12
ssVdata
p13
(lp14
(dp15
Vtype
p16
VLIKE
p17
sVid
p18
V163083534153910
p19
sVname
p20
VSher Muhamad
p21
sasVsummary
p22
(dp23
Vtotal_count
p24
I50
sVviewer_reaction
p25
VNONE
p26
sssg20
VBahawalpur
p27
sVshares
p28
(dp29
Vcount
p30
I6
ssVlink
p31
Vhttps://www.facebook.com/humpakistan.info/photos/a.871057932991596.1073741833.297869513643777/1056152977815423/?type=3
p32
sVcreated_time
p33
V2016-10-05T00:57:35+0000
p34
sVmessage
p35
VDerrawar Fort Cholistan \u000aAwesome view\u000aBahawalpur | Punjab | Pakistan |
p36
sg16
Vphoto
p37
sg18
V297869513643777_1056152977815423
p38
s.