(dp0
Vreactions
p1
(dp2
Vpaging
p3
(dp4
Vcursors
p5
(dp6
Vafter
p7
VTVRBd01ERXpOekV4TkRjeU1UY3pPakUwTnpZAd01EWTJORE02TWpVME1EazJNVFl4TXc9PQZDZD
p8
sVbefore
p9
VTVRBd01ERXpOekV4TkRjeU1UY3pPakUwTnpZAd01EWTJORE02TWpVME1EazJNVFl4TXc9PQZDZD
p10
ssVnext
p11
Vhttps://graph.facebook.com/v2.6/297869513643777_1055401374557250/reactions?access_token=599965930180946%7C575aa5390a4589483de7f8cf99702788&summary=true&limit=1&after=TVRBd01ERXpOekV4TkRjeU1UY3pPakUwTnpZAd01EWTJORE02TWpVME1EazJNVFl4TXc9PQZDZD
p12
ssVdata
p13
(lp14
(dp15
Vtype
p16
VLIKE
p17
sVid
p18
V148492035617845
p19
sVname
p20
VArif Ismail
p21
sasVsummary
p22
(dp23
Vtotal_count
p24
I57
sVviewer_reaction
p25
VNONE
p26
sssg20
VHUNZA VALLEY
p27
sVshares
p28
(dp29
Vcount
p30
I10
ssVlink
p31
Vhttps://www.facebook.com/humpakistan.info/photos/a.961669193930469.1073741858.297869513643777/1055401374557250/?type=3
p32
sVcreated_time
p33
V2016-10-04T03:51:00+0000
p34
sVmessage
p35
V#AtabadLake\u000aGojal | Hunza Valley | \u000aGilgit-Baltistan | Pakistan | \u000a\u2606Picture by : Tanveer Salman\u2606
p36
sg16
Vphoto
p37
sg18
V297869513643777_1055401374557250
p38
s.